ARM GAS  C:\Users\HENRYH~1\AppData\Local\Temp\cc6vFs1L.s 			page 1


   1              		.syntax unified
   2              		.cpu cortex-m3
   3              		.fpu softvfp
   4              		.eabi_attribute 20, 1
   5              		.eabi_attribute 21, 1
   6              		.eabi_attribute 23, 3
   7              		.eabi_attribute 24, 1
   8              		.eabi_attribute 25, 1
   9              		.eabi_attribute 26, 1
  10              		.eabi_attribute 30, 1
  11              		.eabi_attribute 34, 1
  12              		.eabi_attribute 18, 4
  13              		.thumb
  14              		.syntax unified
  15              		.file	"CAN_PM.c"
  16              		.text
  17              	.Ltext0:
  18              		.cfi_sections	.debug_frame
  19              		.section	.text.CAN_SaveConfig,"ax",%progbits
  20              		.align	2
  21              		.global	CAN_SaveConfig
  22              		.thumb
  23              		.thumb_func
  24              		.type	CAN_SaveConfig, %function
  25              	CAN_SaveConfig:
  26              	.LFB0:
  27              		.file 1 "Generated_Source\\PSoC5\\CAN_PM.c"
   1:Generated_Source\PSoC5/CAN_PM.c **** /*******************************************************************************
   2:Generated_Source\PSoC5/CAN_PM.c **** * File Name: CAN_PM.c
   3:Generated_Source\PSoC5/CAN_PM.c **** * Version 3.0
   4:Generated_Source\PSoC5/CAN_PM.c **** *
   5:Generated_Source\PSoC5/CAN_PM.c **** * Description:
   6:Generated_Source\PSoC5/CAN_PM.c **** *  This file contains the setup, control and status commands to support
   7:Generated_Source\PSoC5/CAN_PM.c **** *  component operations in the low power mode.
   8:Generated_Source\PSoC5/CAN_PM.c **** *
   9:Generated_Source\PSoC5/CAN_PM.c **** * Note:
  10:Generated_Source\PSoC5/CAN_PM.c **** *
  11:Generated_Source\PSoC5/CAN_PM.c **** ********************************************************************************
  12:Generated_Source\PSoC5/CAN_PM.c **** * Copyright 2008-2015, Cypress Semiconductor Corporation.  All rights reserved.
  13:Generated_Source\PSoC5/CAN_PM.c **** * You may use this file only in accordance with the license, terms, conditions,
  14:Generated_Source\PSoC5/CAN_PM.c **** * disclaimers, and limitations in the end user license agreement accompanying
  15:Generated_Source\PSoC5/CAN_PM.c **** * the software package with which this file was provided.
  16:Generated_Source\PSoC5/CAN_PM.c **** *******************************************************************************/
  17:Generated_Source\PSoC5/CAN_PM.c **** 
  18:Generated_Source\PSoC5/CAN_PM.c **** #include "CAN.h"
  19:Generated_Source\PSoC5/CAN_PM.c **** 
  20:Generated_Source\PSoC5/CAN_PM.c **** static CAN_BACKUP_STRUCT CAN_backup =
  21:Generated_Source\PSoC5/CAN_PM.c **** {
  22:Generated_Source\PSoC5/CAN_PM.c ****     0u,
  23:Generated_Source\PSoC5/CAN_PM.c ****     #if (CY_PSOC3 || CY_PSOC5)
  24:Generated_Source\PSoC5/CAN_PM.c ****         0u,
  25:Generated_Source\PSoC5/CAN_PM.c ****         CAN_INIT_INTERRUPT_MASK,
  26:Generated_Source\PSoC5/CAN_PM.c ****         CAN_MODE_MASK,
  27:Generated_Source\PSoC5/CAN_PM.c ****         (((uint32) ((uint32) CAN_SYNC_EDGE    << CAN_EDGE_MODE_SHIFT))     |
  28:Generated_Source\PSoC5/CAN_PM.c ****         ((uint32) ((uint32) CAN_SAMPLING_MODE << CAN_SAMPLE_MODE_SHIFT))   |
  29:Generated_Source\PSoC5/CAN_PM.c ****         ((uint32) ((uint32) CAN_CFG_REG_SJW   << CAN_CFG_REG_SJW_SHIFT))   |
  30:Generated_Source\PSoC5/CAN_PM.c ****         ((uint32) ((uint32) CAN_RESET_TYPE    << CAN_RESET_SHIFT))         |
ARM GAS  C:\Users\HENRYH~1\AppData\Local\Temp\cc6vFs1L.s 			page 2


  31:Generated_Source\PSoC5/CAN_PM.c ****         ((uint32) ((uint32) CAN_CFG_REG_TSEG2 << CAN_CFG_REG_TSEG2_SHIFT)) |
  32:Generated_Source\PSoC5/CAN_PM.c ****         ((uint32) ((uint32) CAN_CFG_REG_TSEG1 << CAN_CFG_REG_TSEG1_SHIFT)) |
  33:Generated_Source\PSoC5/CAN_PM.c ****         ((uint32) ((uint32) CAN_ARBITER       << CAN_ARBITER_SHIFT))       |
  34:Generated_Source\PSoC5/CAN_PM.c ****         ((uint32) ((uint32) CAN_BITRATE       << CAN_BITRATE_SHIFT)))
  35:Generated_Source\PSoC5/CAN_PM.c ****     #endif /* CY_PSOC3 || CY_PSOC5 */
  36:Generated_Source\PSoC5/CAN_PM.c **** };
  37:Generated_Source\PSoC5/CAN_PM.c **** 
  38:Generated_Source\PSoC5/CAN_PM.c **** 
  39:Generated_Source\PSoC5/CAN_PM.c **** /*******************************************************************************
  40:Generated_Source\PSoC5/CAN_PM.c **** * Function Name: CAN_SaveConfig
  41:Generated_Source\PSoC5/CAN_PM.c **** ********************************************************************************
  42:Generated_Source\PSoC5/CAN_PM.c **** *
  43:Generated_Source\PSoC5/CAN_PM.c **** * Summary:
  44:Generated_Source\PSoC5/CAN_PM.c **** *  Save the CAN configuration.
  45:Generated_Source\PSoC5/CAN_PM.c **** *
  46:Generated_Source\PSoC5/CAN_PM.c **** * Parameters:
  47:Generated_Source\PSoC5/CAN_PM.c **** *  None.
  48:Generated_Source\PSoC5/CAN_PM.c **** *
  49:Generated_Source\PSoC5/CAN_PM.c **** * Return:
  50:Generated_Source\PSoC5/CAN_PM.c **** *  None.
  51:Generated_Source\PSoC5/CAN_PM.c **** *
  52:Generated_Source\PSoC5/CAN_PM.c **** * Global Variables:
  53:Generated_Source\PSoC5/CAN_PM.c **** *  CAN_backup - Modified when non-retention registers are saved.
  54:Generated_Source\PSoC5/CAN_PM.c **** *
  55:Generated_Source\PSoC5/CAN_PM.c **** * Reentrant:
  56:Generated_Source\PSoC5/CAN_PM.c **** *  No.
  57:Generated_Source\PSoC5/CAN_PM.c **** *
  58:Generated_Source\PSoC5/CAN_PM.c **** *******************************************************************************/
  59:Generated_Source\PSoC5/CAN_PM.c **** void CAN_SaveConfig(void) 
  60:Generated_Source\PSoC5/CAN_PM.c **** {
  28              		.loc 1 60 0
  29              		.cfi_startproc
  30              		@ args = 0, pretend = 0, frame = 0
  31              		@ frame_needed = 0, uses_anonymous_args = 0
  32              		@ link register save eliminated.
  61:Generated_Source\PSoC5/CAN_PM.c ****     #if (CY_PSOC3 || CY_PSOC5)
  62:Generated_Source\PSoC5/CAN_PM.c ****         CAN_backup.intSr = (CY_GET_REG32(CAN_INT_SR_PTR));
  33              		.loc 1 62 0
  34 0000 064B     		ldr	r3, .L2
  35 0002 1A68     		ldr	r2, [r3]
  36 0004 064B     		ldr	r3, .L2+4
  37 0006 5A60     		str	r2, [r3, #4]
  63:Generated_Source\PSoC5/CAN_PM.c ****         CAN_backup.intEn = (CY_GET_REG32(CAN_INT_EN_PTR));
  38              		.loc 1 63 0
  39 0008 064A     		ldr	r2, .L2+8
  40 000a 1268     		ldr	r2, [r2]
  41 000c 9A60     		str	r2, [r3, #8]
  64:Generated_Source\PSoC5/CAN_PM.c ****         CAN_backup.cmd = (CY_GET_REG32(CAN_CMD_PTR));
  42              		.loc 1 64 0
  43 000e 064A     		ldr	r2, .L2+12
  44 0010 1268     		ldr	r2, [r2]
  45 0012 DA60     		str	r2, [r3, #12]
  65:Generated_Source\PSoC5/CAN_PM.c ****         CAN_backup.cfg = (CY_GET_REG32(CAN_CFG_PTR));
  46              		.loc 1 65 0
  47 0014 054A     		ldr	r2, .L2+16
  48 0016 1268     		ldr	r2, [r2]
  49 0018 1A61     		str	r2, [r3, #16]
ARM GAS  C:\Users\HENRYH~1\AppData\Local\Temp\cc6vFs1L.s 			page 3


  50 001a 7047     		bx	lr
  51              	.L3:
  52              		.align	2
  53              	.L2:
  54 001c 00A00040 		.word	1073782784
  55 0020 00000000 		.word	.LANCHOR0
  56 0024 04A00040 		.word	1073782788
  57 0028 10A00040 		.word	1073782800
  58 002c 14A00040 		.word	1073782804
  59              		.cfi_endproc
  60              	.LFE0:
  61              		.size	CAN_SaveConfig, .-CAN_SaveConfig
  62              		.section	.text.CAN_RestoreConfig,"ax",%progbits
  63              		.align	2
  64              		.global	CAN_RestoreConfig
  65              		.thumb
  66              		.thumb_func
  67              		.type	CAN_RestoreConfig, %function
  68              	CAN_RestoreConfig:
  69              	.LFB1:
  66:Generated_Source\PSoC5/CAN_PM.c ****     #endif /* CY_PSOC3 || CY_PSOC5 */
  67:Generated_Source\PSoC5/CAN_PM.c **** }
  68:Generated_Source\PSoC5/CAN_PM.c **** 
  69:Generated_Source\PSoC5/CAN_PM.c **** 
  70:Generated_Source\PSoC5/CAN_PM.c **** /*******************************************************************************
  71:Generated_Source\PSoC5/CAN_PM.c **** * Function Name: CAN_RestoreConfig
  72:Generated_Source\PSoC5/CAN_PM.c **** ********************************************************************************
  73:Generated_Source\PSoC5/CAN_PM.c **** *
  74:Generated_Source\PSoC5/CAN_PM.c **** * Summary:
  75:Generated_Source\PSoC5/CAN_PM.c **** *  Restore the CAN configuration.
  76:Generated_Source\PSoC5/CAN_PM.c **** *
  77:Generated_Source\PSoC5/CAN_PM.c **** * Parameters:
  78:Generated_Source\PSoC5/CAN_PM.c **** *  None.
  79:Generated_Source\PSoC5/CAN_PM.c **** *
  80:Generated_Source\PSoC5/CAN_PM.c **** * Return:
  81:Generated_Source\PSoC5/CAN_PM.c **** *  None.
  82:Generated_Source\PSoC5/CAN_PM.c **** *
  83:Generated_Source\PSoC5/CAN_PM.c **** * Global Variables:
  84:Generated_Source\PSoC5/CAN_PM.c **** *  CAN_backup - Used when non-retention registers are restored.
  85:Generated_Source\PSoC5/CAN_PM.c **** *
  86:Generated_Source\PSoC5/CAN_PM.c **** * Side Effects:
  87:Generated_Source\PSoC5/CAN_PM.c **** *  If this API is called without first calling SaveConfig then default values
  88:Generated_Source\PSoC5/CAN_PM.c **** *  from Customizer will be in the following registers: CAN_INT_SR,
  89:Generated_Source\PSoC5/CAN_PM.c **** *  CAN_INT_EN, CAN_CMD, CAN_CFG.
  90:Generated_Source\PSoC5/CAN_PM.c **** *
  91:Generated_Source\PSoC5/CAN_PM.c **** *******************************************************************************/
  92:Generated_Source\PSoC5/CAN_PM.c **** void CAN_RestoreConfig(void) 
  93:Generated_Source\PSoC5/CAN_PM.c **** {
  70              		.loc 1 93 0
  71              		.cfi_startproc
  72              		@ args = 0, pretend = 0, frame = 0
  73              		@ frame_needed = 0, uses_anonymous_args = 0
  74              		@ link register save eliminated.
  94:Generated_Source\PSoC5/CAN_PM.c ****     #if (CY_PSOC3 || CY_PSOC5)
  95:Generated_Source\PSoC5/CAN_PM.c ****         CY_SET_REG32(CAN_INT_SR_PTR, CAN_backup.intSr);
  75              		.loc 1 95 0
  76 0000 064B     		ldr	r3, .L5
ARM GAS  C:\Users\HENRYH~1\AppData\Local\Temp\cc6vFs1L.s 			page 4


  77 0002 5968     		ldr	r1, [r3, #4]
  78 0004 064A     		ldr	r2, .L5+4
  79 0006 1160     		str	r1, [r2]
  96:Generated_Source\PSoC5/CAN_PM.c ****         CY_SET_REG32(CAN_INT_EN_PTR, CAN_backup.intEn);
  80              		.loc 1 96 0
  81 0008 9968     		ldr	r1, [r3, #8]
  82 000a 0432     		adds	r2, r2, #4
  83 000c 1160     		str	r1, [r2]
  97:Generated_Source\PSoC5/CAN_PM.c ****         CY_SET_REG32(CAN_CMD_PTR, CAN_backup.cmd);
  84              		.loc 1 97 0
  85 000e D968     		ldr	r1, [r3, #12]
  86 0010 0C32     		adds	r2, r2, #12
  87 0012 1160     		str	r1, [r2]
  98:Generated_Source\PSoC5/CAN_PM.c ****         CY_SET_REG32(CAN_CFG_PTR, CAN_backup.cfg);
  88              		.loc 1 98 0
  89 0014 1A69     		ldr	r2, [r3, #16]
  90 0016 034B     		ldr	r3, .L5+8
  91 0018 1A60     		str	r2, [r3]
  92 001a 7047     		bx	lr
  93              	.L6:
  94              		.align	2
  95              	.L5:
  96 001c 00000000 		.word	.LANCHOR0
  97 0020 00A00040 		.word	1073782784
  98 0024 14A00040 		.word	1073782804
  99              		.cfi_endproc
 100              	.LFE1:
 101              		.size	CAN_RestoreConfig, .-CAN_RestoreConfig
 102              		.section	.text.CAN_Sleep,"ax",%progbits
 103              		.align	2
 104              		.global	CAN_Sleep
 105              		.thumb
 106              		.thumb_func
 107              		.type	CAN_Sleep, %function
 108              	CAN_Sleep:
 109              	.LFB2:
  99:Generated_Source\PSoC5/CAN_PM.c ****     #endif /* CY_PSOC3 || CY_PSOC5 */
 100:Generated_Source\PSoC5/CAN_PM.c **** }
 101:Generated_Source\PSoC5/CAN_PM.c **** 
 102:Generated_Source\PSoC5/CAN_PM.c **** 
 103:Generated_Source\PSoC5/CAN_PM.c **** /*******************************************************************************
 104:Generated_Source\PSoC5/CAN_PM.c **** * Function Name: CAN_Sleep
 105:Generated_Source\PSoC5/CAN_PM.c **** ********************************************************************************
 106:Generated_Source\PSoC5/CAN_PM.c **** *
 107:Generated_Source\PSoC5/CAN_PM.c **** * Summary:
 108:Generated_Source\PSoC5/CAN_PM.c **** *  Prepares CAN Component to go to sleep.
 109:Generated_Source\PSoC5/CAN_PM.c **** *
 110:Generated_Source\PSoC5/CAN_PM.c **** * Parameters:
 111:Generated_Source\PSoC5/CAN_PM.c **** *  None.
 112:Generated_Source\PSoC5/CAN_PM.c **** *
 113:Generated_Source\PSoC5/CAN_PM.c **** * Return:
 114:Generated_Source\PSoC5/CAN_PM.c **** *  None.
 115:Generated_Source\PSoC5/CAN_PM.c **** *
 116:Generated_Source\PSoC5/CAN_PM.c **** * Global Variables:
 117:Generated_Source\PSoC5/CAN_PM.c **** *  CAN_backup - Modified when non-retention registers are saved.
 118:Generated_Source\PSoC5/CAN_PM.c **** *
 119:Generated_Source\PSoC5/CAN_PM.c **** * Reentrant:
ARM GAS  C:\Users\HENRYH~1\AppData\Local\Temp\cc6vFs1L.s 			page 5


 120:Generated_Source\PSoC5/CAN_PM.c **** *  No.
 121:Generated_Source\PSoC5/CAN_PM.c **** *
 122:Generated_Source\PSoC5/CAN_PM.c **** *******************************************************************************/
 123:Generated_Source\PSoC5/CAN_PM.c **** void CAN_Sleep(void) 
 124:Generated_Source\PSoC5/CAN_PM.c **** {
 110              		.loc 1 124 0
 111              		.cfi_startproc
 112              		@ args = 0, pretend = 0, frame = 0
 113              		@ frame_needed = 0, uses_anonymous_args = 0
 114 0000 08B5     		push	{r3, lr}
 115              		.cfi_def_cfa_offset 8
 116              		.cfi_offset 3, -8
 117              		.cfi_offset 14, -4
 125:Generated_Source\PSoC5/CAN_PM.c ****     #if (!(CY_PSOC3 || CY_PSOC5))
 126:Generated_Source\PSoC5/CAN_PM.c ****         uint8 i;
 127:Generated_Source\PSoC5/CAN_PM.c ****     #endif /* (!(CY_PSOC3 || CY_PSOC5)) */
 128:Generated_Source\PSoC5/CAN_PM.c **** 
 129:Generated_Source\PSoC5/CAN_PM.c ****     if (0u != (CY_GET_REG32(CAN_CMD_PTR) & CAN_MODE_MASK))
 118              		.loc 1 129 0
 119 0002 084B     		ldr	r3, .L11
 120 0004 1B68     		ldr	r3, [r3]
 121 0006 13F0010F 		tst	r3, #1
 122 000a 03D0     		beq	.L8
 130:Generated_Source\PSoC5/CAN_PM.c ****     {
 131:Generated_Source\PSoC5/CAN_PM.c ****         CAN_backup.enableState = 1u;
 123              		.loc 1 131 0
 124 000c 0122     		movs	r2, #1
 125 000e 064B     		ldr	r3, .L11+4
 126 0010 1A70     		strb	r2, [r3]
 127 0012 02E0     		b	.L9
 128              	.L8:
 132:Generated_Source\PSoC5/CAN_PM.c ****     }
 133:Generated_Source\PSoC5/CAN_PM.c ****     else /* CAN block is disabled */
 134:Generated_Source\PSoC5/CAN_PM.c ****     {
 135:Generated_Source\PSoC5/CAN_PM.c ****         CAN_backup.enableState = 0u;
 129              		.loc 1 135 0
 130 0014 0022     		movs	r2, #0
 131 0016 044B     		ldr	r3, .L11+4
 132 0018 1A70     		strb	r2, [r3]
 133              	.L9:
 136:Generated_Source\PSoC5/CAN_PM.c ****     }
 137:Generated_Source\PSoC5/CAN_PM.c **** 
 138:Generated_Source\PSoC5/CAN_PM.c ****     #if (CY_PSOC3 || CY_PSOC5)
 139:Generated_Source\PSoC5/CAN_PM.c ****         CAN_SaveConfig();
 134              		.loc 1 139 0
 135 001a FFF7FEFF 		bl	CAN_SaveConfig
 136              	.LVL0:
 140:Generated_Source\PSoC5/CAN_PM.c ****         (void) CAN_Stop();
 137              		.loc 1 140 0
 138 001e FFF7FEFF 		bl	CAN_Stop
 139              	.LVL1:
 140 0022 08BD     		pop	{r3, pc}
 141              	.L12:
 142              		.align	2
 143              	.L11:
 144 0024 10A00040 		.word	1073782800
 145 0028 00000000 		.word	.LANCHOR0
ARM GAS  C:\Users\HENRYH~1\AppData\Local\Temp\cc6vFs1L.s 			page 6


 146              		.cfi_endproc
 147              	.LFE2:
 148              		.size	CAN_Sleep, .-CAN_Sleep
 149              		.section	.text.CAN_Wakeup,"ax",%progbits
 150              		.align	2
 151              		.global	CAN_Wakeup
 152              		.thumb
 153              		.thumb_func
 154              		.type	CAN_Wakeup, %function
 155              	CAN_Wakeup:
 156              	.LFB3:
 141:Generated_Source\PSoC5/CAN_PM.c ****     #else /* CY_PSOC4 */
 142:Generated_Source\PSoC5/CAN_PM.c ****         /* Abort respective pending TX message requests */
 143:Generated_Source\PSoC5/CAN_PM.c ****         for (i = 0u; i < CAN_NUMBER_OF_TX_MAILBOXES; i++)
 144:Generated_Source\PSoC5/CAN_PM.c ****         {
 145:Generated_Source\PSoC5/CAN_PM.c ****             CAN_TX_ABORT_MESSAGE(i);
 146:Generated_Source\PSoC5/CAN_PM.c ****         }
 147:Generated_Source\PSoC5/CAN_PM.c **** 
 148:Generated_Source\PSoC5/CAN_PM.c ****         /* Sets CAN controller to Stop mode */
 149:Generated_Source\PSoC5/CAN_PM.c ****         (void) CAN_Stop();
 150:Generated_Source\PSoC5/CAN_PM.c **** 
 151:Generated_Source\PSoC5/CAN_PM.c ****         /* Clear Global Interrupt enable Flag */
 152:Generated_Source\PSoC5/CAN_PM.c ****         (void) CAN_GlobalIntDisable();
 153:Generated_Source\PSoC5/CAN_PM.c ****     #endif /* CY_PSOC3 || CY_PSOC5 */
 154:Generated_Source\PSoC5/CAN_PM.c **** }
 155:Generated_Source\PSoC5/CAN_PM.c **** 
 156:Generated_Source\PSoC5/CAN_PM.c **** 
 157:Generated_Source\PSoC5/CAN_PM.c **** /*******************************************************************************
 158:Generated_Source\PSoC5/CAN_PM.c **** * Function Name: CAN_Wakeup
 159:Generated_Source\PSoC5/CAN_PM.c **** ********************************************************************************
 160:Generated_Source\PSoC5/CAN_PM.c **** *
 161:Generated_Source\PSoC5/CAN_PM.c **** * Summary:
 162:Generated_Source\PSoC5/CAN_PM.c **** *  Prepares CAN Component to wake up.
 163:Generated_Source\PSoC5/CAN_PM.c **** *
 164:Generated_Source\PSoC5/CAN_PM.c **** * Parameters:
 165:Generated_Source\PSoC5/CAN_PM.c **** *  None.
 166:Generated_Source\PSoC5/CAN_PM.c **** *
 167:Generated_Source\PSoC5/CAN_PM.c **** * Return:
 168:Generated_Source\PSoC5/CAN_PM.c **** *  None.
 169:Generated_Source\PSoC5/CAN_PM.c **** *
 170:Generated_Source\PSoC5/CAN_PM.c **** * Global Variables:
 171:Generated_Source\PSoC5/CAN_PM.c **** *  CAN_backup - Used when non-retention registers are restored.
 172:Generated_Source\PSoC5/CAN_PM.c **** *
 173:Generated_Source\PSoC5/CAN_PM.c **** * Reentrant:
 174:Generated_Source\PSoC5/CAN_PM.c **** *  No.
 175:Generated_Source\PSoC5/CAN_PM.c **** *
 176:Generated_Source\PSoC5/CAN_PM.c **** *******************************************************************************/
 177:Generated_Source\PSoC5/CAN_PM.c **** void CAN_Wakeup(void) 
 178:Generated_Source\PSoC5/CAN_PM.c **** {
 157              		.loc 1 178 0
 158              		.cfi_startproc
 159              		@ args = 0, pretend = 0, frame = 0
 160              		@ frame_needed = 0, uses_anonymous_args = 0
 161 0000 08B5     		push	{r3, lr}
 162              		.cfi_def_cfa_offset 8
 163              		.cfi_offset 3, -8
 164              		.cfi_offset 14, -4
ARM GAS  C:\Users\HENRYH~1\AppData\Local\Temp\cc6vFs1L.s 			page 7


 179:Generated_Source\PSoC5/CAN_PM.c ****     #if (CY_PSOC3 || CY_PSOC5)
 180:Generated_Source\PSoC5/CAN_PM.c ****         /* Enable CAN block in Active mode */
 181:Generated_Source\PSoC5/CAN_PM.c ****         CAN_PM_ACT_CFG_REG |= CAN_ACT_PWR_EN;
 165              		.loc 1 181 0
 166 0002 0A4A     		ldr	r2, .L16
 167 0004 1378     		ldrb	r3, [r2]	@ zero_extendqisi2
 168 0006 43F00103 		orr	r3, r3, #1
 169 000a 1370     		strb	r3, [r2]
 182:Generated_Source\PSoC5/CAN_PM.c ****         /* Enable CAN block in Alternate Active (Standby) mode */
 183:Generated_Source\PSoC5/CAN_PM.c ****         CAN_PM_STBY_CFG_REG |= CAN_STBY_PWR_EN;
 170              		.loc 1 183 0
 171 000c 1032     		adds	r2, r2, #16
 172 000e 1378     		ldrb	r3, [r2]	@ zero_extendqisi2
 173 0010 43F00103 		orr	r3, r3, #1
 174 0014 1370     		strb	r3, [r2]
 184:Generated_Source\PSoC5/CAN_PM.c **** 
 185:Generated_Source\PSoC5/CAN_PM.c ****         CAN_RestoreConfig();
 175              		.loc 1 185 0
 176 0016 FFF7FEFF 		bl	CAN_RestoreConfig
 177              	.LVL2:
 186:Generated_Source\PSoC5/CAN_PM.c **** 
 187:Generated_Source\PSoC5/CAN_PM.c ****         /* Reconfigure Rx and Tx Buffers control registers */
 188:Generated_Source\PSoC5/CAN_PM.c ****         (void) CAN_RxTxBuffersConfig();
 178              		.loc 1 188 0
 179 001a FFF7FEFF 		bl	CAN_RxTxBuffersConfig
 180              	.LVL3:
 189:Generated_Source\PSoC5/CAN_PM.c **** 
 190:Generated_Source\PSoC5/CAN_PM.c ****         if (CAN_backup.enableState != 0u)
 181              		.loc 1 190 0
 182 001e 044B     		ldr	r3, .L16+4
 183 0020 1B78     		ldrb	r3, [r3]	@ zero_extendqisi2
 184 0022 0BB1     		cbz	r3, .L13
 191:Generated_Source\PSoC5/CAN_PM.c ****         {
 192:Generated_Source\PSoC5/CAN_PM.c ****             /* Enable component's operation */
 193:Generated_Source\PSoC5/CAN_PM.c ****             (void) CAN_Enable();
 185              		.loc 1 193 0
 186 0024 FFF7FEFF 		bl	CAN_Enable
 187              	.LVL4:
 188              	.L13:
 189 0028 08BD     		pop	{r3, pc}
 190              	.L17:
 191 002a 00BF     		.align	2
 192              	.L16:
 193 002c A6430040 		.word	1073759142
 194 0030 00000000 		.word	.LANCHOR0
 195              		.cfi_endproc
 196              	.LFE3:
 197              		.size	CAN_Wakeup, .-CAN_Wakeup
 198              		.data
 199              		.align	2
 200              		.set	.LANCHOR0,. + 0
 201              		.type	CAN_backup, %object
 202              		.size	CAN_backup, 20
 203              	CAN_backup:
 204 0000 00       		.byte	0
 205 0001 000000   		.space	3
 206 0004 00000000 		.word	0
ARM GAS  C:\Users\HENRYH~1\AppData\Local\Temp\cc6vFs1L.s 			page 8


 207 0008 01120000 		.word	4609
 208 000c 01000000 		.word	1
 209 0010 24040200 		.word	132132
 210              		.text
 211              	.Letext0:
 212              		.file 2 "Generated_Source\\PSoC5\\cytypes.h"
 213              		.file 3 "Generated_Source\\PSoC5\\CAN.h"