ARM GAS  C:\Users\HENRYH~1\AppData\Local\Temp\cc1bZRLN.s 			page 1


   1              		.syntax unified
   2              		.cpu cortex-m3
   3              		.fpu softvfp
   4              		.eabi_attribute 20, 1
   5              		.eabi_attribute 21, 1
   6              		.eabi_attribute 23, 3
   7              		.eabi_attribute 24, 1
   8              		.eabi_attribute 25, 1
   9              		.eabi_attribute 26, 1
  10              		.eabi_attribute 30, 1
  11              		.eabi_attribute 34, 1
  12              		.eabi_attribute 18, 4
  13              		.thumb
  14              		.syntax unified
  15              		.file	"main.c"
  16              		.text
  17              	.Ltext0:
  18              		.cfi_sections	.debug_frame
  19              		.section	.text.main,"ax",%progbits
  20              		.align	2
  21              		.global	main
  22              		.thumb
  23              		.thumb_func
  24              		.type	main, %function
  25              	main:
  26              	.LFB64:
  27              		.file 1 "main.c"
   1:main.c        **** /* ========================================
   2:main.c        ****  *
   3:main.c        ****  * Copyright YOUR COMPANY, THE YEAR
   4:main.c        ****  * All Rights Reserved
   5:main.c        ****  * UNPUBLISHED, LICENSED SOFTWARE.
   6:main.c        ****  *
   7:main.c        ****  * CONFIDENTIAL AND PROPRIETARY INFORMATION
   8:main.c        ****  * WHICH IS THE PROPERTY OF your company.
   9:main.c        ****  *
  10:main.c        ****  * ========================================
  11:main.c        **** */
  12:main.c        **** #include "project.h"
  13:main.c        **** #include "stdio.h"
  14:main.c        **** 
  15:main.c        **** //Variable globales
  16:main.c        **** char palabra [12]={'\0'};
  17:main.c        **** 
  18:main.c        **** int main(void)
  19:main.c        **** {
  28              		.loc 1 19 0
  29              		.cfi_startproc
  30              		@ args = 0, pretend = 0, frame = 0
  31              		@ frame_needed = 0, uses_anonymous_args = 0
  32 0000 38B5     		push	{r3, r4, r5, lr}
  33              		.cfi_def_cfa_offset 16
  34              		.cfi_offset 3, -16
  35              		.cfi_offset 4, -12
  36              		.cfi_offset 5, -8
  37              		.cfi_offset 14, -4
  20:main.c        ****     int32 Temperatura;
ARM GAS  C:\Users\HENRYH~1\AppData\Local\Temp\cc1bZRLN.s 			page 2


  21:main.c        ****     int32 Referencia;
  22:main.c        ****     //Iniciar perifericos
  23:main.c        ****     LCD_Start();
  38              		.loc 1 23 0
  39 0002 FFF7FEFF 		bl	LCD_Start
  40              	.LVL0:
  24:main.c        ****     LCD_Position (0,0);
  41              		.loc 1 24 0
  42 0006 0021     		movs	r1, #0
  43 0008 0846     		mov	r0, r1
  44 000a FFF7FEFF 		bl	LCD_Position
  45              	.LVL1:
  25:main.c        ****     LCD_PrintString("Ejemplo TC K");
  46              		.loc 1 25 0
  47 000e 1D48     		ldr	r0, .L5
  48 0010 FFF7FEFF 		bl	LCD_PrintString
  49              	.LVL2:
  26:main.c        ****     ADC_Start();
  50              		.loc 1 26 0
  51 0014 FFF7FEFF 		bl	ADC_Start
  52              	.LVL3:
  27:main.c        ****     CyGlobalIntEnable;
  53              		.loc 1 27 0
  54              		.syntax unified
  55              	@ 27 "main.c" 1
  56 0018 62B6     		CPSIE   i
  57              	@ 0 "" 2
  58              	.LVL4:
  28:main.c        ****     //Tomar un valor de referencia a 25 °C (puede ser otro valor de temperatura)
  29:main.c        ****     int temp_ref=25;
  30:main.c        ****     int escala=100;
  31:main.c        ****     Referencia = Termocupla_GetVoltage (temp_ref*escala);
  59              		.loc 1 31 0
  60              		.thumb
  61              		.syntax unified
  62 001a 40F6C410 		movw	r0, #2500
  63 001e FFF7FEFF 		bl	Termocupla_GetVoltage
  64              	.LVL5:
  65 0022 0446     		mov	r4, r0
  66              	.LVL6:
  67              	.L3:
  68              	.LBB2:
  32:main.c        **** 
  33:main.c        ****     for(;;)
  34:main.c        ****     {
  35:main.c        ****         //Tomar valor del ADC
  36:main.c        ****         ADC_StartConvert();
  69              		.loc 1 36 0
  70 0024 FFF7FEFF 		bl	ADC_StartConvert
  71              	.LVL7:
  37:main.c        ****         ADC_IsEndConversion (ADC_WAIT_FOR_RESULT);
  72              		.loc 1 37 0
  73 0028 0020     		movs	r0, #0
  74 002a FFF7FEFF 		bl	ADC_IsEndConversion
  75              	.LVL8:
  38:main.c        ****         ADC_StopConvert();
  76              		.loc 1 38 0
ARM GAS  C:\Users\HENRYH~1\AppData\Local\Temp\cc1bZRLN.s 			page 3


  77 002e FFF7FEFF 		bl	ADC_StopConvert
  78              	.LVL9:
  39:main.c        ****         Temperatura = ADC_GetResult32();
  79              		.loc 1 39 0
  80 0032 FFF7FEFF 		bl	ADC_GetResult32
  81              	.LVL10:
  40:main.c        ****         //Usar libreria para valor de temperatura teniendo en cuenta el
  41:main.c        ****         //valor de referencia
  42:main.c        ****         Temperatura=Termocupla_GetTemperature (Temperatura+Referencia);
  82              		.loc 1 42 0
  83 0036 2044     		add	r0, r0, r4
  84              	.LVL11:
  85 0038 FFF7FEFF 		bl	Termocupla_GetTemperature
  86              	.LVL12:
  43:main.c        ****         //Como el valor de temperatura es un entero largo (2 digitos de presición) 
  44:main.c        ****         //se debe convertir a decimal con punto
  45:main.c        ****         int32 entera  = Temperatura/escala;
  87              		.loc 1 45 0
  88 003c 124A     		ldr	r2, .L5+4
  89 003e 82FB0032 		smull	r3, r2, r2, r0
  90 0042 C117     		asrs	r1, r0, #31
  91 0044 C1EB6212 		rsb	r2, r1, r2, asr #5
  92              	.LVL13:
  46:main.c        ****         int32 decimal = Temperatura-(entera*escala);
  93              		.loc 1 46 0
  94 0048 6423     		movs	r3, #100
  95 004a 03FB1203 		mls	r3, r3, r2, r0
  96              	.LVL14:
  47:main.c        ****         //si la parte decimal es negativa hay que convertirla a positiva
  48:main.c        ****         if (decimal<0) { decimal*=-1; }
  97              		.loc 1 48 0
  98 004e 002B     		cmp	r3, #0
  99 0050 00DA     		bge	.L2
 100              		.loc 1 48 0 is_stmt 0 discriminator 1
 101 0052 5B42     		negs	r3, r3
 102              	.LVL15:
 103              	.L2:
  49:main.c        ****         //Crear String
  50:main.c        ****         sprintf (palabra, "Temp=%ld.%021d C", entera, decimal);
 104              		.loc 1 50 0 is_stmt 1
 105 0054 0D4D     		ldr	r5, .L5+8
 106 0056 0E49     		ldr	r1, .L5+12
 107 0058 2846     		mov	r0, r5
 108              	.LVL16:
 109 005a FFF7FEFF 		bl	sprintf
 110              	.LVL17:
  51:main.c        ****         //Borrar LCD
  52:main.c        ****         LCD_Position (1,0);
 111              		.loc 1 52 0
 112 005e 0021     		movs	r1, #0
 113 0060 0120     		movs	r0, #1
 114 0062 FFF7FEFF 		bl	LCD_Position
 115              	.LVL18:
  53:main.c        ****         LCD_PrintString("                   ");
 116              		.loc 1 53 0
 117 0066 0B48     		ldr	r0, .L5+16
 118 0068 FFF7FEFF 		bl	LCD_PrintString
ARM GAS  C:\Users\HENRYH~1\AppData\Local\Temp\cc1bZRLN.s 			page 4


 119              	.LVL19:
  54:main.c        ****         LCD_Position (1, 0);
 120              		.loc 1 54 0
 121 006c 0021     		movs	r1, #0
 122 006e 0120     		movs	r0, #1
 123 0070 FFF7FEFF 		bl	LCD_Position
 124              	.LVL20:
  55:main.c        ****         LCD_PrintString (palabra);
 125              		.loc 1 55 0
 126 0074 2846     		mov	r0, r5
 127 0076 FFF7FEFF 		bl	LCD_PrintString
 128              	.LVL21:
  56:main.c        ****         CyDelay(100);
 129              		.loc 1 56 0
 130 007a 6420     		movs	r0, #100
 131 007c FFF7FEFF 		bl	CyDelay
 132              	.LVL22:
 133              	.LBE2:
  57:main.c        ****     }
 134              		.loc 1 57 0
 135 0080 D0E7     		b	.L3
 136              	.L6:
 137 0082 00BF     		.align	2
 138              	.L5:
 139 0084 00000000 		.word	.LC0
 140 0088 1F85EB51 		.word	1374389535
 141 008c 00000000 		.word	.LANCHOR0
 142 0090 10000000 		.word	.LC1
 143 0094 24000000 		.word	.LC2
 144              		.cfi_endproc
 145              	.LFE64:
 146              		.size	main, .-main
 147              		.global	palabra
 148              		.section	.rodata.str1.4,"aMS",%progbits,1
 149              		.align	2
 150              	.LC0:
 151 0000 456A656D 		.ascii	"Ejemplo TC K\000"
 151      706C6F20 
 151      5443204B 
 151      00
 152 000d 000000   		.space	3
 153              	.LC1:
 154 0010 54656D70 		.ascii	"Temp=%ld.%021d C\000"
 154      3D256C64 
 154      2E253032 
 154      31642043 
 154      00
 155 0021 000000   		.space	3
 156              	.LC2:
 157 0024 20202020 		.ascii	"                   \000"
 157      20202020 
 157      20202020 
 157      20202020 
 157      20202000 
 158              		.bss
 159              		.align	2
 160              		.set	.LANCHOR0,. + 0
ARM GAS  C:\Users\HENRYH~1\AppData\Local\Temp\cc1bZRLN.s 			page 5


 161              		.type	palabra, %object
 162              		.size	palabra, 12
 163              	palabra:
 164 0000 00000000 		.space	12
 164      00000000 
 164      00000000 
 165              		.text
 166              	.Letext0:
 167              		.file 2 "c:\\program files (x86)\\cypress\\psoc creator\\4.4\\psoc creator\\import\\gnu\\arm\\5.4.
 168              		.file 3 "c:\\program files (x86)\\cypress\\psoc creator\\4.4\\psoc creator\\import\\gnu\\arm\\5.4.
 169              		.file 4 "Generated_Source\\PSoC5/cytypes.h"
 170              		.file 5 "Generated_Source\\PSoC5/core_cm3.h"
 171              		.file 6 "Generated_Source\\PSoC5/ADC.h"
 172              		.file 7 "Generated_Source\\PSoC5/Termocupla.h"
 173              		.file 8 "c:\\program files (x86)\\cypress\\psoc creator\\4.4\\psoc creator\\import\\gnu\\arm\\5.4.
 174              		.file 9 "Generated_Source\\PSoC5/LCD.h"
 175              		.file 10 "Generated_Source\\PSoC5/CyLib.h"