ARM GAS  C:\Users\HENRYH~1\AppData\Local\Temp\ccAb5XmU.s 			page 1


   1              		.syntax unified
   2              		.cpu cortex-m3
   3              		.fpu softvfp
   4              		.eabi_attribute 20, 1
   5              		.eabi_attribute 21, 1
   6              		.eabi_attribute 23, 3
   7              		.eabi_attribute 24, 1
   8              		.eabi_attribute 25, 1
   9              		.eabi_attribute 26, 1
  10              		.eabi_attribute 30, 1
  11              		.eabi_attribute 34, 1
  12              		.eabi_attribute 18, 4
  13              		.thumb
  14              		.syntax unified
  15              		.file	"Termocupla.c"
  16              		.text
  17              	.Ltext0:
  18              		.cfi_sections	.debug_frame
  19              		.section	.text.Termocupla_MultShift24,"ax",%progbits
  20              		.align	2
  21              		.global	Termocupla_MultShift24
  22              		.thumb
  23              		.thumb_func
  24              		.type	Termocupla_MultShift24, %function
  25              	Termocupla_MultShift24:
  26              	.LFB0:
  27              		.file 1 "Generated_Source\\PSoC5\\Termocupla.c"
   1:Generated_Source\PSoC5/Termocupla.c **** /*******************************************************************************
   2:Generated_Source\PSoC5/Termocupla.c **** * File Name: Termocupla.c
   3:Generated_Source\PSoC5/Termocupla.c **** * Version 1.20
   4:Generated_Source\PSoC5/Termocupla.c **** *
   5:Generated_Source\PSoC5/Termocupla.c **** * Description:
   6:Generated_Source\PSoC5/Termocupla.c **** *  This file provides the source code to the API for the Termocupla
   7:Generated_Source\PSoC5/Termocupla.c **** *  component
   8:Generated_Source\PSoC5/Termocupla.c **** *
   9:Generated_Source\PSoC5/Termocupla.c **** * Note:
  10:Generated_Source\PSoC5/Termocupla.c **** *  None
  11:Generated_Source\PSoC5/Termocupla.c **** *
  12:Generated_Source\PSoC5/Termocupla.c **** ********************************************************************************
  13:Generated_Source\PSoC5/Termocupla.c **** * Copyright 2012-2013, Cypress Semiconductor Corporation.  All rights reserved.
  14:Generated_Source\PSoC5/Termocupla.c **** * You may use this file only in accordance with the license, terms, conditions,
  15:Generated_Source\PSoC5/Termocupla.c **** * disclaimers, and limitations in the end user license agreement accompanying
  16:Generated_Source\PSoC5/Termocupla.c **** * the software package with which this file was provided.
  17:Generated_Source\PSoC5/Termocupla.c **** *******************************************************************************/
  18:Generated_Source\PSoC5/Termocupla.c **** 
  19:Generated_Source\PSoC5/Termocupla.c **** #include "Termocupla.h"
  20:Generated_Source\PSoC5/Termocupla.c **** 
  21:Generated_Source\PSoC5/Termocupla.c **** #if(!CY_PSOC3)
  22:Generated_Source\PSoC5/Termocupla.c **** 
  23:Generated_Source\PSoC5/Termocupla.c ****     /*******************************************************************************
  24:Generated_Source\PSoC5/Termocupla.c ****     * Function Name: Termocupla_MultShift24
  25:Generated_Source\PSoC5/Termocupla.c ****     ********************************************************************************
  26:Generated_Source\PSoC5/Termocupla.c ****     *
  27:Generated_Source\PSoC5/Termocupla.c ****     * Summary:
  28:Generated_Source\PSoC5/Termocupla.c ****     *  Performs the math function (op1 * op2) >> 24 using 64 bit arithmetic without
  29:Generated_Source\PSoC5/Termocupla.c ****     *  any loss of precision and without overflow.
  30:Generated_Source\PSoC5/Termocupla.c ****     *
ARM GAS  C:\Users\HENRYH~1\AppData\Local\Temp\ccAb5XmU.s 			page 2


  31:Generated_Source\PSoC5/Termocupla.c ****     * Parameters:
  32:Generated_Source\PSoC5/Termocupla.c ****     *  op1: Signed 32-bit operand
  33:Generated_Source\PSoC5/Termocupla.c ****     *  op2: Signed 24-bit operand
  34:Generated_Source\PSoC5/Termocupla.c ****     *
  35:Generated_Source\PSoC5/Termocupla.c ****     * Return:
  36:Generated_Source\PSoC5/Termocupla.c ****     *  Signed 32-bit result of the math calculation
  37:Generated_Source\PSoC5/Termocupla.c ****     *
  38:Generated_Source\PSoC5/Termocupla.c ****     *******************************************************************************/
  39:Generated_Source\PSoC5/Termocupla.c ****     int32 Termocupla_MultShift24(int32 op1, int32 op2) 
  40:Generated_Source\PSoC5/Termocupla.c ****     {
  28              		.loc 1 40 0
  29              		.cfi_startproc
  30              		@ args = 0, pretend = 0, frame = 0
  31              		@ frame_needed = 0, uses_anonymous_args = 0
  32              		@ link register save eliminated.
  33              	.LVL0:
  34 0000 30B4     		push	{r4, r5}
  35              		.cfi_def_cfa_offset 8
  36              		.cfi_offset 4, -8
  37              		.cfi_offset 5, -4
  38              	.LVL1:
  41:Generated_Source\PSoC5/Termocupla.c ****         int64 result=0;
  42:Generated_Source\PSoC5/Termocupla.c **** 
  43:Generated_Source\PSoC5/Termocupla.c ****         result = (int64)op1 * (int64)op2;
  39              		.loc 1 43 0
  40 0002 C517     		asrs	r5, r0, #31
  41 0004 CB17     		asrs	r3, r1, #31
  42 0006 00FB03F3 		mul	r3, r0, r3
  43 000a 01FB0533 		mla	r3, r1, r5, r3
  44 000e A0FB0101 		umull	r0, r1, r0, r1
  45              	.LVL2:
  46 0012 1944     		add	r1, r1, r3
  47              	.LVL3:
  44:Generated_Source\PSoC5/Termocupla.c ****         if (result < 0)
  48              		.loc 1 44 0
  49 0014 0028     		cmp	r0, #0
  50 0016 71F10003 		sbcs	r3, r1, #0
  51 001a 07DA     		bge	.L2
  45:Generated_Source\PSoC5/Termocupla.c ****         {
  46:Generated_Source\PSoC5/Termocupla.c ****             result = -result;
  52              		.loc 1 46 0
  53 001c 4042     		rsbs	r0, r0, #0
  54              	.LVL4:
  55 001e 61EB4101 		sbc	r1, r1, r1, lsl #1
  56              	.LVL5:
  47:Generated_Source\PSoC5/Termocupla.c ****             result = (int32)((uint64)((uint64)result >> Termocupla_24BIT_SHIFTING));
  57              		.loc 1 47 0
  58 0022 000E     		lsrs	r0, r0, #24
  59              	.LVL6:
  60 0024 40EA0120 		orr	r0, r0, r1, lsl #8
  61              	.LVL7:
  48:Generated_Source\PSoC5/Termocupla.c ****             result = -result;
  62              		.loc 1 48 0
  63 0028 4042     		rsbs	r0, r0, #0
  64              	.LVL8:
  65 002a 02E0     		b	.L3
  66              	.LVL9:
ARM GAS  C:\Users\HENRYH~1\AppData\Local\Temp\ccAb5XmU.s 			page 3


  67              	.L2:
  49:Generated_Source\PSoC5/Termocupla.c ****         }
  50:Generated_Source\PSoC5/Termocupla.c ****         else
  51:Generated_Source\PSoC5/Termocupla.c ****         {
  52:Generated_Source\PSoC5/Termocupla.c ****             result = (int32)((uint64)((uint64)result >> Termocupla_24BIT_SHIFTING));
  68              		.loc 1 52 0
  69 002c 000E     		lsrs	r0, r0, #24
  70              	.LVL10:
  71 002e 40EA0120 		orr	r0, r0, r1, lsl #8
  72              	.LVL11:
  73              	.L3:
  53:Generated_Source\PSoC5/Termocupla.c ****         }
  54:Generated_Source\PSoC5/Termocupla.c ****         return (result);
  55:Generated_Source\PSoC5/Termocupla.c ****     }        
  74              		.loc 1 55 0
  75 0032 30BC     		pop	{r4, r5}
  76              		.cfi_restore 5
  77              		.cfi_restore 4
  78              		.cfi_def_cfa_offset 0
  79 0034 7047     		bx	lr
  80              		.cfi_endproc
  81              	.LFE0:
  82              		.size	Termocupla_MultShift24, .-Termocupla_MultShift24
  83 0036 00BF     		.section	.text.Termocupla_GetTemperature,"ax",%progbits
  84              		.align	2
  85              		.global	Termocupla_GetTemperature
  86              		.thumb
  87              		.thumb_func
  88              		.type	Termocupla_GetTemperature, %function
  89              	Termocupla_GetTemperature:
  90              	.LFB1:
  56:Generated_Source\PSoC5/Termocupla.c **** #endif /* End (!CY_PSOC3) */
  57:Generated_Source\PSoC5/Termocupla.c **** 
  58:Generated_Source\PSoC5/Termocupla.c **** 
  59:Generated_Source\PSoC5/Termocupla.c **** /*******************************************************************************
  60:Generated_Source\PSoC5/Termocupla.c **** * Function Name: Termocupla_GetTemperature
  61:Generated_Source\PSoC5/Termocupla.c **** ********************************************************************************
  62:Generated_Source\PSoC5/Termocupla.c **** *
  63:Generated_Source\PSoC5/Termocupla.c **** * Summary:
  64:Generated_Source\PSoC5/Termocupla.c **** *  This function takes thermocouple voltage in microvolt as i/p and calculates
  65:Generated_Source\PSoC5/Termocupla.c **** *  temperature corresponding to the thermocouple voltage. The order of the
  66:Generated_Source\PSoC5/Termocupla.c **** *  polynomial and the polynomial coefficients used to convert voltage to
  67:Generated_Source\PSoC5/Termocupla.c **** *  temperature are dependent on the type of thermocouple selected.
  68:Generated_Source\PSoC5/Termocupla.c **** *
  69:Generated_Source\PSoC5/Termocupla.c **** * Parameters:
  70:Generated_Source\PSoC5/Termocupla.c **** *  int32 voltage : Thermocouple voltage measured in microvolts.
  71:Generated_Source\PSoC5/Termocupla.c **** *
  72:Generated_Source\PSoC5/Termocupla.c **** * Return:
  73:Generated_Source\PSoC5/Termocupla.c **** *  int32 : Temperature in 1/100 degree C
  74:Generated_Source\PSoC5/Termocupla.c **** *
  75:Generated_Source\PSoC5/Termocupla.c **** *******************************************************************************/
  76:Generated_Source\PSoC5/Termocupla.c **** int32 Termocupla_GetTemperature(int32 voltage) 
  77:Generated_Source\PSoC5/Termocupla.c **** 
  78:Generated_Source\PSoC5/Termocupla.c **** #if(CY_PSOC3)
  79:Generated_Source\PSoC5/Termocupla.c **** {
  80:Generated_Source\PSoC5/Termocupla.c **** 
  81:Generated_Source\PSoC5/Termocupla.c ****     /***************************************
ARM GAS  C:\Users\HENRYH~1\AppData\Local\Temp\ccAb5XmU.s 			page 4


  82:Generated_Source\PSoC5/Termocupla.c ****     *  Customizer Generated Coefficients
  83:Generated_Source\PSoC5/Termocupla.c ****     ***************************************/
  84:Generated_Source\PSoC5/Termocupla.c ****     const int32 CYCODE Termocupla_coeffVT[][3] = {{0, 0, -1687114},
  85:Generated_Source\PSoC5/Termocupla.c ****                                               {2639629, 164388, 40518839},
  86:Generated_Source\PSoC5/Termocupla.c ****                                               {-1001834, 16879, -90491511},
  87:Generated_Source\PSoC5/Termocupla.c ****                                               {-7623495, -1761422, 196887684},
  88:Generated_Source\PSoC5/Termocupla.c ****                                               {-51750922, 19173707, -227871065},
  89:Generated_Source\PSoC5/Termocupla.c ****                                               {-176344390, -92787626, 136207339},
  90:Generated_Source\PSoC5/Termocupla.c ****                                               {-335143805, 242736174, -31547361},
  91:Generated_Source\PSoC5/Termocupla.c ****                                               {-331192671, -358027528, 0},
  92:Generated_Source\PSoC5/Termocupla.c ****                                               {-134793524, 281193929, 0},
  93:Generated_Source\PSoC5/Termocupla.c ****                                               {0, -91707895, 0}};
  94:Generated_Source\PSoC5/Termocupla.c **** 
  95:Generated_Source\PSoC5/Termocupla.c **** const int32 CYCODE Termocupla_voltRange[2] = {0, 20644};
  96:Generated_Source\PSoC5/Termocupla.c **** 
  97:Generated_Source\PSoC5/Termocupla.c **** const int8 CYCODE Termocupla_xScaleVT[3] = {13, 15, 16};
  98:Generated_Source\PSoC5/Termocupla.c **** const int8 CYCODE Termocupla_coefScaleVT[3] = {7, 1, 7};
  99:Generated_Source\PSoC5/Termocupla.c **** 
 100:Generated_Source\PSoC5/Termocupla.c ****     /* Variable to store temperature */
 101:Generated_Source\PSoC5/Termocupla.c ****     float32 temp=0.0f;
 102:Generated_Source\PSoC5/Termocupla.c ****     float32 voltageNorm=0.0f;
 103:Generated_Source\PSoC5/Termocupla.c ****     uint8 i=0u;
 104:Generated_Source\PSoC5/Termocupla.c **** 
 105:Generated_Source\PSoC5/Termocupla.c ****     #if (Termocupla_VT_RANGE_LEN == Termocupla_THREE)
 106:Generated_Source\PSoC5/Termocupla.c ****     {
 107:Generated_Source\PSoC5/Termocupla.c ****         voltageNorm = (float32)voltage;
 108:Generated_Source\PSoC5/Termocupla.c **** 
 109:Generated_Source\PSoC5/Termocupla.c ****         if(voltage < Termocupla_voltRange[Termocupla_RANGE_MAS_0] )
 110:Generated_Source\PSoC5/Termocupla.c ****         {
 111:Generated_Source\PSoC5/Termocupla.c ****             for (i=Termocupla_ORDER_VT - 1u; i > 0u; i--)
 112:Generated_Source\PSoC5/Termocupla.c ****             {
 113:Generated_Source\PSoC5/Termocupla.c ****                 temp = (temp + Termocupla_coeffVT[i][Termocupla_RANGE_MAS_0]) * voltageNorm;
 114:Generated_Source\PSoC5/Termocupla.c ****             }
 115:Generated_Source\PSoC5/Termocupla.c ****             temp = (temp + Termocupla_coeffVT[Termocupla_FIRST_EL_MAS][Termocupla_RANGE_MAS_0]);
 116:Generated_Source\PSoC5/Termocupla.c ****         }
 117:Generated_Source\PSoC5/Termocupla.c **** 
 118:Generated_Source\PSoC5/Termocupla.c ****         else if(voltage <= Termocupla_voltRange[Termocupla_RANGE_MAS_1] )
 119:Generated_Source\PSoC5/Termocupla.c ****         {
 120:Generated_Source\PSoC5/Termocupla.c ****             for (i=Termocupla_ORDER_VT - 1u; i > 0u; i--)
 121:Generated_Source\PSoC5/Termocupla.c ****             {
 122:Generated_Source\PSoC5/Termocupla.c ****                 temp = (temp + Termocupla_coeffVT[i][Termocupla_RANGE_MAS_1]) * voltageNorm;
 123:Generated_Source\PSoC5/Termocupla.c ****             }
 124:Generated_Source\PSoC5/Termocupla.c ****             temp = (temp + Termocupla_coeffVT[Termocupla_FIRST_EL_MAS][Termocupla_RANGE_MAS_1]);
 125:Generated_Source\PSoC5/Termocupla.c ****         }
 126:Generated_Source\PSoC5/Termocupla.c **** 
 127:Generated_Source\PSoC5/Termocupla.c ****         else if(voltage <= Termocupla_voltRange[Termocupla_RANGE_MAS_2] )
 128:Generated_Source\PSoC5/Termocupla.c ****         {
 129:Generated_Source\PSoC5/Termocupla.c ****             for (i=Termocupla_ORDER_VT - 1u; i > 0u; i--)
 130:Generated_Source\PSoC5/Termocupla.c ****             {
 131:Generated_Source\PSoC5/Termocupla.c ****                 temp = (temp + Termocupla_coeffVT[i][Termocupla_RANGE_MAS_2]) * voltageNorm;
 132:Generated_Source\PSoC5/Termocupla.c ****             }
 133:Generated_Source\PSoC5/Termocupla.c ****             temp = (temp + Termocupla_coeffVT[Termocupla_FIRST_EL_MAS][Termocupla_RANGE_MAS_2]);
 134:Generated_Source\PSoC5/Termocupla.c ****         }
 135:Generated_Source\PSoC5/Termocupla.c **** 
 136:Generated_Source\PSoC5/Termocupla.c ****         else
 137:Generated_Source\PSoC5/Termocupla.c ****         {
 138:Generated_Source\PSoC5/Termocupla.c ****             for (i=Termocupla_ORDER_VT - 1u; i > 0u; i--)
ARM GAS  C:\Users\HENRYH~1\AppData\Local\Temp\ccAb5XmU.s 			page 5


 139:Generated_Source\PSoC5/Termocupla.c ****             {
 140:Generated_Source\PSoC5/Termocupla.c ****                 temp = (temp + Termocupla_coeffVT[i][Termocupla_RANGE_MAS_3]) * voltageNorm;
 141:Generated_Source\PSoC5/Termocupla.c ****             }
 142:Generated_Source\PSoC5/Termocupla.c ****             temp = (temp + Termocupla_coeffVT[Termocupla_FIRST_EL_MAS][Termocupla_RANGE_MAS_3]);
 143:Generated_Source\PSoC5/Termocupla.c ****         }
 144:Generated_Source\PSoC5/Termocupla.c ****     }
 145:Generated_Source\PSoC5/Termocupla.c **** 
 146:Generated_Source\PSoC5/Termocupla.c ****     #else
 147:Generated_Source\PSoC5/Termocupla.c ****     {
 148:Generated_Source\PSoC5/Termocupla.c ****         voltageNorm = (float32)voltage;
 149:Generated_Source\PSoC5/Termocupla.c **** 
 150:Generated_Source\PSoC5/Termocupla.c ****         if(voltage < Termocupla_voltRange[Termocupla_RANGE_MAS_0] )
 151:Generated_Source\PSoC5/Termocupla.c ****         {
 152:Generated_Source\PSoC5/Termocupla.c ****             for (i=Termocupla_ORDER_VT - 1u; i > 0u; i--)
 153:Generated_Source\PSoC5/Termocupla.c ****             {
 154:Generated_Source\PSoC5/Termocupla.c ****                 temp = (temp + Termocupla_coeffVT[i][Termocupla_RANGE_MAS_0]) * voltageNorm;
 155:Generated_Source\PSoC5/Termocupla.c ****             }
 156:Generated_Source\PSoC5/Termocupla.c ****             temp = (temp + Termocupla_coeffVT[Termocupla_FIRST_EL_MAS][Termocupla_RANGE_MAS_0]);
 157:Generated_Source\PSoC5/Termocupla.c ****         }
 158:Generated_Source\PSoC5/Termocupla.c **** 
 159:Generated_Source\PSoC5/Termocupla.c ****         else if(voltage <= Termocupla_voltRange[Termocupla_RANGE_MAS_1] )
 160:Generated_Source\PSoC5/Termocupla.c ****         {
 161:Generated_Source\PSoC5/Termocupla.c ****             for (i=Termocupla_ORDER_VT - 1u; i > 0u; i--)
 162:Generated_Source\PSoC5/Termocupla.c ****             {
 163:Generated_Source\PSoC5/Termocupla.c ****                 temp = (temp + Termocupla_coeffVT[i][Termocupla_RANGE_MAS_1]) * voltageNorm;
 164:Generated_Source\PSoC5/Termocupla.c ****             }
 165:Generated_Source\PSoC5/Termocupla.c ****             temp = (temp + Termocupla_coeffVT[Termocupla_FIRST_EL_MAS][Termocupla_RANGE_MAS_1]);
 166:Generated_Source\PSoC5/Termocupla.c ****         }
 167:Generated_Source\PSoC5/Termocupla.c **** 
 168:Generated_Source\PSoC5/Termocupla.c ****         else
 169:Generated_Source\PSoC5/Termocupla.c ****         {
 170:Generated_Source\PSoC5/Termocupla.c ****             for (i=Termocupla_ORDER_VT - 1u; i > 0u; i--)
 171:Generated_Source\PSoC5/Termocupla.c ****             {
 172:Generated_Source\PSoC5/Termocupla.c ****                 temp = (temp + Termocupla_coeffVT[i][Termocupla_RANGE_MAS_2]) * voltageNorm;
 173:Generated_Source\PSoC5/Termocupla.c ****             }
 174:Generated_Source\PSoC5/Termocupla.c ****             temp = (temp + Termocupla_coeffVT[Termocupla_FIRST_EL_MAS][Termocupla_RANGE_MAS_2]);
 175:Generated_Source\PSoC5/Termocupla.c ****         }
 176:Generated_Source\PSoC5/Termocupla.c ****     }
 177:Generated_Source\PSoC5/Termocupla.c **** 
 178:Generated_Source\PSoC5/Termocupla.c ****     #endif /* End  Termocupla_VT_RANGE_LEN == Termocupla_THREE */
 179:Generated_Source\PSoC5/Termocupla.c **** 
 180:Generated_Source\PSoC5/Termocupla.c ****     return ((int32)(temp));
 181:Generated_Source\PSoC5/Termocupla.c **** }
 182:Generated_Source\PSoC5/Termocupla.c **** #else
 183:Generated_Source\PSoC5/Termocupla.c **** {
  91              		.loc 1 183 0
  92              		.cfi_startproc
  93              		@ args = 0, pretend = 0, frame = 120
  94              		@ frame_needed = 0, uses_anonymous_args = 0
  95              	.LVL12:
  96 0000 30B5     		push	{r4, r5, lr}
  97              		.cfi_def_cfa_offset 12
  98              		.cfi_offset 4, -12
  99              		.cfi_offset 5, -8
 100              		.cfi_offset 14, -4
 101 0002 9FB0     		sub	sp, sp, #124
 102              		.cfi_def_cfa_offset 136
ARM GAS  C:\Users\HENRYH~1\AppData\Local\Temp\ccAb5XmU.s 			page 6


 103 0004 0446     		mov	r4, r0
 184:Generated_Source\PSoC5/Termocupla.c **** 
 185:Generated_Source\PSoC5/Termocupla.c ****     /***************************************
 186:Generated_Source\PSoC5/Termocupla.c ****     *  Customizer Generated Coefficients
 187:Generated_Source\PSoC5/Termocupla.c ****     ***************************************/
 188:Generated_Source\PSoC5/Termocupla.c ****     const int32 CYCODE Termocupla_coeffVT[][3] = {{0, 0, -1687114},
 104              		.loc 1 188 0
 105 0006 7822     		movs	r2, #120
 106 0008 3249     		ldr	r1, .L22
 107 000a 6846     		mov	r0, sp
 108              	.LVL13:
 109 000c FFF7FEFF 		bl	memcpy
 110              	.LVL14:
 189:Generated_Source\PSoC5/Termocupla.c ****                                               {2639629, 164388, 40518839},
 190:Generated_Source\PSoC5/Termocupla.c ****                                               {-1001834, 16879, -90491511},
 191:Generated_Source\PSoC5/Termocupla.c ****                                               {-7623495, -1761422, 196887684},
 192:Generated_Source\PSoC5/Termocupla.c ****                                               {-51750922, 19173707, -227871065},
 193:Generated_Source\PSoC5/Termocupla.c ****                                               {-176344390, -92787626, 136207339},
 194:Generated_Source\PSoC5/Termocupla.c ****                                               {-335143805, 242736174, -31547361},
 195:Generated_Source\PSoC5/Termocupla.c ****                                               {-331192671, -358027528, 0},
 196:Generated_Source\PSoC5/Termocupla.c ****                                               {-134793524, 281193929, 0},
 197:Generated_Source\PSoC5/Termocupla.c ****                                               {0, -91707895, 0}};
 198:Generated_Source\PSoC5/Termocupla.c **** 
 199:Generated_Source\PSoC5/Termocupla.c **** const int32 CYCODE Termocupla_voltRange[2] = {0, 20644};
 200:Generated_Source\PSoC5/Termocupla.c **** 
 201:Generated_Source\PSoC5/Termocupla.c **** const int8 CYCODE Termocupla_xScaleVT[3] = {13, 15, 16};
 202:Generated_Source\PSoC5/Termocupla.c **** const int8 CYCODE Termocupla_coefScaleVT[3] = {7, 1, 7};
 203:Generated_Source\PSoC5/Termocupla.c **** 
 204:Generated_Source\PSoC5/Termocupla.c ****     /* Variable to store temperature */
 205:Generated_Source\PSoC5/Termocupla.c ****     int32 temp=0;
 206:Generated_Source\PSoC5/Termocupla.c ****     uint8 i=0u;
 207:Generated_Source\PSoC5/Termocupla.c **** 
 208:Generated_Source\PSoC5/Termocupla.c ****     #if (Termocupla_VT_RANGE_LEN == Termocupla_THREE)
 209:Generated_Source\PSoC5/Termocupla.c ****     {
 210:Generated_Source\PSoC5/Termocupla.c ****         if(voltage < Termocupla_voltRange[Termocupla_RANGE_MAS_0] )
 211:Generated_Source\PSoC5/Termocupla.c ****         {
 212:Generated_Source\PSoC5/Termocupla.c ****             if (voltage < 0)
 213:Generated_Source\PSoC5/Termocupla.c ****             {
 214:Generated_Source\PSoC5/Termocupla.c ****                 voltage = -voltage;
 215:Generated_Source\PSoC5/Termocupla.c ****                 voltage = (int32)((uint64)((uint64)voltage << 
 216:Generated_Source\PSoC5/Termocupla.c ****                                                (Termocupla_IN_NORMALIZATION_VT - 
 217:Generated_Source\PSoC5/Termocupla.c ****                                                 Termocupla_xScaleVT[Termocupla_RANGE_MAS_0])));
 218:Generated_Source\PSoC5/Termocupla.c ****                 voltage = -voltage;
 219:Generated_Source\PSoC5/Termocupla.c ****             }
 220:Generated_Source\PSoC5/Termocupla.c ****             else
 221:Generated_Source\PSoC5/Termocupla.c ****             {
 222:Generated_Source\PSoC5/Termocupla.c ****                 voltage = (int32)((uint64)((uint64)voltage << 
 223:Generated_Source\PSoC5/Termocupla.c ****                                                (Termocupla_IN_NORMALIZATION_VT - 
 224:Generated_Source\PSoC5/Termocupla.c ****                                                 Termocupla_xScaleVT[Termocupla_RANGE_MAS_0])));
 225:Generated_Source\PSoC5/Termocupla.c ****             }            
 226:Generated_Source\PSoC5/Termocupla.c **** 
 227:Generated_Source\PSoC5/Termocupla.c ****             for (i=Termocupla_ORDER_VT - 1u; i > 0u; i--)
 228:Generated_Source\PSoC5/Termocupla.c ****             {
 229:Generated_Source\PSoC5/Termocupla.c ****                 temp = Termocupla_MultShift24((Termocupla_coeffVT[i][Termocupla_RANGE_MAS_0] +
 230:Generated_Source\PSoC5/Termocupla.c ****                        temp), voltage);
 231:Generated_Source\PSoC5/Termocupla.c ****             }
 232:Generated_Source\PSoC5/Termocupla.c **** 
ARM GAS  C:\Users\HENRYH~1\AppData\Local\Temp\ccAb5XmU.s 			page 7


 233:Generated_Source\PSoC5/Termocupla.c ****             if(Termocupla_coefScaleVT[Termocupla_RANGE_MAS_0] < 0)
 234:Generated_Source\PSoC5/Termocupla.c ****             {
 235:Generated_Source\PSoC5/Termocupla.c ****                 temp = (int32)((uint64)((uint64)(int32)(temp + 
 236:Generated_Source\PSoC5/Termocupla.c ****                         Termocupla_coeffVT[Termocupla_FIRST_EL_MAS][Termocupla_RANGE_MAS_0]) << 
 237:Generated_Source\PSoC5/Termocupla.c ****                         Termocupla_coefScaleVT[Termocupla_RANGE_MAS_0]));
 238:Generated_Source\PSoC5/Termocupla.c ****             }
 239:Generated_Source\PSoC5/Termocupla.c **** 
 240:Generated_Source\PSoC5/Termocupla.c ****             else
 241:Generated_Source\PSoC5/Termocupla.c ****             {
 242:Generated_Source\PSoC5/Termocupla.c ****                 temp = (int32)((uint32)((uint64)(int32)(temp + 
 243:Generated_Source\PSoC5/Termocupla.c ****                         Termocupla_coeffVT[Termocupla_FIRST_EL_MAS][Termocupla_RANGE_MAS_0]) >> 
 244:Generated_Source\PSoC5/Termocupla.c ****                         Termocupla_coefScaleVT[Termocupla_RANGE_MAS_0]));
 245:Generated_Source\PSoC5/Termocupla.c ****             }
 246:Generated_Source\PSoC5/Termocupla.c ****         }
 247:Generated_Source\PSoC5/Termocupla.c **** 
 248:Generated_Source\PSoC5/Termocupla.c ****         else if(voltage <= Termocupla_voltRange[Termocupla_RANGE_MAS_1] )
 249:Generated_Source\PSoC5/Termocupla.c ****         {
 250:Generated_Source\PSoC5/Termocupla.c ****             if (voltage < 0)
 251:Generated_Source\PSoC5/Termocupla.c ****             {
 252:Generated_Source\PSoC5/Termocupla.c ****                 voltage = -voltage;
 253:Generated_Source\PSoC5/Termocupla.c ****                 voltage = (int32)((uint64)((uint64)voltage << 
 254:Generated_Source\PSoC5/Termocupla.c ****                                                (Termocupla_IN_NORMALIZATION_VT - 
 255:Generated_Source\PSoC5/Termocupla.c ****                                                 Termocupla_xScaleVT[Termocupla_RANGE_MAS_1])));
 256:Generated_Source\PSoC5/Termocupla.c ****                 voltage = -voltage;
 257:Generated_Source\PSoC5/Termocupla.c ****             }
 258:Generated_Source\PSoC5/Termocupla.c ****             else
 259:Generated_Source\PSoC5/Termocupla.c ****             {
 260:Generated_Source\PSoC5/Termocupla.c ****                 voltage = (int32)((uint64)((uint64)voltage << 
 261:Generated_Source\PSoC5/Termocupla.c ****                                                (Termocupla_IN_NORMALIZATION_VT - 
 262:Generated_Source\PSoC5/Termocupla.c ****                                                 Termocupla_xScaleVT[Termocupla_RANGE_MAS_1])));
 263:Generated_Source\PSoC5/Termocupla.c ****             }              
 264:Generated_Source\PSoC5/Termocupla.c ****             
 265:Generated_Source\PSoC5/Termocupla.c ****             for (i=Termocupla_ORDER_VT - 1u; i > 0u; i--)
 266:Generated_Source\PSoC5/Termocupla.c ****             {
 267:Generated_Source\PSoC5/Termocupla.c ****                 temp = Termocupla_MultShift24((Termocupla_coeffVT[i][Termocupla_RANGE_MAS_1] +
 268:Generated_Source\PSoC5/Termocupla.c ****                        temp), voltage);
 269:Generated_Source\PSoC5/Termocupla.c ****             }
 270:Generated_Source\PSoC5/Termocupla.c **** 
 271:Generated_Source\PSoC5/Termocupla.c ****             if(Termocupla_coefScaleVT[Termocupla_RANGE_MAS_1] < 0)
 272:Generated_Source\PSoC5/Termocupla.c ****             {
 273:Generated_Source\PSoC5/Termocupla.c ****                 temp = (int32)((uint64)((uint64)(int32)(temp + 
 274:Generated_Source\PSoC5/Termocupla.c ****                         Termocupla_coeffVT[Termocupla_FIRST_EL_MAS][Termocupla_RANGE_MAS_1]) << 
 275:Generated_Source\PSoC5/Termocupla.c ****                         Termocupla_coefScaleVT[Termocupla_RANGE_MAS_1]));
 276:Generated_Source\PSoC5/Termocupla.c ****             }
 277:Generated_Source\PSoC5/Termocupla.c **** 
 278:Generated_Source\PSoC5/Termocupla.c ****             else
 279:Generated_Source\PSoC5/Termocupla.c ****             {
 280:Generated_Source\PSoC5/Termocupla.c ****                 temp = (int32)((uint32)((uint64)(int32)(temp + 
 281:Generated_Source\PSoC5/Termocupla.c ****                         Termocupla_coeffVT[Termocupla_FIRST_EL_MAS][Termocupla_RANGE_MAS_1]) >> 
 282:Generated_Source\PSoC5/Termocupla.c ****                         Termocupla_coefScaleVT[Termocupla_RANGE_MAS_1]));
 283:Generated_Source\PSoC5/Termocupla.c ****             }
 284:Generated_Source\PSoC5/Termocupla.c **** 
 285:Generated_Source\PSoC5/Termocupla.c ****         }
 286:Generated_Source\PSoC5/Termocupla.c **** 
 287:Generated_Source\PSoC5/Termocupla.c ****         else if(voltage <= Termocupla_voltRange[Termocupla_RANGE_MAS_2] )
 288:Generated_Source\PSoC5/Termocupla.c ****         {
 289:Generated_Source\PSoC5/Termocupla.c ****             if (voltage < 0)
ARM GAS  C:\Users\HENRYH~1\AppData\Local\Temp\ccAb5XmU.s 			page 8


 290:Generated_Source\PSoC5/Termocupla.c ****             {
 291:Generated_Source\PSoC5/Termocupla.c ****                 voltage = -voltage;
 292:Generated_Source\PSoC5/Termocupla.c ****                 voltage = (int32)((uint64)((uint64)voltage << 
 293:Generated_Source\PSoC5/Termocupla.c ****                                                (Termocupla_IN_NORMALIZATION_VT - 
 294:Generated_Source\PSoC5/Termocupla.c ****                                                 Termocupla_xScaleVT[Termocupla_RANGE_MAS_2])));
 295:Generated_Source\PSoC5/Termocupla.c ****                 voltage = -voltage;
 296:Generated_Source\PSoC5/Termocupla.c ****             }
 297:Generated_Source\PSoC5/Termocupla.c ****             else
 298:Generated_Source\PSoC5/Termocupla.c ****             {
 299:Generated_Source\PSoC5/Termocupla.c ****                 voltage = (int32)((uint64)((uint64)voltage << 
 300:Generated_Source\PSoC5/Termocupla.c ****                                                (Termocupla_IN_NORMALIZATION_VT - 
 301:Generated_Source\PSoC5/Termocupla.c ****                                                 Termocupla_xScaleVT[Termocupla_RANGE_MAS_2])));
 302:Generated_Source\PSoC5/Termocupla.c ****             }              
 303:Generated_Source\PSoC5/Termocupla.c **** 
 304:Generated_Source\PSoC5/Termocupla.c ****             for (i=Termocupla_ORDER_VT - 1u; i > 0u; i--)
 305:Generated_Source\PSoC5/Termocupla.c ****             {
 306:Generated_Source\PSoC5/Termocupla.c ****                 temp = Termocupla_MultShift24((Termocupla_coeffVT[i][Termocupla_RANGE_MAS_2] +
 307:Generated_Source\PSoC5/Termocupla.c ****                        temp), voltage);
 308:Generated_Source\PSoC5/Termocupla.c ****             }
 309:Generated_Source\PSoC5/Termocupla.c **** 
 310:Generated_Source\PSoC5/Termocupla.c ****             if(Termocupla_coefScaleVT[Termocupla_RANGE_MAS_2] < 0)
 311:Generated_Source\PSoC5/Termocupla.c ****             {
 312:Generated_Source\PSoC5/Termocupla.c ****                 temp = (int32)((uint64)((uint64)(int32)(temp + 
 313:Generated_Source\PSoC5/Termocupla.c ****                         Termocupla_coeffVT[Termocupla_FIRST_EL_MAS][Termocupla_RANGE_MAS_2]) << 
 314:Generated_Source\PSoC5/Termocupla.c ****                         Termocupla_coefScaleVT[Termocupla_RANGE_MAS_2]));
 315:Generated_Source\PSoC5/Termocupla.c ****             }
 316:Generated_Source\PSoC5/Termocupla.c **** 
 317:Generated_Source\PSoC5/Termocupla.c ****             else
 318:Generated_Source\PSoC5/Termocupla.c ****             {
 319:Generated_Source\PSoC5/Termocupla.c ****                 temp = (int32)((uint32)((uint64)(int32)(temp + 
 320:Generated_Source\PSoC5/Termocupla.c ****                         Termocupla_coeffVT[Termocupla_FIRST_EL_MAS][Termocupla_RANGE_MAS_2]) >> 
 321:Generated_Source\PSoC5/Termocupla.c ****                         Termocupla_coefScaleVT[Termocupla_RANGE_MAS_2]));
 322:Generated_Source\PSoC5/Termocupla.c ****             }
 323:Generated_Source\PSoC5/Termocupla.c ****         }
 324:Generated_Source\PSoC5/Termocupla.c **** 
 325:Generated_Source\PSoC5/Termocupla.c ****         else
 326:Generated_Source\PSoC5/Termocupla.c ****         {
 327:Generated_Source\PSoC5/Termocupla.c ****             if (voltage < 0)
 328:Generated_Source\PSoC5/Termocupla.c ****             {
 329:Generated_Source\PSoC5/Termocupla.c ****                 voltage = -voltage;
 330:Generated_Source\PSoC5/Termocupla.c ****                 voltage = (int32)((uint64)((uint64)voltage << 
 331:Generated_Source\PSoC5/Termocupla.c ****                                                (Termocupla_IN_NORMALIZATION_VT - 
 332:Generated_Source\PSoC5/Termocupla.c ****                                                 Termocupla_xScaleVT[Termocupla_RANGE_MAS_3])));
 333:Generated_Source\PSoC5/Termocupla.c ****                 voltage = -voltage;
 334:Generated_Source\PSoC5/Termocupla.c ****             }
 335:Generated_Source\PSoC5/Termocupla.c ****             else
 336:Generated_Source\PSoC5/Termocupla.c ****             {
 337:Generated_Source\PSoC5/Termocupla.c ****                 voltage = (int32)((uint64)((uint64)voltage << 
 338:Generated_Source\PSoC5/Termocupla.c ****                                                (Termocupla_IN_NORMALIZATION_VT - 
 339:Generated_Source\PSoC5/Termocupla.c ****                                                 Termocupla_xScaleVT[Termocupla_RANGE_MAS_3])));
 340:Generated_Source\PSoC5/Termocupla.c ****             }              
 341:Generated_Source\PSoC5/Termocupla.c **** 
 342:Generated_Source\PSoC5/Termocupla.c ****             for (i=Termocupla_ORDER_VT - 1u; i > 0u; i--)
 343:Generated_Source\PSoC5/Termocupla.c ****             {
 344:Generated_Source\PSoC5/Termocupla.c ****                 temp = Termocupla_MultShift24((Termocupla_coeffVT[i][Termocupla_RANGE_MAS_3] +
 345:Generated_Source\PSoC5/Termocupla.c ****                        temp), voltage);
 346:Generated_Source\PSoC5/Termocupla.c ****             }
ARM GAS  C:\Users\HENRYH~1\AppData\Local\Temp\ccAb5XmU.s 			page 9


 347:Generated_Source\PSoC5/Termocupla.c **** 
 348:Generated_Source\PSoC5/Termocupla.c ****             if(Termocupla_coefScaleVT[Termocupla_RANGE_MAS_3] < 0)
 349:Generated_Source\PSoC5/Termocupla.c ****             {
 350:Generated_Source\PSoC5/Termocupla.c ****                 temp = (int32)((uint64)((uint64)(int32)(temp + 
 351:Generated_Source\PSoC5/Termocupla.c ****                         Termocupla_coeffVT[Termocupla_FIRST_EL_MAS][Termocupla_RANGE_MAS_3]) << 
 352:Generated_Source\PSoC5/Termocupla.c ****                         Termocupla_coefScaleVT[Termocupla_RANGE_MAS_3]));
 353:Generated_Source\PSoC5/Termocupla.c ****             }
 354:Generated_Source\PSoC5/Termocupla.c **** 
 355:Generated_Source\PSoC5/Termocupla.c ****             else
 356:Generated_Source\PSoC5/Termocupla.c ****             {
 357:Generated_Source\PSoC5/Termocupla.c ****                 temp = (int32)((uint32)((uint64)(int32)(temp + 
 358:Generated_Source\PSoC5/Termocupla.c ****                         Termocupla_coeffVT[Termocupla_FIRST_EL_MAS][Termocupla_RANGE_MAS_3]) >> 
 359:Generated_Source\PSoC5/Termocupla.c ****                         Termocupla_coefScaleVT[Termocupla_RANGE_MAS_3]));
 360:Generated_Source\PSoC5/Termocupla.c ****             }
 361:Generated_Source\PSoC5/Termocupla.c ****         }
 362:Generated_Source\PSoC5/Termocupla.c ****     }
 363:Generated_Source\PSoC5/Termocupla.c **** 
 364:Generated_Source\PSoC5/Termocupla.c ****     #else
 365:Generated_Source\PSoC5/Termocupla.c ****     {
 366:Generated_Source\PSoC5/Termocupla.c ****         if(voltage < Termocupla_voltRange[Termocupla_RANGE_MAS_0] )
 111              		.loc 1 366 0
 112 0010 002C     		cmp	r4, #0
 113 0012 1CDA     		bge	.L6
 367:Generated_Source\PSoC5/Termocupla.c ****         {
 368:Generated_Source\PSoC5/Termocupla.c ****             if (voltage < 0)
 114              		.loc 1 368 0
 115 0014 03DA     		bge	.L7
 369:Generated_Source\PSoC5/Termocupla.c ****             {
 370:Generated_Source\PSoC5/Termocupla.c ****                 voltage = -voltage;
 116              		.loc 1 370 0
 117 0016 6442     		negs	r4, r4
 118              	.LVL15:
 371:Generated_Source\PSoC5/Termocupla.c ****                 voltage = (int32)((uint64)((uint64)voltage << 
 119              		.loc 1 371 0
 120 0018 E402     		lsls	r4, r4, #11
 121              	.LVL16:
 372:Generated_Source\PSoC5/Termocupla.c ****                                                (Termocupla_IN_NORMALIZATION_VT - 
 373:Generated_Source\PSoC5/Termocupla.c ****                                                 Termocupla_xScaleVT[Termocupla_RANGE_MAS_0])));
 374:Generated_Source\PSoC5/Termocupla.c ****                 voltage = -voltage;
 122              		.loc 1 374 0
 123 001a 6542     		negs	r5, r4
 124              	.LVL17:
 125 001c 00E0     		b	.L8
 126              	.LVL18:
 127              	.L7:
 375:Generated_Source\PSoC5/Termocupla.c ****             }
 376:Generated_Source\PSoC5/Termocupla.c ****             else
 377:Generated_Source\PSoC5/Termocupla.c ****             {
 378:Generated_Source\PSoC5/Termocupla.c ****                 voltage = (int32)((uint64)((uint64)voltage << 
 128              		.loc 1 378 0
 129 001e E502     		lsls	r5, r4, #11
 130              	.LVL19:
 131              	.L8:
 379:Generated_Source\PSoC5/Termocupla.c ****                                                (Termocupla_IN_NORMALIZATION_VT - 
 380:Generated_Source\PSoC5/Termocupla.c ****                                                 Termocupla_xScaleVT[Termocupla_RANGE_MAS_0])));
 381:Generated_Source\PSoC5/Termocupla.c ****             }            
 382:Generated_Source\PSoC5/Termocupla.c **** 
ARM GAS  C:\Users\HENRYH~1\AppData\Local\Temp\ccAb5XmU.s 			page 10


 383:Generated_Source\PSoC5/Termocupla.c ****             for (i=Termocupla_ORDER_VT - 1u; i > 0u; i--)
 132              		.loc 1 383 0
 133 0020 0924     		movs	r4, #9
 205:Generated_Source\PSoC5/Termocupla.c ****     uint8 i=0u;
 134              		.loc 1 205 0
 135 0022 0020     		movs	r0, #0
 136              		.loc 1 383 0
 137 0024 0CE0     		b	.L9
 138              	.LVL20:
 139              	.L10:
 384:Generated_Source\PSoC5/Termocupla.c ****             {
 385:Generated_Source\PSoC5/Termocupla.c ****                 temp = Termocupla_MultShift24((Termocupla_coeffVT[i][Termocupla_RANGE_MAS_0] +
 140              		.loc 1 385 0 discriminator 3
 141 0026 04EB4402 		add	r2, r4, r4, lsl #1
 142 002a 9300     		lsls	r3, r2, #2
 143 002c 1EAA     		add	r2, sp, #120
 144 002e 1344     		add	r3, r3, r2
 145 0030 53F8783C 		ldr	r3, [r3, #-120]
 146 0034 2946     		mov	r1, r5
 147 0036 1844     		add	r0, r0, r3
 148              	.LVL21:
 149 0038 FFF7FEFF 		bl	Termocupla_MultShift24
 150              	.LVL22:
 383:Generated_Source\PSoC5/Termocupla.c ****             {
 151              		.loc 1 383 0 discriminator 3
 152 003c 013C     		subs	r4, r4, #1
 153              	.LVL23:
 154 003e E4B2     		uxtb	r4, r4
 155              	.LVL24:
 156              	.L9:
 383:Generated_Source\PSoC5/Termocupla.c ****             {
 157              		.loc 1 383 0 is_stmt 0 discriminator 1
 158 0040 002C     		cmp	r4, #0
 159 0042 F0D1     		bne	.L10
 386:Generated_Source\PSoC5/Termocupla.c ****                        temp), voltage);
 387:Generated_Source\PSoC5/Termocupla.c ****             }
 388:Generated_Source\PSoC5/Termocupla.c **** 
 389:Generated_Source\PSoC5/Termocupla.c ****             if(Termocupla_coefScaleVT[Termocupla_RANGE_MAS_0] < 0)
 390:Generated_Source\PSoC5/Termocupla.c ****             {
 391:Generated_Source\PSoC5/Termocupla.c ****                 temp = (int32)((uint64)((uint64)(int32)(temp + 
 392:Generated_Source\PSoC5/Termocupla.c ****                         Termocupla_coeffVT[Termocupla_FIRST_EL_MAS][Termocupla_RANGE_MAS_0]) << 
 393:Generated_Source\PSoC5/Termocupla.c ****                         Termocupla_coefScaleVT[Termocupla_RANGE_MAS_0]));
 394:Generated_Source\PSoC5/Termocupla.c ****             }
 395:Generated_Source\PSoC5/Termocupla.c **** 
 396:Generated_Source\PSoC5/Termocupla.c ****             else
 397:Generated_Source\PSoC5/Termocupla.c ****             {
 398:Generated_Source\PSoC5/Termocupla.c ****                 temp = (int32)((uint32)((uint64)(int32)(temp + 
 160              		.loc 1 398 0 is_stmt 1
 161 0044 C517     		asrs	r5, r0, #31
 162              	.LVL25:
 399:Generated_Source\PSoC5/Termocupla.c ****                         Termocupla_coeffVT[Termocupla_FIRST_EL_MAS][Termocupla_RANGE_MAS_0]) >> 
 163              		.loc 1 399 0
 164 0046 C309     		lsrs	r3, r0, #7
 165 0048 43EA4560 		orr	r0, r3, r5, lsl #25
 166              	.LVL26:
 167 004c 40E0     		b	.L11
 168              	.LVL27:
ARM GAS  C:\Users\HENRYH~1\AppData\Local\Temp\ccAb5XmU.s 			page 11


 169              	.L6:
 400:Generated_Source\PSoC5/Termocupla.c ****                         Termocupla_coefScaleVT[Termocupla_RANGE_MAS_0]));
 401:Generated_Source\PSoC5/Termocupla.c ****             }
 402:Generated_Source\PSoC5/Termocupla.c ****         }
 403:Generated_Source\PSoC5/Termocupla.c **** 
 404:Generated_Source\PSoC5/Termocupla.c ****         else if(voltage <= Termocupla_voltRange[Termocupla_RANGE_MAS_1] )
 170              		.loc 1 404 0
 171 004e 45F2A403 		movw	r3, #20644
 172 0052 9C42     		cmp	r4, r3
 173 0054 1DDC     		bgt	.L12
 405:Generated_Source\PSoC5/Termocupla.c ****         {
 406:Generated_Source\PSoC5/Termocupla.c ****             if (voltage < 0)
 174              		.loc 1 406 0
 175 0056 002C     		cmp	r4, #0
 176 0058 03DA     		bge	.L13
 407:Generated_Source\PSoC5/Termocupla.c ****             {
 408:Generated_Source\PSoC5/Termocupla.c ****                 voltage = -voltage;
 177              		.loc 1 408 0
 178 005a 6442     		negs	r4, r4
 179              	.LVL28:
 409:Generated_Source\PSoC5/Termocupla.c ****                 voltage = (int32)((uint64)((uint64)voltage << 
 180              		.loc 1 409 0
 181 005c 6402     		lsls	r4, r4, #9
 182              	.LVL29:
 410:Generated_Source\PSoC5/Termocupla.c ****                                                (Termocupla_IN_NORMALIZATION_VT - 
 411:Generated_Source\PSoC5/Termocupla.c ****                                                 Termocupla_xScaleVT[Termocupla_RANGE_MAS_1])));
 412:Generated_Source\PSoC5/Termocupla.c ****                 voltage = -voltage;
 183              		.loc 1 412 0
 184 005e 6542     		negs	r5, r4
 185              	.LVL30:
 186 0060 00E0     		b	.L14
 187              	.LVL31:
 188              	.L13:
 413:Generated_Source\PSoC5/Termocupla.c ****             }
 414:Generated_Source\PSoC5/Termocupla.c ****             else
 415:Generated_Source\PSoC5/Termocupla.c ****             {
 416:Generated_Source\PSoC5/Termocupla.c ****                 voltage = (int32)((uint64)((uint64)voltage << 
 189              		.loc 1 416 0
 190 0062 6502     		lsls	r5, r4, #9
 191              	.LVL32:
 192              	.L14:
 417:Generated_Source\PSoC5/Termocupla.c ****                                                (Termocupla_IN_NORMALIZATION_VT - 
 418:Generated_Source\PSoC5/Termocupla.c ****                                                 Termocupla_xScaleVT[Termocupla_RANGE_MAS_1])));
 419:Generated_Source\PSoC5/Termocupla.c ****             }              
 420:Generated_Source\PSoC5/Termocupla.c ****             
 421:Generated_Source\PSoC5/Termocupla.c ****             for (i=Termocupla_ORDER_VT - 1u; i > 0u; i--)
 193              		.loc 1 421 0
 194 0064 0924     		movs	r4, #9
 205:Generated_Source\PSoC5/Termocupla.c ****     uint8 i=0u;
 195              		.loc 1 205 0
 196 0066 0020     		movs	r0, #0
 197              		.loc 1 421 0
 198 0068 0CE0     		b	.L15
 199              	.LVL33:
 200              	.L16:
 422:Generated_Source\PSoC5/Termocupla.c ****             {
 423:Generated_Source\PSoC5/Termocupla.c ****                 temp = Termocupla_MultShift24((Termocupla_coeffVT[i][Termocupla_RANGE_MAS_1] +
ARM GAS  C:\Users\HENRYH~1\AppData\Local\Temp\ccAb5XmU.s 			page 12


 201              		.loc 1 423 0 discriminator 3
 202 006a 04EB4402 		add	r2, r4, r4, lsl #1
 203 006e 9300     		lsls	r3, r2, #2
 204 0070 1EAA     		add	r2, sp, #120
 205 0072 1344     		add	r3, r3, r2
 206 0074 53F8743C 		ldr	r3, [r3, #-116]
 207 0078 2946     		mov	r1, r5
 208 007a 1844     		add	r0, r0, r3
 209              	.LVL34:
 210 007c FFF7FEFF 		bl	Termocupla_MultShift24
 211              	.LVL35:
 421:Generated_Source\PSoC5/Termocupla.c ****             {
 212              		.loc 1 421 0 discriminator 3
 213 0080 013C     		subs	r4, r4, #1
 214              	.LVL36:
 215 0082 E4B2     		uxtb	r4, r4
 216              	.LVL37:
 217              	.L15:
 421:Generated_Source\PSoC5/Termocupla.c ****             {
 218              		.loc 1 421 0 is_stmt 0 discriminator 1
 219 0084 002C     		cmp	r4, #0
 220 0086 F0D1     		bne	.L16
 424:Generated_Source\PSoC5/Termocupla.c ****                        temp), voltage);
 425:Generated_Source\PSoC5/Termocupla.c ****             }
 426:Generated_Source\PSoC5/Termocupla.c **** 
 427:Generated_Source\PSoC5/Termocupla.c ****             if(Termocupla_coefScaleVT[Termocupla_RANGE_MAS_1] < 0)
 428:Generated_Source\PSoC5/Termocupla.c ****             {
 429:Generated_Source\PSoC5/Termocupla.c ****                 temp = (int32)((uint64)((uint64)(int32)(temp + 
 430:Generated_Source\PSoC5/Termocupla.c ****                         Termocupla_coeffVT[Termocupla_FIRST_EL_MAS][Termocupla_RANGE_MAS_1]) << 
 431:Generated_Source\PSoC5/Termocupla.c ****                         Termocupla_coefScaleVT[Termocupla_RANGE_MAS_1]));
 432:Generated_Source\PSoC5/Termocupla.c ****             }
 433:Generated_Source\PSoC5/Termocupla.c **** 
 434:Generated_Source\PSoC5/Termocupla.c ****             else
 435:Generated_Source\PSoC5/Termocupla.c ****             {
 436:Generated_Source\PSoC5/Termocupla.c ****                 temp = (int32)((uint32)((uint64)(int32)(temp + 
 221              		.loc 1 436 0 is_stmt 1
 222 0088 C117     		asrs	r1, r0, #31
 437:Generated_Source\PSoC5/Termocupla.c ****                         Termocupla_coeffVT[Termocupla_FIRST_EL_MAS][Termocupla_RANGE_MAS_1]) >> 
 223              		.loc 1 437 0
 224 008a 4908     		movs	r1, r1, lsr #1
 225 008c 4FEA3000 		mov	r0, r0, rrx
 226              	.LVL38:
 227 0090 1EE0     		b	.L11
 228              	.LVL39:
 229              	.L12:
 438:Generated_Source\PSoC5/Termocupla.c ****                         Termocupla_coefScaleVT[Termocupla_RANGE_MAS_1]));
 439:Generated_Source\PSoC5/Termocupla.c ****             }
 440:Generated_Source\PSoC5/Termocupla.c ****         }
 441:Generated_Source\PSoC5/Termocupla.c **** 
 442:Generated_Source\PSoC5/Termocupla.c ****         else
 443:Generated_Source\PSoC5/Termocupla.c ****         {
 444:Generated_Source\PSoC5/Termocupla.c ****             if (voltage < 0)
 230              		.loc 1 444 0
 231 0092 002C     		cmp	r4, #0
 232 0094 03DA     		bge	.L17
 445:Generated_Source\PSoC5/Termocupla.c ****             {
 446:Generated_Source\PSoC5/Termocupla.c ****                 voltage = -voltage;
ARM GAS  C:\Users\HENRYH~1\AppData\Local\Temp\ccAb5XmU.s 			page 13


 233              		.loc 1 446 0
 234 0096 6442     		negs	r4, r4
 235              	.LVL40:
 447:Generated_Source\PSoC5/Termocupla.c ****                 voltage = (int32)((uint64)((uint64)voltage << 
 236              		.loc 1 447 0
 237 0098 2402     		lsls	r4, r4, #8
 238              	.LVL41:
 448:Generated_Source\PSoC5/Termocupla.c ****                                                (Termocupla_IN_NORMALIZATION_VT - 
 449:Generated_Source\PSoC5/Termocupla.c ****                                                 Termocupla_xScaleVT[Termocupla_RANGE_MAS_2])));
 450:Generated_Source\PSoC5/Termocupla.c ****                 voltage = -voltage;
 239              		.loc 1 450 0
 240 009a 6542     		negs	r5, r4
 241              	.LVL42:
 242 009c 00E0     		b	.L18
 243              	.LVL43:
 244              	.L17:
 451:Generated_Source\PSoC5/Termocupla.c ****             }
 452:Generated_Source\PSoC5/Termocupla.c ****             else
 453:Generated_Source\PSoC5/Termocupla.c ****             {
 454:Generated_Source\PSoC5/Termocupla.c ****                 voltage = (int32)((uint64)((uint64)voltage << 
 245              		.loc 1 454 0
 246 009e 2502     		lsls	r5, r4, #8
 247              	.LVL44:
 248              	.L18:
 455:Generated_Source\PSoC5/Termocupla.c ****                                                (Termocupla_IN_NORMALIZATION_VT - 
 456:Generated_Source\PSoC5/Termocupla.c ****                                                 Termocupla_xScaleVT[Termocupla_RANGE_MAS_2])));
 457:Generated_Source\PSoC5/Termocupla.c ****             }              
 458:Generated_Source\PSoC5/Termocupla.c **** 
 459:Generated_Source\PSoC5/Termocupla.c ****             for (i=Termocupla_ORDER_VT - 1u; i > 0u; i--)
 249              		.loc 1 459 0
 250 00a0 0924     		movs	r4, #9
 205:Generated_Source\PSoC5/Termocupla.c ****     uint8 i=0u;
 251              		.loc 1 205 0
 252 00a2 0020     		movs	r0, #0
 253              		.loc 1 459 0
 254 00a4 0CE0     		b	.L19
 255              	.LVL45:
 256              	.L20:
 460:Generated_Source\PSoC5/Termocupla.c ****             {
 461:Generated_Source\PSoC5/Termocupla.c ****                 temp = Termocupla_MultShift24((Termocupla_coeffVT[i][Termocupla_RANGE_MAS_2] +
 257              		.loc 1 461 0 discriminator 3
 258 00a6 04EB4402 		add	r2, r4, r4, lsl #1
 259 00aa 9300     		lsls	r3, r2, #2
 260 00ac 1EAA     		add	r2, sp, #120
 261 00ae 1344     		add	r3, r3, r2
 262 00b0 53F8703C 		ldr	r3, [r3, #-112]
 263 00b4 2946     		mov	r1, r5
 264 00b6 1844     		add	r0, r0, r3
 265              	.LVL46:
 266 00b8 FFF7FEFF 		bl	Termocupla_MultShift24
 267              	.LVL47:
 459:Generated_Source\PSoC5/Termocupla.c ****             {
 268              		.loc 1 459 0 discriminator 3
 269 00bc 013C     		subs	r4, r4, #1
 270              	.LVL48:
 271 00be E4B2     		uxtb	r4, r4
 272              	.LVL49:
ARM GAS  C:\Users\HENRYH~1\AppData\Local\Temp\ccAb5XmU.s 			page 14


 273              	.L19:
 459:Generated_Source\PSoC5/Termocupla.c ****             {
 274              		.loc 1 459 0 is_stmt 0 discriminator 1
 275 00c0 002C     		cmp	r4, #0
 276 00c2 F0D1     		bne	.L20
 462:Generated_Source\PSoC5/Termocupla.c ****                        temp), voltage);
 463:Generated_Source\PSoC5/Termocupla.c ****             }
 464:Generated_Source\PSoC5/Termocupla.c **** 
 465:Generated_Source\PSoC5/Termocupla.c ****             if(Termocupla_coefScaleVT[Termocupla_RANGE_MAS_2] < 0)
 466:Generated_Source\PSoC5/Termocupla.c ****             {
 467:Generated_Source\PSoC5/Termocupla.c ****                 temp = (int32)((uint64)((uint64)(int32)(temp + 
 468:Generated_Source\PSoC5/Termocupla.c ****                         Termocupla_coeffVT[Termocupla_FIRST_EL_MAS][Termocupla_RANGE_MAS_2]) << 
 469:Generated_Source\PSoC5/Termocupla.c ****                         Termocupla_coefScaleVT[Termocupla_RANGE_MAS_2]));
 470:Generated_Source\PSoC5/Termocupla.c ****             }
 471:Generated_Source\PSoC5/Termocupla.c **** 
 472:Generated_Source\PSoC5/Termocupla.c ****             else
 473:Generated_Source\PSoC5/Termocupla.c ****             {
 474:Generated_Source\PSoC5/Termocupla.c ****                 temp = (int32)((uint32)((uint64)(int32)(temp + 
 277              		.loc 1 474 0 is_stmt 1
 278 00c4 044B     		ldr	r3, .L22+4
 279 00c6 0344     		add	r3, r3, r0
 280 00c8 D917     		asrs	r1, r3, #31
 475:Generated_Source\PSoC5/Termocupla.c ****                         Termocupla_coeffVT[Termocupla_FIRST_EL_MAS][Termocupla_RANGE_MAS_2]) >> 
 281              		.loc 1 475 0
 282 00ca DB09     		lsrs	r3, r3, #7
 283 00cc 43EA4160 		orr	r0, r3, r1, lsl #25
 284              	.LVL50:
 285              	.L11:
 476:Generated_Source\PSoC5/Termocupla.c ****                         Termocupla_coefScaleVT[Termocupla_RANGE_MAS_2]));
 477:Generated_Source\PSoC5/Termocupla.c ****             }
 478:Generated_Source\PSoC5/Termocupla.c ****         }
 479:Generated_Source\PSoC5/Termocupla.c ****     }
 480:Generated_Source\PSoC5/Termocupla.c **** 
 481:Generated_Source\PSoC5/Termocupla.c ****     #endif /* End Termocupla_VT_RANGE_LEN == Termocupla_THREE */
 482:Generated_Source\PSoC5/Termocupla.c **** 
 483:Generated_Source\PSoC5/Termocupla.c ****     return (temp);
 484:Generated_Source\PSoC5/Termocupla.c **** }
 286              		.loc 1 484 0
 287 00d0 1FB0     		add	sp, sp, #124
 288              		.cfi_def_cfa_offset 12
 289              		@ sp needed
 290 00d2 30BD     		pop	{r4, r5, pc}
 291              	.LVL51:
 292              	.L23:
 293              		.align	2
 294              	.L22:
 295 00d4 00000000 		.word	.LANCHOR0
 296 00d8 B641E6FF 		.word	-1687114
 297              		.cfi_endproc
 298              	.LFE1:
 299              		.size	Termocupla_GetTemperature, .-Termocupla_GetTemperature
 300              		.section	.text.Termocupla_GetVoltage,"ax",%progbits
 301              		.align	2
 302              		.global	Termocupla_GetVoltage
 303              		.thumb
 304              		.thumb_func
 305              		.type	Termocupla_GetVoltage, %function
ARM GAS  C:\Users\HENRYH~1\AppData\Local\Temp\ccAb5XmU.s 			page 15


 306              	Termocupla_GetVoltage:
 307              	.LFB2:
 485:Generated_Source\PSoC5/Termocupla.c **** #endif /* End CY_PSOC3 */
 486:Generated_Source\PSoC5/Termocupla.c **** 
 487:Generated_Source\PSoC5/Termocupla.c **** 
 488:Generated_Source\PSoC5/Termocupla.c **** /*******************************************************************************
 489:Generated_Source\PSoC5/Termocupla.c **** * Function Name: Termocupla_GetVoltage
 490:Generated_Source\PSoC5/Termocupla.c **** ********************************************************************************
 491:Generated_Source\PSoC5/Termocupla.c **** *
 492:Generated_Source\PSoC5/Termocupla.c **** * Summary:
 493:Generated_Source\PSoC5/Termocupla.c **** *  This function takes the temperature as input and provides the expected
 494:Generated_Source\PSoC5/Termocupla.c **** *  voltage for that temperature.
 495:Generated_Source\PSoC5/Termocupla.c **** *
 496:Generated_Source\PSoC5/Termocupla.c **** * Parameters:
 497:Generated_Source\PSoC5/Termocupla.c **** *  int32 temperature : Temperature of the cold junction in 1/100 degree C
 498:Generated_Source\PSoC5/Termocupla.c **** *
 499:Generated_Source\PSoC5/Termocupla.c **** * Return:
 500:Generated_Source\PSoC5/Termocupla.c **** *  int32 : Expected voltage output of the thermocouple in microvolts
 501:Generated_Source\PSoC5/Termocupla.c **** *
 502:Generated_Source\PSoC5/Termocupla.c **** *******************************************************************************/
 503:Generated_Source\PSoC5/Termocupla.c **** int32 Termocupla_GetVoltage(int32 temperature) 
 504:Generated_Source\PSoC5/Termocupla.c **** 
 505:Generated_Source\PSoC5/Termocupla.c **** #if (CY_PSOC3)
 506:Generated_Source\PSoC5/Termocupla.c **** {
 507:Generated_Source\PSoC5/Termocupla.c **** 
 508:Generated_Source\PSoC5/Termocupla.c ****     /***************************************
 509:Generated_Source\PSoC5/Termocupla.c ****     *  Customizer Generated Coefficients
 510:Generated_Source\PSoC5/Termocupla.c ****     ***************************************/
 511:Generated_Source\PSoC5/Termocupla.c ****     const int32 CYCODE Termocupla_coeffTV[9] = {0, 
 512:Generated_Source\PSoC5/Termocupla.c ****                                             413735, 
 513:Generated_Source\PSoC5/Termocupla.c ****                                             83372, 
 514:Generated_Source\PSoC5/Termocupla.c ****                                             -137607, 
 515:Generated_Source\PSoC5/Termocupla.c ****                                             1089544, 
 516:Generated_Source\PSoC5/Termocupla.c ****                                             -9978037, 
 517:Generated_Source\PSoC5/Termocupla.c ****                                             43567176, 
 518:Generated_Source\PSoC5/Termocupla.c ****                                             -95708775, 
 519:Generated_Source\PSoC5/Termocupla.c ****                                             84037362};
 520:Generated_Source\PSoC5/Termocupla.c **** 
 521:Generated_Source\PSoC5/Termocupla.c ****     /* Variable to store calculated voltage */
 522:Generated_Source\PSoC5/Termocupla.c ****     uint8 i=0u;
 523:Generated_Source\PSoC5/Termocupla.c ****     float32 voltage=0.0f;
 524:Generated_Source\PSoC5/Termocupla.c ****     float32 temperatureNorm=0.0f;
 525:Generated_Source\PSoC5/Termocupla.c **** 
 526:Generated_Source\PSoC5/Termocupla.c ****     temperatureNorm  = (float32)temperature;
 527:Generated_Source\PSoC5/Termocupla.c **** 
 528:Generated_Source\PSoC5/Termocupla.c ****     for (i = Termocupla_ORDER_TV - 1u; i > 0u; i--)
 529:Generated_Source\PSoC5/Termocupla.c ****     {
 530:Generated_Source\PSoC5/Termocupla.c ****         voltage = (Termocupla_coeffTV[i] + voltage) * temperatureNorm;
 531:Generated_Source\PSoC5/Termocupla.c ****     }
 532:Generated_Source\PSoC5/Termocupla.c ****     voltage = (voltage + Termocupla_coeffTV[Termocupla_FIRST_EL_MAS]);
 533:Generated_Source\PSoC5/Termocupla.c **** 
 534:Generated_Source\PSoC5/Termocupla.c ****     return ((int32) (voltage));
 535:Generated_Source\PSoC5/Termocupla.c **** }
 536:Generated_Source\PSoC5/Termocupla.c **** #else
 537:Generated_Source\PSoC5/Termocupla.c **** {
 308              		.loc 1 537 0
 309              		.cfi_startproc
ARM GAS  C:\Users\HENRYH~1\AppData\Local\Temp\ccAb5XmU.s 			page 16


 310              		@ args = 0, pretend = 0, frame = 40
 311              		@ frame_needed = 0, uses_anonymous_args = 0
 312              	.LVL52:
 313 0000 70B5     		push	{r4, r5, r6, lr}
 314              		.cfi_def_cfa_offset 16
 315              		.cfi_offset 4, -16
 316              		.cfi_offset 5, -12
 317              		.cfi_offset 6, -8
 318              		.cfi_offset 14, -4
 319 0002 8AB0     		sub	sp, sp, #40
 320              		.cfi_def_cfa_offset 56
 321 0004 0646     		mov	r6, r0
 538:Generated_Source\PSoC5/Termocupla.c **** 
 539:Generated_Source\PSoC5/Termocupla.c ****     /***************************************
 540:Generated_Source\PSoC5/Termocupla.c ****     *  Customizer Generated Coefficients
 541:Generated_Source\PSoC5/Termocupla.c ****     ***************************************/
 542:Generated_Source\PSoC5/Termocupla.c ****     const int32 CYCODE Termocupla_coeffTV[9] = {0, 
 322              		.loc 1 542 0
 323 0006 01AC     		add	r4, sp, #4
 324 0008 114D     		ldr	r5, .L30
 325 000a 0FCD     		ldmia	r5!, {r0, r1, r2, r3}
 326              	.LVL53:
 327 000c 0FC4     		stmia	r4!, {r0, r1, r2, r3}
 328 000e 0FCD     		ldmia	r5!, {r0, r1, r2, r3}
 329 0010 0FC4     		stmia	r4!, {r0, r1, r2, r3}
 330 0012 2B68     		ldr	r3, [r5]
 331 0014 2360     		str	r3, [r4]
 332              	.LVL54:
 543:Generated_Source\PSoC5/Termocupla.c ****                                             413735, 
 544:Generated_Source\PSoC5/Termocupla.c ****                                             83372, 
 545:Generated_Source\PSoC5/Termocupla.c ****                                             -137607, 
 546:Generated_Source\PSoC5/Termocupla.c ****                                             1089544, 
 547:Generated_Source\PSoC5/Termocupla.c ****                                             -9978037, 
 548:Generated_Source\PSoC5/Termocupla.c ****                                             43567176, 
 549:Generated_Source\PSoC5/Termocupla.c ****                                             -95708775, 
 550:Generated_Source\PSoC5/Termocupla.c ****                                             84037362};
 551:Generated_Source\PSoC5/Termocupla.c **** 
 552:Generated_Source\PSoC5/Termocupla.c ****     /* Variable to store calculated voltage */
 553:Generated_Source\PSoC5/Termocupla.c ****     uint8 i=0u;
 554:Generated_Source\PSoC5/Termocupla.c ****     int32 voltage=0;
 555:Generated_Source\PSoC5/Termocupla.c **** 
 556:Generated_Source\PSoC5/Termocupla.c ****     if (temperature < 0)
 333              		.loc 1 556 0
 334 0016 002E     		cmp	r6, #0
 335 0018 03DA     		bge	.L25
 557:Generated_Source\PSoC5/Termocupla.c ****     {
 558:Generated_Source\PSoC5/Termocupla.c ****         temperature = -temperature;
 336              		.loc 1 558 0
 337 001a 7542     		negs	r5, r6
 338              	.LVL55:
 559:Generated_Source\PSoC5/Termocupla.c ****         temperature = (int32)((uint64)((uint64)temperature << 
 339              		.loc 1 559 0
 340 001c 6D02     		lsls	r5, r5, #9
 341              	.LVL56:
 560:Generated_Source\PSoC5/Termocupla.c ****                                        (Termocupla_IN_NORMALIZATION_TV - Termocupla_X_SCALE_TV)));
 561:Generated_Source\PSoC5/Termocupla.c ****         temperature = -temperature;
 342              		.loc 1 561 0
ARM GAS  C:\Users\HENRYH~1\AppData\Local\Temp\ccAb5XmU.s 			page 17


 343 001e 6D42     		negs	r5, r5
 344              	.LVL57:
 345 0020 00E0     		b	.L26
 346              	.LVL58:
 347              	.L25:
 562:Generated_Source\PSoC5/Termocupla.c ****     }
 563:Generated_Source\PSoC5/Termocupla.c ****     else
 564:Generated_Source\PSoC5/Termocupla.c ****     {
 565:Generated_Source\PSoC5/Termocupla.c ****         temperature = (int32)((uint64)((uint64)temperature << 
 348              		.loc 1 565 0
 349 0022 7502     		lsls	r5, r6, #9
 350              	.LVL59:
 351              	.L26:
 554:Generated_Source\PSoC5/Termocupla.c **** 
 352              		.loc 1 554 0
 353 0024 0020     		movs	r0, #0
 566:Generated_Source\PSoC5/Termocupla.c ****                                        (Termocupla_IN_NORMALIZATION_TV - Termocupla_X_SCALE_TV)));
 567:Generated_Source\PSoC5/Termocupla.c ****     }
 568:Generated_Source\PSoC5/Termocupla.c ****     
 569:Generated_Source\PSoC5/Termocupla.c ****     for (i = Termocupla_ORDER_TV - 1u; i > 0u; i--)
 354              		.loc 1 569 0
 355 0026 0824     		movs	r4, #8
 356 0028 0AE0     		b	.L27
 357              	.LVL60:
 358              	.L28:
 570:Generated_Source\PSoC5/Termocupla.c ****     {
 571:Generated_Source\PSoC5/Termocupla.c ****         voltage = Termocupla_MultShift24((Termocupla_coeffTV[i] + voltage), temperature);
 359              		.loc 1 571 0 discriminator 3
 360 002a 0AAB     		add	r3, sp, #40
 361 002c 03EB8403 		add	r3, r3, r4, lsl #2
 362 0030 53F8243C 		ldr	r3, [r3, #-36]
 363 0034 2946     		mov	r1, r5
 364 0036 1844     		add	r0, r0, r3
 365              	.LVL61:
 366 0038 FFF7FEFF 		bl	Termocupla_MultShift24
 367              	.LVL62:
 569:Generated_Source\PSoC5/Termocupla.c ****     {
 368              		.loc 1 569 0 discriminator 3
 369 003c 013C     		subs	r4, r4, #1
 370              	.LVL63:
 371 003e E4B2     		uxtb	r4, r4
 372              	.LVL64:
 373              	.L27:
 569:Generated_Source\PSoC5/Termocupla.c ****     {
 374              		.loc 1 569 0 is_stmt 0 discriminator 1
 375 0040 002C     		cmp	r4, #0
 376 0042 F2D1     		bne	.L28
 572:Generated_Source\PSoC5/Termocupla.c ****     }
 573:Generated_Source\PSoC5/Termocupla.c **** 
 574:Generated_Source\PSoC5/Termocupla.c ****     voltage = (int32)((uint32)((uint64)(int32)(voltage + Termocupla_coeffTV[Termocupla_FIRST_EL_MAS
 377              		.loc 1 574 0 is_stmt 1
 378 0044 C317     		asrs	r3, r0, #31
 379 0046 4009     		lsrs	r0, r0, #5
 380              	.LVL65:
 575:Generated_Source\PSoC5/Termocupla.c ****                                         Termocupla_COEF_SCALE_TV));
 576:Generated_Source\PSoC5/Termocupla.c **** 
 577:Generated_Source\PSoC5/Termocupla.c ****     return (voltage);
ARM GAS  C:\Users\HENRYH~1\AppData\Local\Temp\ccAb5XmU.s 			page 18


 578:Generated_Source\PSoC5/Termocupla.c **** }
 381              		.loc 1 578 0
 382 0048 40EAC360 		orr	r0, r0, r3, lsl #27
 383              	.LVL66:
 384 004c 0AB0     		add	sp, sp, #40
 385              		.cfi_def_cfa_offset 16
 386              		@ sp needed
 387 004e 70BD     		pop	{r4, r5, r6, pc}
 388              	.LVL67:
 389              	.L31:
 390              		.align	2
 391              	.L30:
 392 0050 78000000 		.word	.LANCHOR0+120
 393              		.cfi_endproc
 394              	.LFE2:
 395              		.size	Termocupla_GetVoltage, .-Termocupla_GetVoltage
 396              		.section	.rodata
 397              		.align	2
 398              		.set	.LANCHOR0,. + 0
 399              	.LC0:
 400 0000 00000000 		.word	0
 401 0004 00000000 		.word	0
 402 0008 B641E6FF 		.word	-1687114
 403 000c 0D472800 		.word	2639629
 404 0010 24820200 		.word	164388
 405 0014 B7446A02 		.word	40518839
 406 0018 96B6F0FF 		.word	-1001834
 407 001c EF410000 		.word	16879
 408 0020 89359BFA 		.word	-90491511
 409 0024 B9AC8BFF 		.word	-7623495
 410 0028 721FE5FF 		.word	-1761422
 411 002c 8444BC0B 		.word	196887684
 412 0030 F657EAFC 		.word	-51750922
 413 0034 4B912401 		.word	19173707
 414 0038 A7F66AF2 		.word	-227871065
 415 003c BA327DF5 		.word	-176344390
 416 0040 562C78FA 		.word	-92787626
 417 0044 EB5B1E08 		.word	136207339
 418 0048 831C06EC 		.word	-335143805
 419 004c 2EDC770E 		.word	242736174
 420 0050 1FA01EFE 		.word	-31547361
 421 0054 A16642EC 		.word	-331192671
 422 0058 F8EEA8EA 		.word	-358027528
 423 005c 00000000 		.word	0
 424 0060 CC36F7F7 		.word	-134793524
 425 0064 C9ADC210 		.word	281193929
 426 0068 00000000 		.word	0
 427 006c 00000000 		.word	0
 428 0070 09A688FA 		.word	-91707895
 429 0074 00000000 		.word	0
 430              	.LC1:
 431 0078 00000000 		.word	0
 432 007c 27500600 		.word	413735
 433 0080 AC450100 		.word	83372
 434 0084 79E6FDFF 		.word	-137607
 435 0088 08A01000 		.word	1089544
 436 008c 4BBF67FF 		.word	-9978037
ARM GAS  C:\Users\HENRYH~1\AppData\Local\Temp\ccAb5XmU.s 			page 19


 437 0090 48C89802 		.word	43567176
 438 0094 99994BFA 		.word	-95708775
 439 0098 F24E0205 		.word	84037362
 440              		.text
 441              	.Letext0:
 442              		.file 2 "Generated_Source\\PSoC5\\cytypes.h"