ARM GAS  C:\Users\HENRYH~1\AppData\Local\Temp\ccOPLwMI.s 			page 1


   1              		.syntax unified
   2              		.cpu cortex-m3
   3              		.fpu softvfp
   4              		.eabi_attribute 20, 1
   5              		.eabi_attribute 21, 1
   6              		.eabi_attribute 23, 3
   7              		.eabi_attribute 24, 1
   8              		.eabi_attribute 25, 1
   9              		.eabi_attribute 26, 1
  10              		.eabi_attribute 30, 1
  11              		.eabi_attribute 34, 1
  12              		.eabi_attribute 18, 4
  13              		.thumb
  14              		.syntax unified
  15              		.file	"ADCMux.c"
  16              		.text
  17              	.Ltext0:
  18              		.cfi_sections	.debug_frame
  19              		.section	.text.ADCMux_Start,"ax",%progbits
  20              		.align	2
  21              		.global	ADCMux_Start
  22              		.thumb
  23              		.thumb_func
  24              		.type	ADCMux_Start, %function
  25              	ADCMux_Start:
  26              	.LFB0:
  27              		.file 1 "Generated_Source\\PSoC5\\ADCMux.c"
   1:Generated_Source\PSoC5/ADCMux.c **** /*******************************************************************************
   2:Generated_Source\PSoC5/ADCMux.c **** * File Name: ADCMux.c
   3:Generated_Source\PSoC5/ADCMux.c **** * Version 1.80
   4:Generated_Source\PSoC5/ADCMux.c **** *
   5:Generated_Source\PSoC5/ADCMux.c **** *  Description:
   6:Generated_Source\PSoC5/ADCMux.c **** *    This file contains all functions required for the analog multiplexer
   7:Generated_Source\PSoC5/ADCMux.c **** *    AMux User Module.
   8:Generated_Source\PSoC5/ADCMux.c **** *
   9:Generated_Source\PSoC5/ADCMux.c **** *   Note:
  10:Generated_Source\PSoC5/ADCMux.c **** *
  11:Generated_Source\PSoC5/ADCMux.c **** *******************************************************************************
  12:Generated_Source\PSoC5/ADCMux.c **** * Copyright 2008-2010, Cypress Semiconductor Corporation.  All rights reserved.
  13:Generated_Source\PSoC5/ADCMux.c **** * You may use this file only in accordance with the license, terms, conditions, 
  14:Generated_Source\PSoC5/ADCMux.c **** * disclaimers, and limitations in the end user license agreement accompanying 
  15:Generated_Source\PSoC5/ADCMux.c **** * the software package with which this file was provided.
  16:Generated_Source\PSoC5/ADCMux.c **** ********************************************************************************/
  17:Generated_Source\PSoC5/ADCMux.c **** 
  18:Generated_Source\PSoC5/ADCMux.c **** #include "ADCMux.h"
  19:Generated_Source\PSoC5/ADCMux.c **** 
  20:Generated_Source\PSoC5/ADCMux.c **** static uint8 ADCMux_lastChannel = ADCMux_NULL_CHANNEL;
  21:Generated_Source\PSoC5/ADCMux.c **** 
  22:Generated_Source\PSoC5/ADCMux.c **** 
  23:Generated_Source\PSoC5/ADCMux.c **** /*******************************************************************************
  24:Generated_Source\PSoC5/ADCMux.c **** * Function Name: ADCMux_Start
  25:Generated_Source\PSoC5/ADCMux.c **** ********************************************************************************
  26:Generated_Source\PSoC5/ADCMux.c **** * Summary:
  27:Generated_Source\PSoC5/ADCMux.c **** *  Disconnect all channels.
  28:Generated_Source\PSoC5/ADCMux.c **** *
  29:Generated_Source\PSoC5/ADCMux.c **** * Parameters:
  30:Generated_Source\PSoC5/ADCMux.c **** *  void
ARM GAS  C:\Users\HENRYH~1\AppData\Local\Temp\ccOPLwMI.s 			page 2


  31:Generated_Source\PSoC5/ADCMux.c **** *
  32:Generated_Source\PSoC5/ADCMux.c **** * Return:
  33:Generated_Source\PSoC5/ADCMux.c **** *  void
  34:Generated_Source\PSoC5/ADCMux.c **** *
  35:Generated_Source\PSoC5/ADCMux.c **** *******************************************************************************/
  36:Generated_Source\PSoC5/ADCMux.c **** void ADCMux_Start(void) 
  37:Generated_Source\PSoC5/ADCMux.c **** {
  28              		.loc 1 37 0
  29              		.cfi_startproc
  30              		@ args = 0, pretend = 0, frame = 0
  31              		@ frame_needed = 0, uses_anonymous_args = 0
  32 0000 10B5     		push	{r4, lr}
  33              		.cfi_def_cfa_offset 8
  34              		.cfi_offset 4, -8
  35              		.cfi_offset 14, -4
  36              	.LVL0:
  38:Generated_Source\PSoC5/ADCMux.c ****     uint8 chan;
  39:Generated_Source\PSoC5/ADCMux.c **** 
  40:Generated_Source\PSoC5/ADCMux.c ****     for(chan = 0u; chan < ADCMux_CHANNELS ; chan++)
  37              		.loc 1 40 0
  38 0002 0024     		movs	r4, #0
  39 0004 07E0     		b	.L2
  40              	.LVL1:
  41              	.L3:
  41:Generated_Source\PSoC5/ADCMux.c ****     {
  42:Generated_Source\PSoC5/ADCMux.c **** #if (ADCMux_MUXTYPE == ADCMux_MUX_SINGLE)
  43:Generated_Source\PSoC5/ADCMux.c ****         ADCMux_Unset(chan);
  44:Generated_Source\PSoC5/ADCMux.c **** #else
  45:Generated_Source\PSoC5/ADCMux.c ****         ADCMux_CYAMUXSIDE_A_Unset(chan);
  42              		.loc 1 45 0 discriminator 3
  43 0006 2046     		mov	r0, r4
  44 0008 FFF7FEFF 		bl	ADCMux_CYAMUXSIDE_A_Unset
  45              	.LVL2:
  46:Generated_Source\PSoC5/ADCMux.c ****         ADCMux_CYAMUXSIDE_B_Unset(chan);
  46              		.loc 1 46 0 discriminator 3
  47 000c 2046     		mov	r0, r4
  48 000e FFF7FEFF 		bl	ADCMux_CYAMUXSIDE_B_Unset
  49              	.LVL3:
  40:Generated_Source\PSoC5/ADCMux.c ****     {
  50              		.loc 1 40 0 discriminator 3
  51 0012 0134     		adds	r4, r4, #1
  52              	.LVL4:
  53 0014 E4B2     		uxtb	r4, r4
  54              	.LVL5:
  55              	.L2:
  40:Generated_Source\PSoC5/ADCMux.c ****     {
  56              		.loc 1 40 0 is_stmt 0 discriminator 1
  57 0016 012C     		cmp	r4, #1
  58 0018 F5D9     		bls	.L3
  47:Generated_Source\PSoC5/ADCMux.c **** #endif
  48:Generated_Source\PSoC5/ADCMux.c ****     }
  49:Generated_Source\PSoC5/ADCMux.c **** 
  50:Generated_Source\PSoC5/ADCMux.c ****     ADCMux_lastChannel = ADCMux_NULL_CHANNEL;
  59              		.loc 1 50 0 is_stmt 1
  60 001a FF22     		movs	r2, #255
  61 001c 014B     		ldr	r3, .L5
  62 001e 1A70     		strb	r2, [r3]
ARM GAS  C:\Users\HENRYH~1\AppData\Local\Temp\ccOPLwMI.s 			page 3


  63 0020 10BD     		pop	{r4, pc}
  64              	.LVL6:
  65              	.L6:
  66 0022 00BF     		.align	2
  67              	.L5:
  68 0024 00000000 		.word	.LANCHOR0
  69              		.cfi_endproc
  70              	.LFE0:
  71              		.size	ADCMux_Start, .-ADCMux_Start
  72              		.section	.text.ADCMux_Connect,"ax",%progbits
  73              		.align	2
  74              		.global	ADCMux_Connect
  75              		.thumb
  76              		.thumb_func
  77              		.type	ADCMux_Connect, %function
  78              	ADCMux_Connect:
  79              	.LFB3:
  51:Generated_Source\PSoC5/ADCMux.c **** }
  52:Generated_Source\PSoC5/ADCMux.c **** 
  53:Generated_Source\PSoC5/ADCMux.c **** 
  54:Generated_Source\PSoC5/ADCMux.c **** #if (!ADCMux_ATMOSTONE)
  55:Generated_Source\PSoC5/ADCMux.c **** /*******************************************************************************
  56:Generated_Source\PSoC5/ADCMux.c **** * Function Name: ADCMux_Select
  57:Generated_Source\PSoC5/ADCMux.c **** ********************************************************************************
  58:Generated_Source\PSoC5/ADCMux.c **** * Summary:
  59:Generated_Source\PSoC5/ADCMux.c **** *  This functions first disconnects all channels then connects the given
  60:Generated_Source\PSoC5/ADCMux.c **** *  channel.
  61:Generated_Source\PSoC5/ADCMux.c **** *
  62:Generated_Source\PSoC5/ADCMux.c **** * Parameters:
  63:Generated_Source\PSoC5/ADCMux.c **** *  channel:  The channel to connect to the common terminal.
  64:Generated_Source\PSoC5/ADCMux.c **** *
  65:Generated_Source\PSoC5/ADCMux.c **** * Return:
  66:Generated_Source\PSoC5/ADCMux.c **** *  void
  67:Generated_Source\PSoC5/ADCMux.c **** *
  68:Generated_Source\PSoC5/ADCMux.c **** *******************************************************************************/
  69:Generated_Source\PSoC5/ADCMux.c **** void ADCMux_Select(uint8 channel) 
  70:Generated_Source\PSoC5/ADCMux.c **** {
  71:Generated_Source\PSoC5/ADCMux.c ****     ADCMux_DisconnectAll();        /* Disconnect all previous connections */
  72:Generated_Source\PSoC5/ADCMux.c ****     ADCMux_Connect(channel);       /* Make the given selection */
  73:Generated_Source\PSoC5/ADCMux.c ****     ADCMux_lastChannel = channel;  /* Update last channel */
  74:Generated_Source\PSoC5/ADCMux.c **** }
  75:Generated_Source\PSoC5/ADCMux.c **** #endif
  76:Generated_Source\PSoC5/ADCMux.c **** 
  77:Generated_Source\PSoC5/ADCMux.c **** 
  78:Generated_Source\PSoC5/ADCMux.c **** /*******************************************************************************
  79:Generated_Source\PSoC5/ADCMux.c **** * Function Name: ADCMux_FastSelect
  80:Generated_Source\PSoC5/ADCMux.c **** ********************************************************************************
  81:Generated_Source\PSoC5/ADCMux.c **** * Summary:
  82:Generated_Source\PSoC5/ADCMux.c **** *  This function first disconnects the last connection made with FastSelect or
  83:Generated_Source\PSoC5/ADCMux.c **** *  Select, then connects the given channel. The FastSelect function is similar
  84:Generated_Source\PSoC5/ADCMux.c **** *  to the Select function, except it is faster since it only disconnects the
  85:Generated_Source\PSoC5/ADCMux.c **** *  last channel selected rather than all channels.
  86:Generated_Source\PSoC5/ADCMux.c **** *
  87:Generated_Source\PSoC5/ADCMux.c **** * Parameters:
  88:Generated_Source\PSoC5/ADCMux.c **** *  channel:  The channel to connect to the common terminal.
  89:Generated_Source\PSoC5/ADCMux.c **** *
  90:Generated_Source\PSoC5/ADCMux.c **** * Return:
ARM GAS  C:\Users\HENRYH~1\AppData\Local\Temp\ccOPLwMI.s 			page 4


  91:Generated_Source\PSoC5/ADCMux.c **** *  void
  92:Generated_Source\PSoC5/ADCMux.c **** *
  93:Generated_Source\PSoC5/ADCMux.c **** *******************************************************************************/
  94:Generated_Source\PSoC5/ADCMux.c **** void ADCMux_FastSelect(uint8 channel) 
  95:Generated_Source\PSoC5/ADCMux.c **** {
  96:Generated_Source\PSoC5/ADCMux.c ****     /* Disconnect the last valid channel */
  97:Generated_Source\PSoC5/ADCMux.c ****     if( ADCMux_lastChannel != ADCMux_NULL_CHANNEL)
  98:Generated_Source\PSoC5/ADCMux.c ****     {
  99:Generated_Source\PSoC5/ADCMux.c ****         ADCMux_Disconnect(ADCMux_lastChannel);
 100:Generated_Source\PSoC5/ADCMux.c ****     }
 101:Generated_Source\PSoC5/ADCMux.c **** 
 102:Generated_Source\PSoC5/ADCMux.c ****     /* Make the new channel connection */
 103:Generated_Source\PSoC5/ADCMux.c **** #if (ADCMux_MUXTYPE == ADCMux_MUX_SINGLE)
 104:Generated_Source\PSoC5/ADCMux.c ****     ADCMux_Set(channel);
 105:Generated_Source\PSoC5/ADCMux.c **** #else
 106:Generated_Source\PSoC5/ADCMux.c ****     ADCMux_CYAMUXSIDE_A_Set(channel);
 107:Generated_Source\PSoC5/ADCMux.c ****     ADCMux_CYAMUXSIDE_B_Set(channel);
 108:Generated_Source\PSoC5/ADCMux.c **** #endif
 109:Generated_Source\PSoC5/ADCMux.c **** 
 110:Generated_Source\PSoC5/ADCMux.c **** 
 111:Generated_Source\PSoC5/ADCMux.c ****     ADCMux_lastChannel = channel;   /* Update last channel */
 112:Generated_Source\PSoC5/ADCMux.c **** }
 113:Generated_Source\PSoC5/ADCMux.c **** 
 114:Generated_Source\PSoC5/ADCMux.c **** 
 115:Generated_Source\PSoC5/ADCMux.c **** #if (ADCMux_MUXTYPE == ADCMux_MUX_DIFF)
 116:Generated_Source\PSoC5/ADCMux.c **** #if (!ADCMux_ATMOSTONE)
 117:Generated_Source\PSoC5/ADCMux.c **** /*******************************************************************************
 118:Generated_Source\PSoC5/ADCMux.c **** * Function Name: ADCMux_Connect
 119:Generated_Source\PSoC5/ADCMux.c **** ********************************************************************************
 120:Generated_Source\PSoC5/ADCMux.c **** * Summary:
 121:Generated_Source\PSoC5/ADCMux.c **** *  This function connects the given channel without affecting other connections.
 122:Generated_Source\PSoC5/ADCMux.c **** *
 123:Generated_Source\PSoC5/ADCMux.c **** * Parameters:
 124:Generated_Source\PSoC5/ADCMux.c **** *  channel:  The channel to connect to the common terminal.
 125:Generated_Source\PSoC5/ADCMux.c **** *
 126:Generated_Source\PSoC5/ADCMux.c **** * Return:
 127:Generated_Source\PSoC5/ADCMux.c **** *  void
 128:Generated_Source\PSoC5/ADCMux.c **** *
 129:Generated_Source\PSoC5/ADCMux.c **** *******************************************************************************/
 130:Generated_Source\PSoC5/ADCMux.c **** void ADCMux_Connect(uint8 channel) 
 131:Generated_Source\PSoC5/ADCMux.c **** {
  80              		.loc 1 131 0
  81              		.cfi_startproc
  82              		@ args = 0, pretend = 0, frame = 0
  83              		@ frame_needed = 0, uses_anonymous_args = 0
  84              	.LVL7:
  85 0000 10B5     		push	{r4, lr}
  86              		.cfi_def_cfa_offset 8
  87              		.cfi_offset 4, -8
  88              		.cfi_offset 14, -4
  89 0002 0446     		mov	r4, r0
 132:Generated_Source\PSoC5/ADCMux.c ****     ADCMux_CYAMUXSIDE_A_Set(channel);
  90              		.loc 1 132 0
  91 0004 FFF7FEFF 		bl	ADCMux_CYAMUXSIDE_A_Set
  92              	.LVL8:
 133:Generated_Source\PSoC5/ADCMux.c ****     ADCMux_CYAMUXSIDE_B_Set(channel);
  93              		.loc 1 133 0
ARM GAS  C:\Users\HENRYH~1\AppData\Local\Temp\ccOPLwMI.s 			page 5


  94 0008 2046     		mov	r0, r4
  95 000a FFF7FEFF 		bl	ADCMux_CYAMUXSIDE_B_Set
  96              	.LVL9:
  97 000e 10BD     		pop	{r4, pc}
  98              		.cfi_endproc
  99              	.LFE3:
 100              		.size	ADCMux_Connect, .-ADCMux_Connect
 101              		.section	.text.ADCMux_Select,"ax",%progbits
 102              		.align	2
 103              		.global	ADCMux_Select
 104              		.thumb
 105              		.thumb_func
 106              		.type	ADCMux_Select, %function
 107              	ADCMux_Select:
 108              	.LFB1:
  70:Generated_Source\PSoC5/ADCMux.c ****     ADCMux_DisconnectAll();        /* Disconnect all previous connections */
 109              		.loc 1 70 0
 110              		.cfi_startproc
 111              		@ args = 0, pretend = 0, frame = 0
 112              		@ frame_needed = 0, uses_anonymous_args = 0
 113              	.LVL10:
 114 0000 10B5     		push	{r4, lr}
 115              		.cfi_def_cfa_offset 8
 116              		.cfi_offset 4, -8
 117              		.cfi_offset 14, -4
 118 0002 0446     		mov	r4, r0
  71:Generated_Source\PSoC5/ADCMux.c ****     ADCMux_Connect(channel);       /* Make the given selection */
 119              		.loc 1 71 0
 120 0004 FFF7FEFF 		bl	ADCMux_Start
 121              	.LVL11:
  72:Generated_Source\PSoC5/ADCMux.c ****     ADCMux_lastChannel = channel;  /* Update last channel */
 122              		.loc 1 72 0
 123 0008 2046     		mov	r0, r4
 124 000a FFF7FEFF 		bl	ADCMux_Connect
 125              	.LVL12:
  73:Generated_Source\PSoC5/ADCMux.c **** }
 126              		.loc 1 73 0
 127 000e 014B     		ldr	r3, .L11
 128 0010 1C70     		strb	r4, [r3]
 129 0012 10BD     		pop	{r4, pc}
 130              	.L12:
 131              		.align	2
 132              	.L11:
 133 0014 00000000 		.word	.LANCHOR0
 134              		.cfi_endproc
 135              	.LFE1:
 136              		.size	ADCMux_Select, .-ADCMux_Select
 137              		.section	.text.ADCMux_Disconnect,"ax",%progbits
 138              		.align	2
 139              		.global	ADCMux_Disconnect
 140              		.thumb
 141              		.thumb_func
 142              		.type	ADCMux_Disconnect, %function
 143              	ADCMux_Disconnect:
 144              	.LFB4:
 134:Generated_Source\PSoC5/ADCMux.c **** }
 135:Generated_Source\PSoC5/ADCMux.c **** #endif
ARM GAS  C:\Users\HENRYH~1\AppData\Local\Temp\ccOPLwMI.s 			page 6


 136:Generated_Source\PSoC5/ADCMux.c **** 
 137:Generated_Source\PSoC5/ADCMux.c **** /*******************************************************************************
 138:Generated_Source\PSoC5/ADCMux.c **** * Function Name: ADCMux_Disconnect
 139:Generated_Source\PSoC5/ADCMux.c **** ********************************************************************************
 140:Generated_Source\PSoC5/ADCMux.c **** * Summary:
 141:Generated_Source\PSoC5/ADCMux.c **** *  This function disconnects the given channel from the common or output
 142:Generated_Source\PSoC5/ADCMux.c **** *  terminal without affecting other connections.
 143:Generated_Source\PSoC5/ADCMux.c **** *
 144:Generated_Source\PSoC5/ADCMux.c **** * Parameters:
 145:Generated_Source\PSoC5/ADCMux.c **** *  channel:  The channel to disconnect from the common terminal.
 146:Generated_Source\PSoC5/ADCMux.c **** *
 147:Generated_Source\PSoC5/ADCMux.c **** * Return:
 148:Generated_Source\PSoC5/ADCMux.c **** *  void
 149:Generated_Source\PSoC5/ADCMux.c **** *
 150:Generated_Source\PSoC5/ADCMux.c **** *******************************************************************************/
 151:Generated_Source\PSoC5/ADCMux.c **** void ADCMux_Disconnect(uint8 channel) 
 152:Generated_Source\PSoC5/ADCMux.c **** {
 145              		.loc 1 152 0
 146              		.cfi_startproc
 147              		@ args = 0, pretend = 0, frame = 0
 148              		@ frame_needed = 0, uses_anonymous_args = 0
 149              	.LVL13:
 150 0000 10B5     		push	{r4, lr}
 151              		.cfi_def_cfa_offset 8
 152              		.cfi_offset 4, -8
 153              		.cfi_offset 14, -4
 154 0002 0446     		mov	r4, r0
 153:Generated_Source\PSoC5/ADCMux.c ****     ADCMux_CYAMUXSIDE_A_Unset(channel);
 155              		.loc 1 153 0
 156 0004 FFF7FEFF 		bl	ADCMux_CYAMUXSIDE_A_Unset
 157              	.LVL14:
 154:Generated_Source\PSoC5/ADCMux.c ****     ADCMux_CYAMUXSIDE_B_Unset(channel);
 158              		.loc 1 154 0
 159 0008 2046     		mov	r0, r4
 160 000a FFF7FEFF 		bl	ADCMux_CYAMUXSIDE_B_Unset
 161              	.LVL15:
 162 000e 10BD     		pop	{r4, pc}
 163              		.cfi_endproc
 164              	.LFE4:
 165              		.size	ADCMux_Disconnect, .-ADCMux_Disconnect
 166              		.section	.text.ADCMux_FastSelect,"ax",%progbits
 167              		.align	2
 168              		.global	ADCMux_FastSelect
 169              		.thumb
 170              		.thumb_func
 171              		.type	ADCMux_FastSelect, %function
 172              	ADCMux_FastSelect:
 173              	.LFB2:
  95:Generated_Source\PSoC5/ADCMux.c ****     /* Disconnect the last valid channel */
 174              		.loc 1 95 0
 175              		.cfi_startproc
 176              		@ args = 0, pretend = 0, frame = 0
 177              		@ frame_needed = 0, uses_anonymous_args = 0
 178              	.LVL16:
 179 0000 10B5     		push	{r4, lr}
 180              		.cfi_def_cfa_offset 8
 181              		.cfi_offset 4, -8
ARM GAS  C:\Users\HENRYH~1\AppData\Local\Temp\ccOPLwMI.s 			page 7


 182              		.cfi_offset 14, -4
 183 0002 0446     		mov	r4, r0
  97:Generated_Source\PSoC5/ADCMux.c ****     {
 184              		.loc 1 97 0
 185 0004 074B     		ldr	r3, .L18
 186 0006 1878     		ldrb	r0, [r3]	@ zero_extendqisi2
 187              	.LVL17:
 188 0008 FF28     		cmp	r0, #255
 189 000a 01D0     		beq	.L16
  99:Generated_Source\PSoC5/ADCMux.c ****     }
 190              		.loc 1 99 0
 191 000c FFF7FEFF 		bl	ADCMux_Disconnect
 192              	.LVL18:
 193              	.L16:
 106:Generated_Source\PSoC5/ADCMux.c ****     ADCMux_CYAMUXSIDE_B_Set(channel);
 194              		.loc 1 106 0
 195 0010 2046     		mov	r0, r4
 196 0012 FFF7FEFF 		bl	ADCMux_CYAMUXSIDE_A_Set
 197              	.LVL19:
 107:Generated_Source\PSoC5/ADCMux.c **** #endif
 198              		.loc 1 107 0
 199 0016 2046     		mov	r0, r4
 200 0018 FFF7FEFF 		bl	ADCMux_CYAMUXSIDE_B_Set
 201              	.LVL20:
 111:Generated_Source\PSoC5/ADCMux.c **** }
 202              		.loc 1 111 0
 203 001c 014B     		ldr	r3, .L18
 204 001e 1C70     		strb	r4, [r3]
 205 0020 10BD     		pop	{r4, pc}
 206              	.L19:
 207 0022 00BF     		.align	2
 208              	.L18:
 209 0024 00000000 		.word	.LANCHOR0
 210              		.cfi_endproc
 211              	.LFE2:
 212              		.size	ADCMux_FastSelect, .-ADCMux_FastSelect
 213              		.data
 214              		.set	.LANCHOR0,. + 0
 215              		.type	ADCMux_lastChannel, %object
 216              		.size	ADCMux_lastChannel, 1
 217              	ADCMux_lastChannel:
 218 0000 FF       		.byte	-1
 219              		.text
 220              	.Letext0:
 221              		.file 2 "Generated_Source\\PSoC5\\cyfitter_cfg.h"
 222              		.file 3 "Generated_Source\\PSoC5\\cytypes.h"