ARM GAS  C:\Users\HENRYH~1\AppData\Local\Temp\ccfkZ48N.s 			page 1


   1              		.syntax unified
   2              		.cpu cortex-m3
   3              		.fpu softvfp
   4              		.eabi_attribute 20, 1
   5              		.eabi_attribute 21, 1
   6              		.eabi_attribute 23, 3
   7              		.eabi_attribute 24, 1
   8              		.eabi_attribute 25, 1
   9              		.eabi_attribute 26, 1
  10              		.eabi_attribute 30, 1
  11              		.eabi_attribute 34, 1
  12              		.eabi_attribute 18, 4
  13              		.thumb
  14              		.syntax unified
  15              		.file	"IDAC.c"
  16              		.text
  17              	.Ltext0:
  18              		.cfi_sections	.debug_frame
  19              		.section	.text.IDAC_Enable,"ax",%progbits
  20              		.align	2
  21              		.global	IDAC_Enable
  22              		.thumb
  23              		.thumb_func
  24              		.type	IDAC_Enable, %function
  25              	IDAC_Enable:
  26              	.LFB1:
  27              		.file 1 "Generated_Source\\PSoC5\\IDAC.c"
   1:Generated_Source\PSoC5/IDAC.c **** /*******************************************************************************
   2:Generated_Source\PSoC5/IDAC.c **** * File Name: IDAC.c
   3:Generated_Source\PSoC5/IDAC.c **** * Version 2.0
   4:Generated_Source\PSoC5/IDAC.c **** *
   5:Generated_Source\PSoC5/IDAC.c **** * Description:
   6:Generated_Source\PSoC5/IDAC.c **** *  This file provides the source code to the API for the 8-bit Current 
   7:Generated_Source\PSoC5/IDAC.c **** *  DAC (IDAC8) User Module.
   8:Generated_Source\PSoC5/IDAC.c **** *
   9:Generated_Source\PSoC5/IDAC.c **** * Note:
  10:Generated_Source\PSoC5/IDAC.c **** *  None
  11:Generated_Source\PSoC5/IDAC.c **** *
  12:Generated_Source\PSoC5/IDAC.c **** ********************************************************************************
  13:Generated_Source\PSoC5/IDAC.c **** * Copyright 2008-2012, Cypress Semiconductor Corporation.  All rights reserved.
  14:Generated_Source\PSoC5/IDAC.c **** * You may use this file only in accordance with the license, terms, conditions, 
  15:Generated_Source\PSoC5/IDAC.c **** * disclaimers, and limitations in the end user license agreement accompanying 
  16:Generated_Source\PSoC5/IDAC.c **** * the software package with which this file was provided.
  17:Generated_Source\PSoC5/IDAC.c **** *******************************************************************************/
  18:Generated_Source\PSoC5/IDAC.c **** 
  19:Generated_Source\PSoC5/IDAC.c **** #include "cytypes.h"
  20:Generated_Source\PSoC5/IDAC.c **** #include "IDAC.h"   
  21:Generated_Source\PSoC5/IDAC.c **** 
  22:Generated_Source\PSoC5/IDAC.c **** #if (CY_PSOC5A)
  23:Generated_Source\PSoC5/IDAC.c ****     #include <CyLib.h>
  24:Generated_Source\PSoC5/IDAC.c **** #endif /* CY_PSOC5A */
  25:Generated_Source\PSoC5/IDAC.c **** 
  26:Generated_Source\PSoC5/IDAC.c **** 
  27:Generated_Source\PSoC5/IDAC.c **** uint8 IDAC_initVar = 0u;
  28:Generated_Source\PSoC5/IDAC.c **** 
  29:Generated_Source\PSoC5/IDAC.c **** 
  30:Generated_Source\PSoC5/IDAC.c **** #if (CY_PSOC5A)
ARM GAS  C:\Users\HENRYH~1\AppData\Local\Temp\ccfkZ48N.s 			page 2


  31:Generated_Source\PSoC5/IDAC.c ****     static IDAC_LOWPOWER_BACKUP_STRUCT  IDAC_lowPowerBackup;
  32:Generated_Source\PSoC5/IDAC.c **** #endif /* CY_PSOC5A */
  33:Generated_Source\PSoC5/IDAC.c **** 
  34:Generated_Source\PSoC5/IDAC.c **** /* Variable to decide whether or not to restore control register in Enable()
  35:Generated_Source\PSoC5/IDAC.c ****    API. This valid only for PSoC5A */
  36:Generated_Source\PSoC5/IDAC.c **** #if (CY_PSOC5A)
  37:Generated_Source\PSoC5/IDAC.c ****     static uint8 IDAC_restoreReg = 0u;
  38:Generated_Source\PSoC5/IDAC.c **** #endif /* CY_PSOC5A */
  39:Generated_Source\PSoC5/IDAC.c **** 
  40:Generated_Source\PSoC5/IDAC.c **** 
  41:Generated_Source\PSoC5/IDAC.c **** /*******************************************************************************
  42:Generated_Source\PSoC5/IDAC.c **** * Function Name: IDAC_Init
  43:Generated_Source\PSoC5/IDAC.c **** ********************************************************************************
  44:Generated_Source\PSoC5/IDAC.c **** * Summary:
  45:Generated_Source\PSoC5/IDAC.c **** *  Initialize to the schematic state.
  46:Generated_Source\PSoC5/IDAC.c **** * 
  47:Generated_Source\PSoC5/IDAC.c **** * Parameters:
  48:Generated_Source\PSoC5/IDAC.c **** *  void:
  49:Generated_Source\PSoC5/IDAC.c **** *
  50:Generated_Source\PSoC5/IDAC.c **** * Return:
  51:Generated_Source\PSoC5/IDAC.c **** *  (void)
  52:Generated_Source\PSoC5/IDAC.c **** *
  53:Generated_Source\PSoC5/IDAC.c **** * Theory:
  54:Generated_Source\PSoC5/IDAC.c **** *
  55:Generated_Source\PSoC5/IDAC.c **** * Side Effects:
  56:Generated_Source\PSoC5/IDAC.c **** *
  57:Generated_Source\PSoC5/IDAC.c **** *******************************************************************************/
  58:Generated_Source\PSoC5/IDAC.c **** void IDAC_Init(void) 
  59:Generated_Source\PSoC5/IDAC.c **** {
  60:Generated_Source\PSoC5/IDAC.c ****     IDAC_CR0 = (IDAC_MODE_I | IDAC_DEFAULT_RANGE );
  61:Generated_Source\PSoC5/IDAC.c **** 
  62:Generated_Source\PSoC5/IDAC.c ****     /* Set default data source */
  63:Generated_Source\PSoC5/IDAC.c ****     #if(IDAC_DEFAULT_DATA_SRC != 0u )    
  64:Generated_Source\PSoC5/IDAC.c ****         IDAC_CR1 = (IDAC_DEFAULT_CNTL | IDAC_DACBUS_ENABLE);
  65:Generated_Source\PSoC5/IDAC.c ****     #else
  66:Generated_Source\PSoC5/IDAC.c ****         IDAC_CR1 = (IDAC_DEFAULT_CNTL | IDAC_DACBUS_DISABLE);
  67:Generated_Source\PSoC5/IDAC.c ****     #endif /* (IDAC_DEFAULT_DATA_SRC != 0u ) */
  68:Generated_Source\PSoC5/IDAC.c ****     
  69:Generated_Source\PSoC5/IDAC.c ****     /*Controls polarity from UDB Control*/
  70:Generated_Source\PSoC5/IDAC.c ****     #if(IDAC_DEFAULT_POLARITY == IDAC_HARDWARE_CONTROLLED)
  71:Generated_Source\PSoC5/IDAC.c ****         IDAC_CR1 |= IDAC_IDIR_SRC_UDB;
  72:Generated_Source\PSoC5/IDAC.c ****     #else
  73:Generated_Source\PSoC5/IDAC.c ****         IDAC_CR1 |= IDAC_DEFAULT_POLARITY;
  74:Generated_Source\PSoC5/IDAC.c ****     #endif/* (IDAC_DEFAULT_POLARITY == IDAC_HARDWARE_CONTROLLED) */
  75:Generated_Source\PSoC5/IDAC.c ****     /*Controls Current Source from UDB Control*/
  76:Generated_Source\PSoC5/IDAC.c ****     #if(IDAC_HARDWARE_ENABLE != 0u ) 
  77:Generated_Source\PSoC5/IDAC.c ****         IDAC_CR1 |= IDAC_IDIR_CTL_UDB;
  78:Generated_Source\PSoC5/IDAC.c ****     #endif /* (IDAC_HARDWARE_ENABLE != 0u ) */ 
  79:Generated_Source\PSoC5/IDAC.c ****     
  80:Generated_Source\PSoC5/IDAC.c ****     /* Set default strobe mode */
  81:Generated_Source\PSoC5/IDAC.c ****     #if(IDAC_DEFAULT_STRB != 0u)
  82:Generated_Source\PSoC5/IDAC.c ****         IDAC_Strobe |= IDAC_STRB_EN;
  83:Generated_Source\PSoC5/IDAC.c ****     #endif /* (IDAC_DEFAULT_STRB != 0u) */
  84:Generated_Source\PSoC5/IDAC.c ****     
  85:Generated_Source\PSoC5/IDAC.c ****     /* Set default speed */
  86:Generated_Source\PSoC5/IDAC.c ****     IDAC_SetSpeed(IDAC_DEFAULT_SPEED);
  87:Generated_Source\PSoC5/IDAC.c ****     
ARM GAS  C:\Users\HENRYH~1\AppData\Local\Temp\ccfkZ48N.s 			page 3


  88:Generated_Source\PSoC5/IDAC.c ****     /* Set proper DAC trim */
  89:Generated_Source\PSoC5/IDAC.c ****     IDAC_DacTrim();
  90:Generated_Source\PSoC5/IDAC.c ****     
  91:Generated_Source\PSoC5/IDAC.c **** }
  92:Generated_Source\PSoC5/IDAC.c **** 
  93:Generated_Source\PSoC5/IDAC.c **** 
  94:Generated_Source\PSoC5/IDAC.c **** /*******************************************************************************
  95:Generated_Source\PSoC5/IDAC.c **** * Function Name: IDAC_Enable
  96:Generated_Source\PSoC5/IDAC.c **** ********************************************************************************
  97:Generated_Source\PSoC5/IDAC.c **** * Summary:
  98:Generated_Source\PSoC5/IDAC.c **** *  Enable the IDAC8
  99:Generated_Source\PSoC5/IDAC.c **** * 
 100:Generated_Source\PSoC5/IDAC.c **** * Parameters:
 101:Generated_Source\PSoC5/IDAC.c **** *  void:
 102:Generated_Source\PSoC5/IDAC.c **** *
 103:Generated_Source\PSoC5/IDAC.c **** * Return:
 104:Generated_Source\PSoC5/IDAC.c **** *  (void)
 105:Generated_Source\PSoC5/IDAC.c **** *
 106:Generated_Source\PSoC5/IDAC.c **** * Theory:
 107:Generated_Source\PSoC5/IDAC.c **** *
 108:Generated_Source\PSoC5/IDAC.c **** * Side Effects:
 109:Generated_Source\PSoC5/IDAC.c **** *
 110:Generated_Source\PSoC5/IDAC.c **** *******************************************************************************/
 111:Generated_Source\PSoC5/IDAC.c **** void IDAC_Enable(void) 
 112:Generated_Source\PSoC5/IDAC.c **** {
  28              		.loc 1 112 0
  29              		.cfi_startproc
  30              		@ args = 0, pretend = 0, frame = 0
  31              		@ frame_needed = 0, uses_anonymous_args = 0
  32              		@ link register save eliminated.
 113:Generated_Source\PSoC5/IDAC.c ****     IDAC_PWRMGR |= IDAC_ACT_PWR_EN;
  33              		.loc 1 113 0
  34 0000 054A     		ldr	r2, .L2
  35 0002 1378     		ldrb	r3, [r2]	@ zero_extendqisi2
  36 0004 43F00103 		orr	r3, r3, #1
  37 0008 1370     		strb	r3, [r2]
 114:Generated_Source\PSoC5/IDAC.c ****     IDAC_STBY_PWRMGR |= IDAC_STBY_PWR_EN;
  38              		.loc 1 114 0
  39 000a 1032     		adds	r2, r2, #16
  40 000c 1378     		ldrb	r3, [r2]	@ zero_extendqisi2
  41 000e 43F00103 		orr	r3, r3, #1
  42 0012 1370     		strb	r3, [r2]
  43 0014 7047     		bx	lr
  44              	.L3:
  45 0016 00BF     		.align	2
  46              	.L2:
  47 0018 A8430040 		.word	1073759144
  48              		.cfi_endproc
  49              	.LFE1:
  50              		.size	IDAC_Enable, .-IDAC_Enable
  51              		.section	.text.IDAC_Stop,"ax",%progbits
  52              		.align	2
  53              		.global	IDAC_Stop
  54              		.thumb
  55              		.thumb_func
  56              		.type	IDAC_Stop, %function
  57              	IDAC_Stop:
ARM GAS  C:\Users\HENRYH~1\AppData\Local\Temp\ccfkZ48N.s 			page 4


  58              	.LFB3:
 115:Generated_Source\PSoC5/IDAC.c **** 
 116:Generated_Source\PSoC5/IDAC.c ****     /* This is to restore the value of register CR0 which is saved 
 117:Generated_Source\PSoC5/IDAC.c ****       in prior to the modification in stop() API */
 118:Generated_Source\PSoC5/IDAC.c ****     #if (CY_PSOC5A)
 119:Generated_Source\PSoC5/IDAC.c ****         if(IDAC_restoreReg == 1u)
 120:Generated_Source\PSoC5/IDAC.c ****         {
 121:Generated_Source\PSoC5/IDAC.c ****             IDAC_CR0 = IDAC_lowPowerBackup.DACCR0Reg;
 122:Generated_Source\PSoC5/IDAC.c **** 
 123:Generated_Source\PSoC5/IDAC.c ****             /* Clear the flag */
 124:Generated_Source\PSoC5/IDAC.c ****             IDAC_restoreReg = 0u;
 125:Generated_Source\PSoC5/IDAC.c ****         }
 126:Generated_Source\PSoC5/IDAC.c ****     #endif /* CY_PSOC5A */
 127:Generated_Source\PSoC5/IDAC.c **** }
 128:Generated_Source\PSoC5/IDAC.c **** 
 129:Generated_Source\PSoC5/IDAC.c **** 
 130:Generated_Source\PSoC5/IDAC.c **** /*******************************************************************************
 131:Generated_Source\PSoC5/IDAC.c **** * Function Name: IDAC_Start
 132:Generated_Source\PSoC5/IDAC.c **** ********************************************************************************
 133:Generated_Source\PSoC5/IDAC.c **** * Summary:
 134:Generated_Source\PSoC5/IDAC.c **** *  Set power level then turn on IDAC8.
 135:Generated_Source\PSoC5/IDAC.c **** *
 136:Generated_Source\PSoC5/IDAC.c **** * Parameters:  
 137:Generated_Source\PSoC5/IDAC.c **** *  power: Sets power level between off (0) and (3) high power
 138:Generated_Source\PSoC5/IDAC.c **** *
 139:Generated_Source\PSoC5/IDAC.c **** * Return:
 140:Generated_Source\PSoC5/IDAC.c **** *  (void)
 141:Generated_Source\PSoC5/IDAC.c **** *
 142:Generated_Source\PSoC5/IDAC.c **** * Global variables:
 143:Generated_Source\PSoC5/IDAC.c **** *  IDAC_initVar: Is modified when this function is called for 
 144:Generated_Source\PSoC5/IDAC.c **** *   the first time. Is used to ensure that initialization happens only once.
 145:Generated_Source\PSoC5/IDAC.c **** *
 146:Generated_Source\PSoC5/IDAC.c **** *******************************************************************************/
 147:Generated_Source\PSoC5/IDAC.c **** void IDAC_Start(void) 
 148:Generated_Source\PSoC5/IDAC.c **** {
 149:Generated_Source\PSoC5/IDAC.c ****     /* Hardware initiazation only needs to occur the first time */
 150:Generated_Source\PSoC5/IDAC.c ****     if ( IDAC_initVar == 0u)  
 151:Generated_Source\PSoC5/IDAC.c ****     {
 152:Generated_Source\PSoC5/IDAC.c ****         IDAC_Init();
 153:Generated_Source\PSoC5/IDAC.c ****         
 154:Generated_Source\PSoC5/IDAC.c ****         IDAC_initVar = 1u;
 155:Generated_Source\PSoC5/IDAC.c ****     }
 156:Generated_Source\PSoC5/IDAC.c ****    
 157:Generated_Source\PSoC5/IDAC.c ****     /* Enable power to DAC */
 158:Generated_Source\PSoC5/IDAC.c ****     IDAC_Enable();
 159:Generated_Source\PSoC5/IDAC.c **** 
 160:Generated_Source\PSoC5/IDAC.c ****     /* Set default value */
 161:Generated_Source\PSoC5/IDAC.c ****     IDAC_SetValue(IDAC_DEFAULT_DATA);
 162:Generated_Source\PSoC5/IDAC.c **** 
 163:Generated_Source\PSoC5/IDAC.c **** }
 164:Generated_Source\PSoC5/IDAC.c **** 
 165:Generated_Source\PSoC5/IDAC.c **** 
 166:Generated_Source\PSoC5/IDAC.c **** /*******************************************************************************
 167:Generated_Source\PSoC5/IDAC.c **** * Function Name: IDAC_Stop
 168:Generated_Source\PSoC5/IDAC.c **** ********************************************************************************
 169:Generated_Source\PSoC5/IDAC.c **** * Summary:
 170:Generated_Source\PSoC5/IDAC.c **** *  Powers down IDAC8 to lowest power state.
ARM GAS  C:\Users\HENRYH~1\AppData\Local\Temp\ccfkZ48N.s 			page 5


 171:Generated_Source\PSoC5/IDAC.c **** *
 172:Generated_Source\PSoC5/IDAC.c **** * Parameters:
 173:Generated_Source\PSoC5/IDAC.c **** *  (void)
 174:Generated_Source\PSoC5/IDAC.c **** *
 175:Generated_Source\PSoC5/IDAC.c **** * Return:
 176:Generated_Source\PSoC5/IDAC.c **** *  (void)
 177:Generated_Source\PSoC5/IDAC.c **** *
 178:Generated_Source\PSoC5/IDAC.c **** * Theory:
 179:Generated_Source\PSoC5/IDAC.c **** *
 180:Generated_Source\PSoC5/IDAC.c **** * Side Effects:
 181:Generated_Source\PSoC5/IDAC.c **** *
 182:Generated_Source\PSoC5/IDAC.c **** *******************************************************************************/
 183:Generated_Source\PSoC5/IDAC.c **** void IDAC_Stop(void) 
 184:Generated_Source\PSoC5/IDAC.c **** {
  59              		.loc 1 184 0
  60              		.cfi_startproc
  61              		@ args = 0, pretend = 0, frame = 0
  62              		@ frame_needed = 0, uses_anonymous_args = 0
  63              		@ link register save eliminated.
 185:Generated_Source\PSoC5/IDAC.c ****     /* Disble power to DAC */
 186:Generated_Source\PSoC5/IDAC.c ****     IDAC_PWRMGR &= (uint8)(~IDAC_ACT_PWR_EN);
  64              		.loc 1 186 0
  65 0000 054A     		ldr	r2, .L5
  66 0002 1378     		ldrb	r3, [r2]	@ zero_extendqisi2
  67 0004 03F0FE03 		and	r3, r3, #254
  68 0008 1370     		strb	r3, [r2]
 187:Generated_Source\PSoC5/IDAC.c ****     IDAC_STBY_PWRMGR &= (uint8)(~IDAC_STBY_PWR_EN);
  69              		.loc 1 187 0
  70 000a 1032     		adds	r2, r2, #16
  71 000c 1378     		ldrb	r3, [r2]	@ zero_extendqisi2
  72 000e 03F0FE03 		and	r3, r3, #254
  73 0012 1370     		strb	r3, [r2]
  74 0014 7047     		bx	lr
  75              	.L6:
  76 0016 00BF     		.align	2
  77              	.L5:
  78 0018 A8430040 		.word	1073759144
  79              		.cfi_endproc
  80              	.LFE3:
  81              		.size	IDAC_Stop, .-IDAC_Stop
  82              		.section	.text.IDAC_SetSpeed,"ax",%progbits
  83              		.align	2
  84              		.global	IDAC_SetSpeed
  85              		.thumb
  86              		.thumb_func
  87              		.type	IDAC_SetSpeed, %function
  88              	IDAC_SetSpeed:
  89              	.LFB4:
 188:Generated_Source\PSoC5/IDAC.c ****     
 189:Generated_Source\PSoC5/IDAC.c ****     #if (CY_PSOC5A)
 190:Generated_Source\PSoC5/IDAC.c ****     
 191:Generated_Source\PSoC5/IDAC.c ****         /* Set the global variable  */
 192:Generated_Source\PSoC5/IDAC.c ****         IDAC_restoreReg = 1u;
 193:Generated_Source\PSoC5/IDAC.c **** 
 194:Generated_Source\PSoC5/IDAC.c ****         /* Save the control register and then Clear it. */
 195:Generated_Source\PSoC5/IDAC.c ****         IDAC_lowPowerBackup.DACCR0Reg = IDAC_CR0;
 196:Generated_Source\PSoC5/IDAC.c ****         IDAC_CR0 = (IDAC_MODE_I | IDAC_RANGE_3 | IDAC_HS_HIGHSPEED);
ARM GAS  C:\Users\HENRYH~1\AppData\Local\Temp\ccfkZ48N.s 			page 6


 197:Generated_Source\PSoC5/IDAC.c ****     #endif /* CY_PSOC5A */
 198:Generated_Source\PSoC5/IDAC.c **** }
 199:Generated_Source\PSoC5/IDAC.c **** 
 200:Generated_Source\PSoC5/IDAC.c **** 
 201:Generated_Source\PSoC5/IDAC.c **** /*******************************************************************************
 202:Generated_Source\PSoC5/IDAC.c **** * Function Name: IDAC_SetSpeed
 203:Generated_Source\PSoC5/IDAC.c **** ********************************************************************************
 204:Generated_Source\PSoC5/IDAC.c **** * Summary:
 205:Generated_Source\PSoC5/IDAC.c **** *  Set DAC speed
 206:Generated_Source\PSoC5/IDAC.c **** *
 207:Generated_Source\PSoC5/IDAC.c **** * Parameters:
 208:Generated_Source\PSoC5/IDAC.c **** *  power: Sets speed value
 209:Generated_Source\PSoC5/IDAC.c **** *
 210:Generated_Source\PSoC5/IDAC.c **** * Return:
 211:Generated_Source\PSoC5/IDAC.c **** *  (void)
 212:Generated_Source\PSoC5/IDAC.c **** *
 213:Generated_Source\PSoC5/IDAC.c **** * Theory:
 214:Generated_Source\PSoC5/IDAC.c **** *
 215:Generated_Source\PSoC5/IDAC.c **** * Side Effects:
 216:Generated_Source\PSoC5/IDAC.c **** *
 217:Generated_Source\PSoC5/IDAC.c **** *******************************************************************************/
 218:Generated_Source\PSoC5/IDAC.c **** void IDAC_SetSpeed(uint8 speed) 
 219:Generated_Source\PSoC5/IDAC.c **** {
  90              		.loc 1 219 0
  91              		.cfi_startproc
  92              		@ args = 0, pretend = 0, frame = 0
  93              		@ frame_needed = 0, uses_anonymous_args = 0
  94              		@ link register save eliminated.
  95              	.LVL0:
 220:Generated_Source\PSoC5/IDAC.c ****     /* Clear power mask then write in new value */
 221:Generated_Source\PSoC5/IDAC.c ****     IDAC_CR0 &= (uint8)(~IDAC_HS_MASK);
  96              		.loc 1 221 0
  97 0000 054B     		ldr	r3, .L8
  98 0002 1A78     		ldrb	r2, [r3]	@ zero_extendqisi2
  99 0004 02F0FD02 		and	r2, r2, #253
 100 0008 1A70     		strb	r2, [r3]
 222:Generated_Source\PSoC5/IDAC.c ****     IDAC_CR0 |=  ( speed & IDAC_HS_MASK);
 101              		.loc 1 222 0
 102 000a 1A78     		ldrb	r2, [r3]	@ zero_extendqisi2
 103 000c 00F00200 		and	r0, r0, #2
 104              	.LVL1:
 105 0010 1043     		orrs	r0, r0, r2
 106 0012 1870     		strb	r0, [r3]
 107 0014 7047     		bx	lr
 108              	.L9:
 109 0016 00BF     		.align	2
 110              	.L8:
 111 0018 20580040 		.word	1073764384
 112              		.cfi_endproc
 113              	.LFE4:
 114              		.size	IDAC_SetSpeed, .-IDAC_SetSpeed
 115              		.section	.text.IDAC_SetValue,"ax",%progbits
 116              		.align	2
 117              		.global	IDAC_SetValue
 118              		.thumb
 119              		.thumb_func
 120              		.type	IDAC_SetValue, %function
ARM GAS  C:\Users\HENRYH~1\AppData\Local\Temp\ccfkZ48N.s 			page 7


 121              	IDAC_SetValue:
 122              	.LFB7:
 223:Generated_Source\PSoC5/IDAC.c **** }
 224:Generated_Source\PSoC5/IDAC.c **** 
 225:Generated_Source\PSoC5/IDAC.c **** 
 226:Generated_Source\PSoC5/IDAC.c **** /*******************************************************************************
 227:Generated_Source\PSoC5/IDAC.c **** * Function Name: IDAC_SetPolarity
 228:Generated_Source\PSoC5/IDAC.c **** ********************************************************************************
 229:Generated_Source\PSoC5/IDAC.c **** * Summary:
 230:Generated_Source\PSoC5/IDAC.c **** *  Sets IDAC to Sink or Source current.
 231:Generated_Source\PSoC5/IDAC.c **** *  
 232:Generated_Source\PSoC5/IDAC.c **** * Parameters:
 233:Generated_Source\PSoC5/IDAC.c **** *  Polarity: Sets the IDAC to Sink or Source 
 234:Generated_Source\PSoC5/IDAC.c **** *  0x00 - Source
 235:Generated_Source\PSoC5/IDAC.c **** *  0x04 - Sink
 236:Generated_Source\PSoC5/IDAC.c **** *
 237:Generated_Source\PSoC5/IDAC.c **** * Return:
 238:Generated_Source\PSoC5/IDAC.c **** *  (void)
 239:Generated_Source\PSoC5/IDAC.c **** *
 240:Generated_Source\PSoC5/IDAC.c **** * Theory:
 241:Generated_Source\PSoC5/IDAC.c **** *
 242:Generated_Source\PSoC5/IDAC.c **** * Side Effects:
 243:Generated_Source\PSoC5/IDAC.c **** *
 244:Generated_Source\PSoC5/IDAC.c **** *******************************************************************************/
 245:Generated_Source\PSoC5/IDAC.c **** #if(IDAC_DEFAULT_POLARITY != IDAC_HARDWARE_CONTROLLED)
 246:Generated_Source\PSoC5/IDAC.c ****     void IDAC_SetPolarity(uint8 polarity) 
 247:Generated_Source\PSoC5/IDAC.c ****     {
 248:Generated_Source\PSoC5/IDAC.c ****         IDAC_CR1 &= (uint8)(~IDAC_IDIR_MASK);                /* clear polarity bit */
 249:Generated_Source\PSoC5/IDAC.c ****         IDAC_CR1 |= (polarity & IDAC_IDIR_MASK);             /* set new value */
 250:Generated_Source\PSoC5/IDAC.c ****     
 251:Generated_Source\PSoC5/IDAC.c ****         IDAC_DacTrim();
 252:Generated_Source\PSoC5/IDAC.c ****     }
 253:Generated_Source\PSoC5/IDAC.c **** #endif/*(IDAC_DEFAULT_POLARITY != IDAC_HARDWARE_CONTROLLED)*/
 254:Generated_Source\PSoC5/IDAC.c **** 
 255:Generated_Source\PSoC5/IDAC.c **** 
 256:Generated_Source\PSoC5/IDAC.c **** /*******************************************************************************
 257:Generated_Source\PSoC5/IDAC.c **** * Function Name: IDAC_SetRange
 258:Generated_Source\PSoC5/IDAC.c **** ********************************************************************************
 259:Generated_Source\PSoC5/IDAC.c **** * Summary:
 260:Generated_Source\PSoC5/IDAC.c **** *  Set current range
 261:Generated_Source\PSoC5/IDAC.c **** *
 262:Generated_Source\PSoC5/IDAC.c **** * Parameters:
 263:Generated_Source\PSoC5/IDAC.c **** *  Range: Sets on of four valid ranges.
 264:Generated_Source\PSoC5/IDAC.c **** *
 265:Generated_Source\PSoC5/IDAC.c **** * Return:
 266:Generated_Source\PSoC5/IDAC.c **** *  (void)
 267:Generated_Source\PSoC5/IDAC.c **** *
 268:Generated_Source\PSoC5/IDAC.c **** * Theory:
 269:Generated_Source\PSoC5/IDAC.c **** *
 270:Generated_Source\PSoC5/IDAC.c **** * Side Effects:
 271:Generated_Source\PSoC5/IDAC.c **** *
 272:Generated_Source\PSoC5/IDAC.c **** *******************************************************************************/
 273:Generated_Source\PSoC5/IDAC.c **** void IDAC_SetRange(uint8 range) 
 274:Generated_Source\PSoC5/IDAC.c **** {
 275:Generated_Source\PSoC5/IDAC.c ****     IDAC_CR0 &= (uint8)(~IDAC_RANGE_MASK);       /* Clear existing mode */
 276:Generated_Source\PSoC5/IDAC.c ****     IDAC_CR0 |= ( range & IDAC_RANGE_MASK );     /*  Set Range  */
 277:Generated_Source\PSoC5/IDAC.c ****     IDAC_DacTrim();
ARM GAS  C:\Users\HENRYH~1\AppData\Local\Temp\ccfkZ48N.s 			page 8


 278:Generated_Source\PSoC5/IDAC.c **** }
 279:Generated_Source\PSoC5/IDAC.c **** 
 280:Generated_Source\PSoC5/IDAC.c **** 
 281:Generated_Source\PSoC5/IDAC.c **** /*******************************************************************************
 282:Generated_Source\PSoC5/IDAC.c **** * Function Name: IDAC_SetValue
 283:Generated_Source\PSoC5/IDAC.c **** ********************************************************************************
 284:Generated_Source\PSoC5/IDAC.c **** * Summary:
 285:Generated_Source\PSoC5/IDAC.c **** *  Set DAC value
 286:Generated_Source\PSoC5/IDAC.c **** *
 287:Generated_Source\PSoC5/IDAC.c **** * Parameters:
 288:Generated_Source\PSoC5/IDAC.c **** *  value: Sets DAC value between 0 and 255.
 289:Generated_Source\PSoC5/IDAC.c **** *
 290:Generated_Source\PSoC5/IDAC.c **** * Return:
 291:Generated_Source\PSoC5/IDAC.c **** *  (void)
 292:Generated_Source\PSoC5/IDAC.c **** *
 293:Generated_Source\PSoC5/IDAC.c **** * Theory:
 294:Generated_Source\PSoC5/IDAC.c **** *
 295:Generated_Source\PSoC5/IDAC.c **** * Side Effects:
 296:Generated_Source\PSoC5/IDAC.c **** *
 297:Generated_Source\PSoC5/IDAC.c **** *******************************************************************************/
 298:Generated_Source\PSoC5/IDAC.c **** void IDAC_SetValue(uint8 value) 
 299:Generated_Source\PSoC5/IDAC.c **** {
 123              		.loc 1 299 0
 124              		.cfi_startproc
 125              		@ args = 0, pretend = 0, frame = 0
 126              		@ frame_needed = 0, uses_anonymous_args = 0
 127              		@ link register save eliminated.
 128              	.LVL2:
 300:Generated_Source\PSoC5/IDAC.c **** 
 301:Generated_Source\PSoC5/IDAC.c ****     #if (CY_PSOC5A)
 302:Generated_Source\PSoC5/IDAC.c ****         uint8 IDAC_intrStatus = CyEnterCriticalSection();
 303:Generated_Source\PSoC5/IDAC.c ****     #endif /* CY_PSOC5A */
 304:Generated_Source\PSoC5/IDAC.c **** 
 305:Generated_Source\PSoC5/IDAC.c ****     IDAC_Data = value;         /*  Set Value  */
 129              		.loc 1 305 0
 130 0000 014B     		ldr	r3, .L11
 131 0002 1870     		strb	r0, [r3]
 132 0004 7047     		bx	lr
 133              	.L12:
 134 0006 00BF     		.align	2
 135              	.L11:
 136 0008 805B0040 		.word	1073765248
 137              		.cfi_endproc
 138              	.LFE7:
 139              		.size	IDAC_SetValue, .-IDAC_SetValue
 140              		.section	.text.IDAC_DacTrim,"ax",%progbits
 141              		.align	2
 142              		.global	IDAC_DacTrim
 143              		.thumb
 144              		.thumb_func
 145              		.type	IDAC_DacTrim, %function
 146              	IDAC_DacTrim:
 147              	.LFB8:
 306:Generated_Source\PSoC5/IDAC.c ****     
 307:Generated_Source\PSoC5/IDAC.c ****     /* PSOC5A silicons require a double write */
 308:Generated_Source\PSoC5/IDAC.c ****     #if (CY_PSOC5A)
 309:Generated_Source\PSoC5/IDAC.c ****         IDAC_Data = value;
ARM GAS  C:\Users\HENRYH~1\AppData\Local\Temp\ccfkZ48N.s 			page 9


 310:Generated_Source\PSoC5/IDAC.c ****         CyExitCriticalSection(IDAC_intrStatus);
 311:Generated_Source\PSoC5/IDAC.c ****     #endif /* CY_PSOC5A */
 312:Generated_Source\PSoC5/IDAC.c **** }
 313:Generated_Source\PSoC5/IDAC.c **** 
 314:Generated_Source\PSoC5/IDAC.c **** 
 315:Generated_Source\PSoC5/IDAC.c **** /*******************************************************************************
 316:Generated_Source\PSoC5/IDAC.c **** * Function Name: IDAC_DacTrim
 317:Generated_Source\PSoC5/IDAC.c **** ********************************************************************************
 318:Generated_Source\PSoC5/IDAC.c **** * Summary:
 319:Generated_Source\PSoC5/IDAC.c **** *  Set the trim value for the given range.
 320:Generated_Source\PSoC5/IDAC.c **** *
 321:Generated_Source\PSoC5/IDAC.c **** * Parameters:
 322:Generated_Source\PSoC5/IDAC.c **** *  None
 323:Generated_Source\PSoC5/IDAC.c **** *
 324:Generated_Source\PSoC5/IDAC.c **** * Return:
 325:Generated_Source\PSoC5/IDAC.c **** *  (void) 
 326:Generated_Source\PSoC5/IDAC.c **** *
 327:Generated_Source\PSoC5/IDAC.c **** * Theory:
 328:Generated_Source\PSoC5/IDAC.c **** *  Trim values for the IDAC blocks are stored in the "Customer Table" area in 
 329:Generated_Source\PSoC5/IDAC.c **** *  Row 1 of the Hidden Flash.  There are 8 bytes of trim data for each 
 330:Generated_Source\PSoC5/IDAC.c **** *  IDAC block.
 331:Generated_Source\PSoC5/IDAC.c **** *  The values are:
 332:Generated_Source\PSoC5/IDAC.c **** *       I Gain offset, min range, Sourcing
 333:Generated_Source\PSoC5/IDAC.c **** *       I Gain offset, min range, Sinking
 334:Generated_Source\PSoC5/IDAC.c **** *       I Gain offset, med range, Sourcing
 335:Generated_Source\PSoC5/IDAC.c **** *       I Gain offset, med range, Sinking
 336:Generated_Source\PSoC5/IDAC.c **** *       I Gain offset, max range, Sourcing
 337:Generated_Source\PSoC5/IDAC.c **** *       I Gain offset, max range, Sinking
 338:Generated_Source\PSoC5/IDAC.c **** *       V Gain offset, 1V range
 339:Generated_Source\PSoC5/IDAC.c **** *       V Gain offset, 4V range
 340:Generated_Source\PSoC5/IDAC.c **** *
 341:Generated_Source\PSoC5/IDAC.c **** * Side Effects:
 342:Generated_Source\PSoC5/IDAC.c **** *
 343:Generated_Source\PSoC5/IDAC.c **** *******************************************************************************/
 344:Generated_Source\PSoC5/IDAC.c **** void IDAC_DacTrim(void) 
 345:Generated_Source\PSoC5/IDAC.c **** {
 148              		.loc 1 345 0
 149              		.cfi_startproc
 150              		@ args = 0, pretend = 0, frame = 0
 151              		@ frame_needed = 0, uses_anonymous_args = 0
 152              		@ link register save eliminated.
 346:Generated_Source\PSoC5/IDAC.c ****     uint8 mode;
 347:Generated_Source\PSoC5/IDAC.c **** 
 348:Generated_Source\PSoC5/IDAC.c ****     mode = ((IDAC_CR0 & IDAC_RANGE_MASK) >> 1u);
 153              		.loc 1 348 0
 154 0000 094B     		ldr	r3, .L15
 155 0002 1B78     		ldrb	r3, [r3]	@ zero_extendqisi2
 156 0004 03F00C03 		and	r3, r3, #12
 157 0008 5B08     		lsrs	r3, r3, #1
 158              	.LVL3:
 349:Generated_Source\PSoC5/IDAC.c ****     
 350:Generated_Source\PSoC5/IDAC.c ****     if((IDAC_IDIR_MASK & IDAC_CR1) == IDAC_IDIR_SINK)
 159              		.loc 1 350 0
 160 000a 084A     		ldr	r2, .L15+4
 161 000c 1278     		ldrb	r2, [r2]	@ zero_extendqisi2
 162 000e 12F0040F 		tst	r2, #4
 163 0012 00D0     		beq	.L14
ARM GAS  C:\Users\HENRYH~1\AppData\Local\Temp\ccfkZ48N.s 			page 10


 351:Generated_Source\PSoC5/IDAC.c ****     {
 352:Generated_Source\PSoC5/IDAC.c ****         mode++;
 164              		.loc 1 352 0
 165 0014 0133     		adds	r3, r3, #1
 166              	.LVL4:
 167              	.L14:
 353:Generated_Source\PSoC5/IDAC.c ****     }
 354:Generated_Source\PSoC5/IDAC.c **** 
 355:Generated_Source\PSoC5/IDAC.c ****     IDAC_TR = CY_GET_XTND_REG8((uint8 *)(IDAC_DAC_TRIM_BASE + mode));
 168              		.loc 1 355 0
 169 0016 03F19243 		add	r3, r3, #1224736768
 170              	.LVL5:
 171 001a 93F82031 		ldrb	r3, [r3, #288]	@ zero_extendqisi2
 172 001e DBB2     		uxtb	r3, r3
 173 0020 034A     		ldr	r2, .L15+8
 174 0022 1370     		strb	r3, [r2]
 175 0024 7047     		bx	lr
 176              	.L16:
 177 0026 00BF     		.align	2
 178              	.L15:
 179 0028 20580040 		.word	1073764384
 180 002c 21580040 		.word	1073764385
 181 0030 08460040 		.word	1073759752
 182              		.cfi_endproc
 183              	.LFE8:
 184              		.size	IDAC_DacTrim, .-IDAC_DacTrim
 185              		.section	.text.IDAC_Init,"ax",%progbits
 186              		.align	2
 187              		.global	IDAC_Init
 188              		.thumb
 189              		.thumb_func
 190              		.type	IDAC_Init, %function
 191              	IDAC_Init:
 192              	.LFB0:
  59:Generated_Source\PSoC5/IDAC.c ****     IDAC_CR0 = (IDAC_MODE_I | IDAC_DEFAULT_RANGE );
 193              		.loc 1 59 0
 194              		.cfi_startproc
 195              		@ args = 0, pretend = 0, frame = 0
 196              		@ frame_needed = 0, uses_anonymous_args = 0
 197 0000 08B5     		push	{r3, lr}
 198              		.cfi_def_cfa_offset 8
 199              		.cfi_offset 3, -8
 200              		.cfi_offset 14, -4
  60:Generated_Source\PSoC5/IDAC.c **** 
 201              		.loc 1 60 0
 202 0002 1822     		movs	r2, #24
 203 0004 064B     		ldr	r3, .L19
 204 0006 1A70     		strb	r2, [r3]
  66:Generated_Source\PSoC5/IDAC.c ****     #endif /* (IDAC_DEFAULT_DATA_SRC != 0u ) */
 205              		.loc 1 66 0
 206 0008 0133     		adds	r3, r3, #1
 207 000a 0022     		movs	r2, #0
 208 000c 1A70     		strb	r2, [r3]
  73:Generated_Source\PSoC5/IDAC.c ****     #endif/* (IDAC_DEFAULT_POLARITY == IDAC_HARDWARE_CONTROLLED) */
 209              		.loc 1 73 0
 210 000e 1A78     		ldrb	r2, [r3]	@ zero_extendqisi2
 211 0010 D2B2     		uxtb	r2, r2
ARM GAS  C:\Users\HENRYH~1\AppData\Local\Temp\ccfkZ48N.s 			page 11


 212 0012 1A70     		strb	r2, [r3]
  86:Generated_Source\PSoC5/IDAC.c ****     
 213              		.loc 1 86 0
 214 0014 0220     		movs	r0, #2
 215 0016 FFF7FEFF 		bl	IDAC_SetSpeed
 216              	.LVL6:
  89:Generated_Source\PSoC5/IDAC.c ****     
 217              		.loc 1 89 0
 218 001a FFF7FEFF 		bl	IDAC_DacTrim
 219              	.LVL7:
 220 001e 08BD     		pop	{r3, pc}
 221              	.L20:
 222              		.align	2
 223              	.L19:
 224 0020 20580040 		.word	1073764384
 225              		.cfi_endproc
 226              	.LFE0:
 227              		.size	IDAC_Init, .-IDAC_Init
 228              		.section	.text.IDAC_Start,"ax",%progbits
 229              		.align	2
 230              		.global	IDAC_Start
 231              		.thumb
 232              		.thumb_func
 233              		.type	IDAC_Start, %function
 234              	IDAC_Start:
 235              	.LFB2:
 148:Generated_Source\PSoC5/IDAC.c ****     /* Hardware initiazation only needs to occur the first time */
 236              		.loc 1 148 0
 237              		.cfi_startproc
 238              		@ args = 0, pretend = 0, frame = 0
 239              		@ frame_needed = 0, uses_anonymous_args = 0
 240 0000 08B5     		push	{r3, lr}
 241              		.cfi_def_cfa_offset 8
 242              		.cfi_offset 3, -8
 243              		.cfi_offset 14, -4
 150:Generated_Source\PSoC5/IDAC.c ****     {
 244              		.loc 1 150 0
 245 0002 074B     		ldr	r3, .L24
 246 0004 1B78     		ldrb	r3, [r3]	@ zero_extendqisi2
 247 0006 23B9     		cbnz	r3, .L22
 152:Generated_Source\PSoC5/IDAC.c ****         
 248              		.loc 1 152 0
 249 0008 FFF7FEFF 		bl	IDAC_Init
 250              	.LVL8:
 154:Generated_Source\PSoC5/IDAC.c ****     }
 251              		.loc 1 154 0
 252 000c 0122     		movs	r2, #1
 253 000e 044B     		ldr	r3, .L24
 254 0010 1A70     		strb	r2, [r3]
 255              	.L22:
 158:Generated_Source\PSoC5/IDAC.c **** 
 256              		.loc 1 158 0
 257 0012 FFF7FEFF 		bl	IDAC_Enable
 258              	.LVL9:
 161:Generated_Source\PSoC5/IDAC.c **** 
 259              		.loc 1 161 0
 260 0016 7820     		movs	r0, #120
ARM GAS  C:\Users\HENRYH~1\AppData\Local\Temp\ccfkZ48N.s 			page 12


 261 0018 FFF7FEFF 		bl	IDAC_SetValue
 262              	.LVL10:
 263 001c 08BD     		pop	{r3, pc}
 264              	.L25:
 265 001e 00BF     		.align	2
 266              	.L24:
 267 0020 00000000 		.word	.LANCHOR0
 268              		.cfi_endproc
 269              	.LFE2:
 270              		.size	IDAC_Start, .-IDAC_Start
 271              		.section	.text.IDAC_SetPolarity,"ax",%progbits
 272              		.align	2
 273              		.global	IDAC_SetPolarity
 274              		.thumb
 275              		.thumb_func
 276              		.type	IDAC_SetPolarity, %function
 277              	IDAC_SetPolarity:
 278              	.LFB5:
 247:Generated_Source\PSoC5/IDAC.c ****         IDAC_CR1 &= (uint8)(~IDAC_IDIR_MASK);                /* clear polarity bit */
 279              		.loc 1 247 0
 280              		.cfi_startproc
 281              		@ args = 0, pretend = 0, frame = 0
 282              		@ frame_needed = 0, uses_anonymous_args = 0
 283              	.LVL11:
 284 0000 08B5     		push	{r3, lr}
 285              		.cfi_def_cfa_offset 8
 286              		.cfi_offset 3, -8
 287              		.cfi_offset 14, -4
 248:Generated_Source\PSoC5/IDAC.c ****         IDAC_CR1 |= (polarity & IDAC_IDIR_MASK);             /* set new value */
 288              		.loc 1 248 0
 289 0002 064B     		ldr	r3, .L28
 290 0004 1A78     		ldrb	r2, [r3]	@ zero_extendqisi2
 291 0006 02F0FB02 		and	r2, r2, #251
 292 000a 1A70     		strb	r2, [r3]
 249:Generated_Source\PSoC5/IDAC.c ****     
 293              		.loc 1 249 0
 294 000c 1A78     		ldrb	r2, [r3]	@ zero_extendqisi2
 295 000e 00F00400 		and	r0, r0, #4
 296              	.LVL12:
 297 0012 1043     		orrs	r0, r0, r2
 298 0014 1870     		strb	r0, [r3]
 251:Generated_Source\PSoC5/IDAC.c ****     }
 299              		.loc 1 251 0
 300 0016 FFF7FEFF 		bl	IDAC_DacTrim
 301              	.LVL13:
 302 001a 08BD     		pop	{r3, pc}
 303              	.L29:
 304              		.align	2
 305              	.L28:
 306 001c 21580040 		.word	1073764385
 307              		.cfi_endproc
 308              	.LFE5:
 309              		.size	IDAC_SetPolarity, .-IDAC_SetPolarity
 310              		.section	.text.IDAC_SetRange,"ax",%progbits
 311              		.align	2
 312              		.global	IDAC_SetRange
 313              		.thumb
ARM GAS  C:\Users\HENRYH~1\AppData\Local\Temp\ccfkZ48N.s 			page 13


 314              		.thumb_func
 315              		.type	IDAC_SetRange, %function
 316              	IDAC_SetRange:
 317              	.LFB6:
 274:Generated_Source\PSoC5/IDAC.c ****     IDAC_CR0 &= (uint8)(~IDAC_RANGE_MASK);       /* Clear existing mode */
 318              		.loc 1 274 0
 319              		.cfi_startproc
 320              		@ args = 0, pretend = 0, frame = 0
 321              		@ frame_needed = 0, uses_anonymous_args = 0
 322              	.LVL14:
 323 0000 08B5     		push	{r3, lr}
 324              		.cfi_def_cfa_offset 8
 325              		.cfi_offset 3, -8
 326              		.cfi_offset 14, -4
 275:Generated_Source\PSoC5/IDAC.c ****     IDAC_CR0 |= ( range & IDAC_RANGE_MASK );     /*  Set Range  */
 327              		.loc 1 275 0
 328 0002 064B     		ldr	r3, .L32
 329 0004 1A78     		ldrb	r2, [r3]	@ zero_extendqisi2
 330 0006 02F0F302 		and	r2, r2, #243
 331 000a 1A70     		strb	r2, [r3]
 276:Generated_Source\PSoC5/IDAC.c ****     IDAC_DacTrim();
 332              		.loc 1 276 0
 333 000c 1A78     		ldrb	r2, [r3]	@ zero_extendqisi2
 334 000e 00F00C00 		and	r0, r0, #12
 335              	.LVL15:
 336 0012 1043     		orrs	r0, r0, r2
 337 0014 1870     		strb	r0, [r3]
 277:Generated_Source\PSoC5/IDAC.c **** }
 338              		.loc 1 277 0
 339 0016 FFF7FEFF 		bl	IDAC_DacTrim
 340              	.LVL16:
 341 001a 08BD     		pop	{r3, pc}
 342              	.L33:
 343              		.align	2
 344              	.L32:
 345 001c 20580040 		.word	1073764384
 346              		.cfi_endproc
 347              	.LFE6:
 348              		.size	IDAC_SetRange, .-IDAC_SetRange
 349              		.global	IDAC_initVar
 350              		.bss
 351              		.set	.LANCHOR0,. + 0
 352              		.type	IDAC_initVar, %object
 353              		.size	IDAC_initVar, 1
 354              	IDAC_initVar:
 355 0000 00       		.space	1
 356              		.text
 357              	.Letext0:
 358              		.file 2 "Generated_Source\\PSoC5\\cytypes.h"