ARM GAS  C:\Users\HENRYH~1\AppData\Local\Temp\cc11zUyj.s 			page 1


   1              		.syntax unified
   2              		.cpu cortex-m3
   3              		.fpu softvfp
   4              		.eabi_attribute 20, 1
   5              		.eabi_attribute 21, 1
   6              		.eabi_attribute 23, 3
   7              		.eabi_attribute 24, 1
   8              		.eabi_attribute 25, 1
   9              		.eabi_attribute 26, 1
  10              		.eabi_attribute 30, 1
  11              		.eabi_attribute 34, 1
  12              		.eabi_attribute 18, 4
  13              		.thumb
  14              		.syntax unified
  15              		.file	"main.c"
  16              		.text
  17              	.Ltext0:
  18              		.cfi_sections	.debug_frame
  19              		.section	.text.Leer_Offset,"ax",%progbits
  20              		.align	2
  21              		.global	Leer_Offset
  22              		.thumb
  23              		.thumb_func
  24              		.type	Leer_Offset, %function
  25              	Leer_Offset:
  26              	.LFB64:
  27              		.file 1 "main.c"
   1:main.c        **** /* ========================================
   2:main.c        ****  *
   3:main.c        ****  * Copyright YOUR COMPANY, THE YEAR
   4:main.c        ****  * All Rights Reserved
   5:main.c        ****  * UNPUBLISHED, LICENSED SOFTWARE.
   6:main.c        ****  *
   7:main.c        ****  * CONFIDENTIAL AND PROPRIETARY INFORMATION
   8:main.c        ****  * WHICH IS THE PROPERTY OF your company.
   9:main.c        ****  *
  10:main.c        ****  * ========================================
  11:main.c        **** */
  12:main.c        **** #include "project.h"
  13:main.c        **** #include "stdio.h"
  14:main.c        **** #define CONV_MILIOHM        100000
  15:main.c        **** 
  16:main.c        **** //Función para leer el offset que pueda tener el sensor
  17:main.c        **** int32 Leer_Offset(){
  28              		.loc 1 17 0
  29              		.cfi_startproc
  30              		@ args = 0, pretend = 0, frame = 0
  31              		@ frame_needed = 0, uses_anonymous_args = 0
  32 0000 08B5     		push	{r3, lr}
  33              		.cfi_def_cfa_offset 8
  34              		.cfi_offset 3, -8
  35              		.cfi_offset 14, -4
  36              	.LVL0:
  18:main.c        ****     int32 offset = 0;
  19:main.c        ****     //Fijar DAC en OmA
  20:main.c        ****     IDAC_SetValue(0);
  37              		.loc 1 20 0
ARM GAS  C:\Users\HENRYH~1\AppData\Local\Temp\cc11zUyj.s 			page 2


  38 0002 0020     		movs	r0, #0
  39 0004 FFF7FEFF 		bl	IDAC_SetValue
  40              	.LVL1:
  21:main.c        ****     //Iniciar conversión y lectura del ADC.
  22:main.c        ****     ADC_StartConvert();
  41              		.loc 1 22 0
  42 0008 FFF7FEFF 		bl	ADC_StartConvert
  43              	.LVL2:
  23:main.c        ****     ADC_IsEndConversion (ADC_WAIT_FOR_RESULT); 
  44              		.loc 1 23 0
  45 000c 0020     		movs	r0, #0
  46 000e FFF7FEFF 		bl	ADC_IsEndConversion
  47              	.LVL3:
  24:main.c        ****     offset = ADC_GetResult32();
  48              		.loc 1 24 0
  49 0012 FFF7FEFF 		bl	ADC_GetResult32
  50              	.LVL4:
  25:main.c        ****     return offset;
  26:main.c        **** }
  51              		.loc 1 26 0
  52 0016 08BD     		pop	{r3, pc}
  53              		.cfi_endproc
  54              	.LFE64:
  55              		.size	Leer_Offset, .-Leer_Offset
  56              		.section	.text.Tension_referencia,"ax",%progbits
  57              		.align	2
  58              		.global	Tension_referencia
  59              		.thumb
  60              		.thumb_func
  61              		.type	Tension_referencia, %function
  62              	Tension_referencia:
  63              	.LFB65:
  27:main.c        **** 
  28:main.c        **** int32 Tension_referencia ()
  29:main.c        **** {
  64              		.loc 1 29 0
  65              		.cfi_startproc
  66              		@ args = 0, pretend = 0, frame = 0
  67              		@ frame_needed = 0, uses_anonymous_args = 0
  68 0000 08B5     		push	{r3, lr}
  69              		.cfi_def_cfa_offset 8
  70              		.cfi_offset 3, -8
  71              		.cfi_offset 14, -4
  72              	.LVL5:
  30:main.c        ****     int32 ref = 0;
  31:main.c        ****     //Seleccionar canal de la resistencia de referencia con el multiplexor 
  32:main.c        ****     ADCMux_FastSelect(0);
  73              		.loc 1 32 0
  74 0002 0020     		movs	r0, #0
  75 0004 FFF7FEFF 		bl	ADCMux_FastSelect
  76              	.LVL6:
  33:main.c        ****     //Fija la salida del DAC en 1mA aproximadamente como valor
  34:main.c        ****     //de referencia (1mA*100ohm=0.1V)
  35:main.c        ****     IDAC_SetValue(125);
  77              		.loc 1 35 0
  78 0008 7D20     		movs	r0, #125
  79 000a FFF7FEFF 		bl	IDAC_SetValue
ARM GAS  C:\Users\HENRYH~1\AppData\Local\Temp\cc11zUyj.s 			page 3


  80              	.LVL7:
  36:main.c        ****     //Iniciar conversión y lectura del ADC.
  37:main.c        ****     ADC_StartConvert();
  81              		.loc 1 37 0
  82 000e FFF7FEFF 		bl	ADC_StartConvert
  83              	.LVL8:
  38:main.c        ****     ADC_IsEndConversion(ADC_WAIT_FOR_RESULT); 
  84              		.loc 1 38 0
  85 0012 0020     		movs	r0, #0
  86 0014 FFF7FEFF 		bl	ADC_IsEndConversion
  87              	.LVL9:
  39:main.c        ****     ref= ADC_GetResult32 ();
  88              		.loc 1 39 0
  89 0018 FFF7FEFF 		bl	ADC_GetResult32
  90              	.LVL10:
  40:main.c        ****     return ref;
  41:main.c        **** }
  91              		.loc 1 41 0
  92 001c 08BD     		pop	{r3, pc}
  93              		.cfi_endproc
  94              	.LFE65:
  95              		.size	Tension_referencia, .-Tension_referencia
  96              		.global	__aeabi_i2f
  97              		.global	__aeabi_fdiv
  98              		.global	__aeabi_fmul
  99              		.global	__aeabi_f2iz
 100 001e 00BF     		.section	.text.valor_RTD,"ax",%progbits
 101              		.align	2
 102              		.global	valor_RTD
 103              		.thumb
 104              		.thumb_func
 105              		.type	valor_RTD, %function
 106              	valor_RTD:
 107              	.LFB66:
  42:main.c        **** 
  43:main.c        **** int32 valor_RTD ()
  44:main.c        **** {
 108              		.loc 1 44 0
 109              		.cfi_startproc
 110              		@ args = 0, pretend = 0, frame = 0
 111              		@ frame_needed = 0, uses_anonymous_args = 0
 112 0000 10B5     		push	{r4, lr}
 113              		.cfi_def_cfa_offset 8
 114              		.cfi_offset 4, -8
 115              		.cfi_offset 14, -4
 116              	.LVL11:
  45:main.c        ****     int32 rtd_V = 0;
  46:main.c        ****     //Variable para almacenar el valor de la RTD en mili-ohm 
  47:main.c        ****     int32 rtdRes= 0;
  48:main.c        ****     //Variable para realizar un ajuste del cero (0)
  49:main.c        ****     int32 Cero_Corriente = 0;
  50:main.c        ****     //Seleccionar canal de la RTD con el multiplexor 
  51:main.c        ****     ADCMux_FastSelect(1);
 117              		.loc 1 51 0
 118 0002 0120     		movs	r0, #1
 119 0004 FFF7FEFF 		bl	ADCMux_FastSelect
 120              	.LVL12:
ARM GAS  C:\Users\HENRYH~1\AppData\Local\Temp\cc11zUyj.s 			page 4


  52:main.c        ****     //Fija la salida del DAC en 1mA
  53:main.c        ****     IDAC_SetValue(125);
 121              		.loc 1 53 0
 122 0008 7D20     		movs	r0, #125
 123 000a FFF7FEFF 		bl	IDAC_SetValue
 124              	.LVL13:
  54:main.c        ****     //Leer la tensión que cae sobre la RTD ADC_StartConvert();
  55:main.c        ****     ADC_IsEndConversion(ADC_WAIT_FOR_RESULT);
 125              		.loc 1 55 0
 126 000e 0020     		movs	r0, #0
 127 0010 FFF7FEFF 		bl	ADC_IsEndConversion
 128              	.LVL14:
  56:main.c        ****     rtd_V = ADC_GetResult32();
 129              		.loc 1 56 0
 130 0014 FFF7FEFF 		bl	ADC_GetResult32
 131              	.LVL15:
 132 0018 0446     		mov	r4, r0
 133              	.LVL16:
  57:main.c        ****     //Leer offset del circuito
  58:main.c        ****     Cero_Corriente = Leer_Offset();
 134              		.loc 1 58 0
 135 001a FFF7FEFF 		bl	Leer_Offset
 136              	.LVL17:
  59:main.c        ****     //Eliminar el offset
  60:main.c        ****     rtd_V = rtd_V - Cero_Corriente;
  61:main.c        ****     //Se encuentra una relación entre la tensión de la RTD y la de //referencia, luego se multipl
  62:main.c        ****     rtdRes = (int32) ((float) rtd_V/Tension_referencia () * CONV_MILIOHM); 
 137              		.loc 1 62 0
 138 001e 201A     		subs	r0, r4, r0
 139              	.LVL18:
 140 0020 FFF7FEFF 		bl	__aeabi_i2f
 141              	.LVL19:
 142 0024 0446     		mov	r4, r0
 143 0026 FFF7FEFF 		bl	Tension_referencia
 144              	.LVL20:
 145 002a FFF7FEFF 		bl	__aeabi_i2f
 146              	.LVL21:
 147 002e 0146     		mov	r1, r0
 148 0030 2046     		mov	r0, r4
 149 0032 FFF7FEFF 		bl	__aeabi_fdiv
 150              	.LVL22:
 151 0036 0649     		ldr	r1, .L7
 152 0038 FFF7FEFF 		bl	__aeabi_fmul
 153              	.LVL23:
 154 003c FFF7FEFF 		bl	__aeabi_f2iz
 155              	.LVL24:
 156 0040 0446     		mov	r4, r0
 157              	.LVL25:
  63:main.c        ****     CyDelay(1000);
 158              		.loc 1 63 0
 159 0042 4FF47A70 		mov	r0, #1000
 160              	.LVL26:
 161 0046 FFF7FEFF 		bl	CyDelay
 162              	.LVL27:
  64:main.c        ****     return rtdRes;
  65:main.c        **** }
 163              		.loc 1 65 0
ARM GAS  C:\Users\HENRYH~1\AppData\Local\Temp\cc11zUyj.s 			page 5


 164 004a 2046     		mov	r0, r4
 165 004c 10BD     		pop	{r4, pc}
 166              	.LVL28:
 167              	.L8:
 168 004e 00BF     		.align	2
 169              	.L7:
 170 0050 0050C347 		.word	1203982336
 171              		.cfi_endproc
 172              	.LFE66:
 173              		.size	valor_RTD, .-valor_RTD
 174              		.section	.text.main,"ax",%progbits
 175              		.align	2
 176              		.global	main
 177              		.thumb
 178              		.thumb_func
 179              		.type	main, %function
 180              	main:
 181              	.LFB67:
  66:main.c        **** 
  67:main.c        **** 
  68:main.c        **** int main(void)
  69:main.c        **** {
 182              		.loc 1 69 0
 183              		.cfi_startproc
 184              		@ args = 0, pretend = 0, frame = 16
 185              		@ frame_needed = 0, uses_anonymous_args = 0
 186 0000 10B5     		push	{r4, lr}
 187              		.cfi_def_cfa_offset 8
 188              		.cfi_offset 4, -8
 189              		.cfi_offset 14, -4
 190 0002 84B0     		sub	sp, sp, #16
 191              		.cfi_def_cfa_offset 24
  70:main.c        ****     //Habilitar interrupciones 
  71:main.c        ****     CyGlobalIntEnable;
 192              		.loc 1 71 0
 193              		.syntax unified
 194              	@ 71 "main.c" 1
 195 0004 62B6     		CPSIE   i
 196              	@ 0 "" 2
  72:main.c        ****     //Iniciar perifericos
  73:main.c        ****     LCD_Start();
 197              		.loc 1 73 0
 198              		.thumb
 199              		.syntax unified
 200 0006 FFF7FEFF 		bl	LCD_Start
 201              	.LVL29:
  74:main.c        ****     LCD_Position (0,0);
 202              		.loc 1 74 0
 203 000a 0021     		movs	r1, #0
 204 000c 0846     		mov	r0, r1
 205 000e FFF7FEFF 		bl	LCD_Position
 206              	.LVL30:
  75:main.c        ****     LCD_PrintString("Ejemplo RTD");
 207              		.loc 1 75 0
 208 0012 1748     		ldr	r0, .L13
 209 0014 FFF7FEFF 		bl	LCD_PrintString
 210              	.LVL31:
ARM GAS  C:\Users\HENRYH~1\AppData\Local\Temp\cc11zUyj.s 			page 6


  76:main.c        ****     IDAC_Start();
 211              		.loc 1 76 0
 212 0018 FFF7FEFF 		bl	IDAC_Start
 213              	.LVL32:
  77:main.c        ****     ADC_Start();
 214              		.loc 1 77 0
 215 001c FFF7FEFF 		bl	ADC_Start
 216              	.LVL33:
  78:main.c        ****     ADCMux_Start();
 217              		.loc 1 78 0
 218 0020 FFF7FEFF 		bl	ADCMux_Start
 219              	.LVL34:
 220              	.L11:
 221              	.LBB2:
  79:main.c        ****     //Bucle infinito
  80:main.c        **** 
  81:main.c        ****     for(;;)
  82:main.c        ****     {
  83:main.c        ****         /* Place your application code here. */
  84:main.c        ****         LCD_Position (0,0);
 222              		.loc 1 84 0
 223 0024 0021     		movs	r1, #0
 224 0026 0846     		mov	r0, r1
 225 0028 FFF7FEFF 		bl	LCD_Position
 226              	.LVL35:
  85:main.c        ****         int x=valor_RTD();
 227              		.loc 1 85 0
 228 002c FFF7FEFF 		bl	valor_RTD
 229              	.LVL36:
  86:main.c        ****         //Buscar el valor de temperatura usando la calculadora de PSOC5
  87:main.c        ****         int32 rtdTemp=RTD_GetTemperature (x);
 230              		.loc 1 87 0
 231 0030 FFF7FEFF 		bl	RTD_GetTemperature
 232              	.LVL37:
  88:main.c        ****         //Se divide en dos partes para separar la parte entera y decimal //del termino dado por la 
  89:main.c        ****         int32 entera = rtdTemp/100;
 233              		.loc 1 89 0
 234 0034 0F4A     		ldr	r2, .L13+4
 235 0036 82FB0032 		smull	r3, r2, r2, r0
 236 003a C117     		asrs	r1, r0, #31
 237 003c C1EB6212 		rsb	r2, r1, r2, asr #5
 238              	.LVL38:
  90:main.c        ****         int32 decimal= rtdTemp-(entera*100);
 239              		.loc 1 90 0
 240 0040 6FF06303 		mvn	r3, #99
 241 0044 03FB0203 		mla	r3, r3, r2, r0
 242              	.LVL39:
  91:main.c        ****         /*si la parte decimal es negativa hay que convertirla a positiva*/ 
  92:main.c        ****         if (decimal<0) { decimal*=-1; }
 243              		.loc 1 92 0
 244 0048 002B     		cmp	r3, #0
 245 004a 00DA     		bge	.L10
 246              		.loc 1 92 0 is_stmt 0 discriminator 1
 247 004c 5B42     		negs	r3, r3
 248              	.LVL40:
 249              	.L10:
  93:main.c        ****         char printBuf[16]={'\0'};
ARM GAS  C:\Users\HENRYH~1\AppData\Local\Temp\cc11zUyj.s 			page 7


 250              		.loc 1 93 0 is_stmt 1
 251 004e 0024     		movs	r4, #0
 252 0050 0094     		str	r4, [sp]
 253 0052 0194     		str	r4, [sp, #4]
 254 0054 0294     		str	r4, [sp, #8]
 255 0056 0394     		str	r4, [sp, #12]
  94:main.c        ****         sprintf (printBuf, "Temp=%ld.%021d C", entera, decimal);
 256              		.loc 1 94 0
 257 0058 0749     		ldr	r1, .L13+8
 258 005a 6846     		mov	r0, sp
 259              	.LVL41:
 260 005c FFF7FEFF 		bl	sprintf
 261              	.LVL42:
  95:main.c        ****         LCD_Position (1, 0);
 262              		.loc 1 95 0
 263 0060 2146     		mov	r1, r4
 264 0062 0120     		movs	r0, #1
 265 0064 FFF7FEFF 		bl	LCD_Position
 266              	.LVL43:
  96:main.c        ****         LCD_PrintString (printBuf);
 267              		.loc 1 96 0
 268 0068 6846     		mov	r0, sp
 269 006a FFF7FEFF 		bl	LCD_PrintString
 270              	.LVL44:
 271              	.LBE2:
  97:main.c        ****     }
 272              		.loc 1 97 0
 273 006e D9E7     		b	.L11
 274              	.L14:
 275              		.align	2
 276              	.L13:
 277 0070 00000000 		.word	.LC0
 278 0074 1F85EB51 		.word	1374389535
 279 0078 0C000000 		.word	.LC1
 280              		.cfi_endproc
 281              	.LFE67:
 282              		.size	main, .-main
 283              		.section	.rodata.str1.4,"aMS",%progbits,1
 284              		.align	2
 285              	.LC0:
 286 0000 456A656D 		.ascii	"Ejemplo RTD\000"
 286      706C6F20 
 286      52544400 
 287              	.LC1:
 288 000c 54656D70 		.ascii	"Temp=%ld.%021d C\000"
 288      3D256C64 
 288      2E253032 
 288      31642043 
 288      00
 289              		.text
 290              	.Letext0:
 291              		.file 2 "c:\\program files (x86)\\cypress\\psoc creator\\4.4\\psoc creator\\import\\gnu\\arm\\5.4.
 292              		.file 3 "c:\\program files (x86)\\cypress\\psoc creator\\4.4\\psoc creator\\import\\gnu\\arm\\5.4.
 293              		.file 4 "Generated_Source\\PSoC5/cytypes.h"
 294              		.file 5 "Generated_Source\\PSoC5/IDAC.h"
 295              		.file 6 "Generated_Source\\PSoC5/ADC.h"
 296              		.file 7 "Generated_Source\\PSoC5/ADCMux.h"
ARM GAS  C:\Users\HENRYH~1\AppData\Local\Temp\cc11zUyj.s 			page 8


 297              		.file 8 "Generated_Source\\PSoC5/CyLib.h"
 298              		.file 9 "Generated_Source\\PSoC5/LCD.h"
 299              		.file 10 "Generated_Source\\PSoC5/RTD.h"
 300              		.file 11 "c:\\program files (x86)\\cypress\\psoc creator\\4.4\\psoc creator\\import\\gnu\\arm\\5.4
 301              		.file 12 "Generated_Source\\PSoC5/core_cm3.h"