ARM GAS  C:\Users\HENRYH~1\AppData\Local\Temp\ccgkLV0P.s 			page 1


   1              		.syntax unified
   2              		.cpu cortex-m3
   3              		.fpu softvfp
   4              		.eabi_attribute 20, 1
   5              		.eabi_attribute 21, 1
   6              		.eabi_attribute 23, 3
   7              		.eabi_attribute 24, 1
   8              		.eabi_attribute 25, 1
   9              		.eabi_attribute 26, 1
  10              		.eabi_attribute 30, 1
  11              		.eabi_attribute 34, 1
  12              		.eabi_attribute 18, 4
  13              		.thumb
  14              		.syntax unified
  15              		.file	"RTD.c"
  16              		.text
  17              	.Ltext0:
  18              		.cfi_sections	.debug_frame
  19              		.section	.text.RTD_MultShift24,"ax",%progbits
  20              		.align	2
  21              		.global	RTD_MultShift24
  22              		.thumb
  23              		.thumb_func
  24              		.type	RTD_MultShift24, %function
  25              	RTD_MultShift24:
  26              	.LFB0:
  27              		.file 1 "Generated_Source\\PSoC5\\RTD.c"
   1:Generated_Source\PSoC5/RTD.c **** /*******************************************************************************
   2:Generated_Source\PSoC5/RTD.c **** * File Name: RTD.c
   3:Generated_Source\PSoC5/RTD.c **** * Version 1.20
   4:Generated_Source\PSoC5/RTD.c **** *
   5:Generated_Source\PSoC5/RTD.c **** * Description:
   6:Generated_Source\PSoC5/RTD.c **** *  This file provides the source code to the API for the RTDCalc Component.
   7:Generated_Source\PSoC5/RTD.c **** *
   8:Generated_Source\PSoC5/RTD.c **** * Note:
   9:Generated_Source\PSoC5/RTD.c **** *  None.
  10:Generated_Source\PSoC5/RTD.c **** *
  11:Generated_Source\PSoC5/RTD.c **** ********************************************************************************
  12:Generated_Source\PSoC5/RTD.c **** * Copyright 2012-2013, Cypress Semiconductor Corporation.  All rights reserved.
  13:Generated_Source\PSoC5/RTD.c **** * You may use this file only in accordance with the license, terms, conditions,
  14:Generated_Source\PSoC5/RTD.c **** * disclaimers, and limitations in the end user license agreement accompanying
  15:Generated_Source\PSoC5/RTD.c **** * the software package with which this file was provided.
  16:Generated_Source\PSoC5/RTD.c **** *******************************************************************************/
  17:Generated_Source\PSoC5/RTD.c **** 
  18:Generated_Source\PSoC5/RTD.c **** #include "RTD.h"
  19:Generated_Source\PSoC5/RTD.c **** 
  20:Generated_Source\PSoC5/RTD.c **** #if(!CY_PSOC3)
  21:Generated_Source\PSoC5/RTD.c **** 
  22:Generated_Source\PSoC5/RTD.c **** 
  23:Generated_Source\PSoC5/RTD.c ****     /*******************************************************************************
  24:Generated_Source\PSoC5/RTD.c ****     * Function Name: RTD_MultShift24
  25:Generated_Source\PSoC5/RTD.c ****     ********************************************************************************
  26:Generated_Source\PSoC5/RTD.c ****     *
  27:Generated_Source\PSoC5/RTD.c ****     * Summary:
  28:Generated_Source\PSoC5/RTD.c ****     *  Performs the math function (op1 * op2) >> 24 using 64 bit arithmetic without
  29:Generated_Source\PSoC5/RTD.c ****     *  any loss of precision and without overflow.
  30:Generated_Source\PSoC5/RTD.c ****     *
ARM GAS  C:\Users\HENRYH~1\AppData\Local\Temp\ccgkLV0P.s 			page 2


  31:Generated_Source\PSoC5/RTD.c ****     * Parameters:
  32:Generated_Source\PSoC5/RTD.c ****     *  op1: Signed 32-bit operand
  33:Generated_Source\PSoC5/RTD.c ****     *  op2: Unsigned 24-bit operand
  34:Generated_Source\PSoC5/RTD.c ****     *
  35:Generated_Source\PSoC5/RTD.c ****     * Return:
  36:Generated_Source\PSoC5/RTD.c ****     *  Signed 32-bit result of the math calculation
  37:Generated_Source\PSoC5/RTD.c ****     *
  38:Generated_Source\PSoC5/RTD.c ****     *******************************************************************************/
  39:Generated_Source\PSoC5/RTD.c ****     int32 RTD_MultShift24(int32 op1, uint32 op2) 
  40:Generated_Source\PSoC5/RTD.c ****     {
  28              		.loc 1 40 0
  29              		.cfi_startproc
  30              		@ args = 0, pretend = 0, frame = 0
  31              		@ frame_needed = 0, uses_anonymous_args = 0
  32              		@ link register save eliminated.
  33              	.LVL0:
  34 0000 30B4     		push	{r4, r5}
  35              		.cfi_def_cfa_offset 8
  36              		.cfi_offset 4, -8
  37              		.cfi_offset 5, -4
  38 0002 0B46     		mov	r3, r1
  39              	.LVL1:
  41:Generated_Source\PSoC5/RTD.c ****         int64 result=0;
  42:Generated_Source\PSoC5/RTD.c **** 
  43:Generated_Source\PSoC5/RTD.c ****         result = (int64)op1 * (int64)op2;
  40              		.loc 1 43 0
  41 0004 C517     		asrs	r5, r0, #31
  42 0006 A0FB0101 		umull	r0, r1, r0, r1
  43              	.LVL2:
  44 000a 03FB0511 		mla	r1, r3, r5, r1
  45              	.LVL3:
  44:Generated_Source\PSoC5/RTD.c ****         
  45:Generated_Source\PSoC5/RTD.c ****         if (result < 0)
  46              		.loc 1 45 0
  47 000e 0028     		cmp	r0, #0
  48 0010 71F10003 		sbcs	r3, r1, #0
  49              	.LVL4:
  50 0014 07DA     		bge	.L2
  46:Generated_Source\PSoC5/RTD.c ****         {
  47:Generated_Source\PSoC5/RTD.c ****             result = -result;
  51              		.loc 1 47 0
  52 0016 4042     		rsbs	r0, r0, #0
  53              	.LVL5:
  54 0018 61EB4101 		sbc	r1, r1, r1, lsl #1
  55              	.LVL6:
  48:Generated_Source\PSoC5/RTD.c ****             result = (int32)((uint32)((uint64)result >> RTD_24BIT_SHIFTING));
  56              		.loc 1 48 0
  57 001c 000E     		lsrs	r0, r0, #24
  58              	.LVL7:
  59 001e 40EA0120 		orr	r0, r0, r1, lsl #8
  60              	.LVL8:
  49:Generated_Source\PSoC5/RTD.c ****             result = -result;
  61              		.loc 1 49 0
  62 0022 4042     		rsbs	r0, r0, #0
  63              	.LVL9:
  64 0024 02E0     		b	.L3
  65              	.LVL10:
ARM GAS  C:\Users\HENRYH~1\AppData\Local\Temp\ccgkLV0P.s 			page 3


  66              	.L2:
  50:Generated_Source\PSoC5/RTD.c ****         }
  51:Generated_Source\PSoC5/RTD.c ****         else
  52:Generated_Source\PSoC5/RTD.c ****         {
  53:Generated_Source\PSoC5/RTD.c ****             result = (int32)((uint32)((uint64)result >> RTD_24BIT_SHIFTING));
  67              		.loc 1 53 0
  68 0026 000E     		lsrs	r0, r0, #24
  69              	.LVL11:
  70 0028 40EA0120 		orr	r0, r0, r1, lsl #8
  71              	.LVL12:
  72              	.L3:
  54:Generated_Source\PSoC5/RTD.c ****         }
  55:Generated_Source\PSoC5/RTD.c ****         return (result);
  56:Generated_Source\PSoC5/RTD.c ****     }
  73              		.loc 1 56 0
  74 002c 30BC     		pop	{r4, r5}
  75              		.cfi_restore 5
  76              		.cfi_restore 4
  77              		.cfi_def_cfa_offset 0
  78 002e 7047     		bx	lr
  79              		.cfi_endproc
  80              	.LFE0:
  81              		.size	RTD_MultShift24, .-RTD_MultShift24
  82              		.section	.text.RTD_GetTemperature,"ax",%progbits
  83              		.align	2
  84              		.global	RTD_GetTemperature
  85              		.thumb
  86              		.thumb_func
  87              		.type	RTD_GetTemperature, %function
  88              	RTD_GetTemperature:
  89              	.LFB1:
  57:Generated_Source\PSoC5/RTD.c **** #endif /* End (!CY_PSOC3) */
  58:Generated_Source\PSoC5/RTD.c **** 
  59:Generated_Source\PSoC5/RTD.c **** 
  60:Generated_Source\PSoC5/RTD.c **** /*******************************************************************************
  61:Generated_Source\PSoC5/RTD.c **** * Function Name: RTD_GetTemperature
  62:Generated_Source\PSoC5/RTD.c **** ********************************************************************************
  63:Generated_Source\PSoC5/RTD.c **** *
  64:Generated_Source\PSoC5/RTD.c **** * Summary:
  65:Generated_Source\PSoC5/RTD.c **** *  Calculates the temperature from RTD resistance.
  66:Generated_Source\PSoC5/RTD.c **** *
  67:Generated_Source\PSoC5/RTD.c **** * Parameters:
  68:Generated_Source\PSoC5/RTD.c **** *  res: Resistance in milliohms.
  69:Generated_Source\PSoC5/RTD.c **** *
  70:Generated_Source\PSoC5/RTD.c **** * Return:
  71:Generated_Source\PSoC5/RTD.c **** *  Temperature in 1/100ths degrees C.
  72:Generated_Source\PSoC5/RTD.c **** *
  73:Generated_Source\PSoC5/RTD.c **** *******************************************************************************/
  74:Generated_Source\PSoC5/RTD.c **** int32 RTD_GetTemperature(uint32 res) 
  75:Generated_Source\PSoC5/RTD.c **** 
  76:Generated_Source\PSoC5/RTD.c **** #if (CY_PSOC3)
  77:Generated_Source\PSoC5/RTD.c **** {
  78:Generated_Source\PSoC5/RTD.c **** 
  79:Generated_Source\PSoC5/RTD.c ****     /***************************************
  80:Generated_Source\PSoC5/RTD.c ****     *  Customizer Generated Coefficients
  81:Generated_Source\PSoC5/RTD.c ****     ***************************************/
  82:Generated_Source\PSoC5/RTD.c ****     const int32 CYCODE RTD_coeffPos[] = { -50250219, 252360369, 58213731 };
ARM GAS  C:\Users\HENRYH~1\AppData\Local\Temp\ccgkLV0P.s 			page 4


  83:Generated_Source\PSoC5/RTD.c ****     const int32 CYCODE RTD_coeffNeg[] = { -50308256, 252728554, 57843218 };
  84:Generated_Source\PSoC5/RTD.c **** 
  85:Generated_Source\PSoC5/RTD.c ****     uint8 i=0u;
  86:Generated_Source\PSoC5/RTD.c ****     float32 resNorm=0.0f;
  87:Generated_Source\PSoC5/RTD.c ****     float32 temp=0.0f;
  88:Generated_Source\PSoC5/RTD.c **** 
  89:Generated_Source\PSoC5/RTD.c ****     resNorm = (float32)res;
  90:Generated_Source\PSoC5/RTD.c **** 
  91:Generated_Source\PSoC5/RTD.c ****     if (((RTD_RTD_TYPE == (uint32)RTD__PT100) && (res > RTD_ZERO_VAL_PT100)) ||
  92:Generated_Source\PSoC5/RTD.c ****         ((RTD_RTD_TYPE == (uint32)RTD__PT500) && (res > RTD_ZERO_VAL_PT500)) ||
  93:Generated_Source\PSoC5/RTD.c ****         ((RTD_RTD_TYPE == (uint32)RTD__PT1000) && (res > RTD_ZERO_VAL_PT1000)))
  94:Generated_Source\PSoC5/RTD.c ****     {
  95:Generated_Source\PSoC5/RTD.c ****          /* Temperature above 0 degrees C */
  96:Generated_Source\PSoC5/RTD.c ****         for (i = RTD_ORDER_POS - 1u; i > 0u; i--)
  97:Generated_Source\PSoC5/RTD.c ****         {
  98:Generated_Source\PSoC5/RTD.c ****             temp = (RTD_coeffPos[i] + temp) * resNorm;
  99:Generated_Source\PSoC5/RTD.c ****         }
 100:Generated_Source\PSoC5/RTD.c ****         temp = temp + RTD_coeffPos[RTD_FIRST_EL_MAS];
 101:Generated_Source\PSoC5/RTD.c ****     }
 102:Generated_Source\PSoC5/RTD.c ****     else
 103:Generated_Source\PSoC5/RTD.c ****     {
 104:Generated_Source\PSoC5/RTD.c ****         /* Temperature below 0 degrees C */
 105:Generated_Source\PSoC5/RTD.c ****         for (i = RTD_ORDER_NEG - 1u; i > 0u; i--)
 106:Generated_Source\PSoC5/RTD.c ****         {
 107:Generated_Source\PSoC5/RTD.c ****             temp = (RTD_coeffNeg[i] + temp) * resNorm;
 108:Generated_Source\PSoC5/RTD.c ****         }
 109:Generated_Source\PSoC5/RTD.c ****         temp = temp + RTD_coeffNeg[RTD_FIRST_EL_MAS];
 110:Generated_Source\PSoC5/RTD.c ****     }
 111:Generated_Source\PSoC5/RTD.c ****     return ((int32)(temp));
 112:Generated_Source\PSoC5/RTD.c **** }
 113:Generated_Source\PSoC5/RTD.c **** #else
 114:Generated_Source\PSoC5/RTD.c **** {
  90              		.loc 1 114 0
  91              		.cfi_startproc
  92              		@ args = 0, pretend = 0, frame = 24
  93              		@ frame_needed = 0, uses_anonymous_args = 0
  94              	.LVL13:
  95 0000 30B5     		push	{r4, r5, lr}
  96              		.cfi_def_cfa_offset 12
  97              		.cfi_offset 4, -12
  98              		.cfi_offset 5, -8
  99              		.cfi_offset 14, -4
 100 0002 87B0     		sub	sp, sp, #28
 101              		.cfi_def_cfa_offset 40
 102 0004 0446     		mov	r4, r0
 115:Generated_Source\PSoC5/RTD.c ****     /***************************************
 116:Generated_Source\PSoC5/RTD.c ****     *  Customizer Generated Coefficients
 117:Generated_Source\PSoC5/RTD.c ****     ***************************************/
 118:Generated_Source\PSoC5/RTD.c ****     const int32 CYCODE RTD_coeffPos[] = { -50250219, 252360369, 58213731 };
 103              		.loc 1 118 0
 104 0006 1F4B     		ldr	r3, .L13
 105 0008 93E80700 		ldmia	r3, {r0, r1, r2}
 106              	.LVL14:
 107 000c 06AD     		add	r5, sp, #24
 108 000e 05E90700 		stmdb	r5, {r0, r1, r2}
 119:Generated_Source\PSoC5/RTD.c ****     const int32 CYCODE RTD_coeffNeg[] = { -50308256, 252728554, 57843218 };
 109              		.loc 1 119 0
ARM GAS  C:\Users\HENRYH~1\AppData\Local\Temp\ccgkLV0P.s 			page 5


 110 0012 0C33     		adds	r3, r3, #12
 111 0014 93E80700 		ldmia	r3, {r0, r1, r2}
 112 0018 8DE80700 		stmia	sp, {r0, r1, r2}
 113              	.LVL15:
 120:Generated_Source\PSoC5/RTD.c **** 
 121:Generated_Source\PSoC5/RTD.c ****     uint8 i;
 122:Generated_Source\PSoC5/RTD.c ****     int32 temp=0;
 123:Generated_Source\PSoC5/RTD.c **** 
 124:Generated_Source\PSoC5/RTD.c ****     if (((RTD_RTD_TYPE == (uint32)RTD__PT100) && (res > RTD_ZERO_VAL_PT100)) ||
 114              		.loc 1 124 0
 115 001c 1A4B     		ldr	r3, .L13+4
 116 001e 9C42     		cmp	r4, r3
 117 0020 17D9     		bls	.L6
 125:Generated_Source\PSoC5/RTD.c ****         ((RTD_RTD_TYPE == (uint32)RTD__PT500) && (res > RTD_ZERO_VAL_PT500)) ||
 126:Generated_Source\PSoC5/RTD.c ****         ((RTD_RTD_TYPE == (uint32)RTD__PT1000) && (res > RTD_ZERO_VAL_PT1000)))
 127:Generated_Source\PSoC5/RTD.c ****     {
 128:Generated_Source\PSoC5/RTD.c ****          /* Temperature above 0 degrees C */
 129:Generated_Source\PSoC5/RTD.c ****         res = res << (RTD_IN_NORMALIZATION - RTD_POS_INPUT_SCALE);
 118              		.loc 1 129 0
 119 0022 6501     		lsls	r5, r4, #5
 120              	.LVL16:
 122:Generated_Source\PSoC5/RTD.c **** 
 121              		.loc 1 122 0
 122 0024 0020     		movs	r0, #0
 130:Generated_Source\PSoC5/RTD.c **** 
 131:Generated_Source\PSoC5/RTD.c ****         for (i = RTD_ORDER_POS - 1u; i > 0u; i--)
 123              		.loc 1 131 0
 124 0026 0224     		movs	r4, #2
 125 0028 0AE0     		b	.L7
 126              	.LVL17:
 127              	.L8:
 132:Generated_Source\PSoC5/RTD.c ****         {
 133:Generated_Source\PSoC5/RTD.c ****             temp = RTD_MultShift24((RTD_coeffPos[i] + temp), res);
 128              		.loc 1 133 0 discriminator 3
 129 002a 06AB     		add	r3, sp, #24
 130 002c 03EB8403 		add	r3, r3, r4, lsl #2
 131 0030 53F80C3C 		ldr	r3, [r3, #-12]
 132 0034 2946     		mov	r1, r5
 133 0036 1844     		add	r0, r0, r3
 134              	.LVL18:
 135 0038 FFF7FEFF 		bl	RTD_MultShift24
 136              	.LVL19:
 131:Generated_Source\PSoC5/RTD.c ****         {
 137              		.loc 1 131 0 discriminator 3
 138 003c 013C     		subs	r4, r4, #1
 139              	.LVL20:
 140 003e E4B2     		uxtb	r4, r4
 141              	.LVL21:
 142              	.L7:
 131:Generated_Source\PSoC5/RTD.c ****         {
 143              		.loc 1 131 0 is_stmt 0 discriminator 1
 144 0040 002C     		cmp	r4, #0
 145 0042 F2D1     		bne	.L8
 134:Generated_Source\PSoC5/RTD.c ****         }
 135:Generated_Source\PSoC5/RTD.c ****         temp = (int32)((uint32)((uint64)(int32)(temp + RTD_coeffPos[RTD_FIRST_EL_MAS]) >> 
 146              		.loc 1 135 0 is_stmt 1
 147 0044 114B     		ldr	r3, .L13+8
ARM GAS  C:\Users\HENRYH~1\AppData\Local\Temp\ccgkLV0P.s 			page 6


 148 0046 0344     		add	r3, r3, r0
 149 0048 D917     		asrs	r1, r3, #31
 150 004a DB0A     		lsrs	r3, r3, #11
 151 004c 43EA4150 		orr	r0, r3, r1, lsl #21
 152              	.LVL22:
 153 0050 16E0     		b	.L9
 154              	.LVL23:
 155              	.L6:
 136:Generated_Source\PSoC5/RTD.c ****                        RTD_POS_COEFF_SCALE));
 137:Generated_Source\PSoC5/RTD.c ****     }
 138:Generated_Source\PSoC5/RTD.c **** 
 139:Generated_Source\PSoC5/RTD.c ****     else
 140:Generated_Source\PSoC5/RTD.c ****     {
 141:Generated_Source\PSoC5/RTD.c ****         /* Temperature below 0 degrees C */
 142:Generated_Source\PSoC5/RTD.c ****         res = res << (RTD_IN_NORMALIZATION - RTD_NEG_INPUT_SCALE);
 156              		.loc 1 142 0
 157 0052 6501     		lsls	r5, r4, #5
 158              	.LVL24:
 122:Generated_Source\PSoC5/RTD.c **** 
 159              		.loc 1 122 0
 160 0054 0020     		movs	r0, #0
 143:Generated_Source\PSoC5/RTD.c **** 
 144:Generated_Source\PSoC5/RTD.c ****         for (i = RTD_ORDER_NEG - 1u; i > 0u; i--)
 161              		.loc 1 144 0
 162 0056 0224     		movs	r4, #2
 163 0058 0AE0     		b	.L10
 164              	.LVL25:
 165              	.L11:
 145:Generated_Source\PSoC5/RTD.c ****         {
 146:Generated_Source\PSoC5/RTD.c ****             temp = RTD_MultShift24((RTD_coeffNeg[i] + temp), res);
 166              		.loc 1 146 0 discriminator 3
 167 005a 06AB     		add	r3, sp, #24
 168 005c 03EB8403 		add	r3, r3, r4, lsl #2
 169 0060 53F8183C 		ldr	r3, [r3, #-24]
 170 0064 2946     		mov	r1, r5
 171 0066 1844     		add	r0, r0, r3
 172              	.LVL26:
 173 0068 FFF7FEFF 		bl	RTD_MultShift24
 174              	.LVL27:
 144:Generated_Source\PSoC5/RTD.c ****         {
 175              		.loc 1 144 0 discriminator 3
 176 006c 013C     		subs	r4, r4, #1
 177              	.LVL28:
 178 006e E4B2     		uxtb	r4, r4
 179              	.LVL29:
 180              	.L10:
 144:Generated_Source\PSoC5/RTD.c ****         {
 181              		.loc 1 144 0 is_stmt 0 discriminator 1
 182 0070 002C     		cmp	r4, #0
 183 0072 F2D1     		bne	.L11
 147:Generated_Source\PSoC5/RTD.c ****         }
 148:Generated_Source\PSoC5/RTD.c **** 
 149:Generated_Source\PSoC5/RTD.c ****         temp = (int32)((uint32)((uint64)(int32)(temp + RTD_coeffNeg[RTD_FIRST_EL_MAS]) >> 
 184              		.loc 1 149 0 is_stmt 1
 185 0074 064B     		ldr	r3, .L13+12
 186 0076 0344     		add	r3, r3, r0
 187 0078 D917     		asrs	r1, r3, #31
ARM GAS  C:\Users\HENRYH~1\AppData\Local\Temp\ccgkLV0P.s 			page 7


 188 007a DB0A     		lsrs	r3, r3, #11
 189 007c 43EA4150 		orr	r0, r3, r1, lsl #21
 190              	.LVL30:
 191              	.L9:
 150:Generated_Source\PSoC5/RTD.c ****                        RTD_NEG_COEFF_SCALE));
 151:Generated_Source\PSoC5/RTD.c ****     }
 152:Generated_Source\PSoC5/RTD.c ****     return (temp);
 153:Generated_Source\PSoC5/RTD.c **** }
 192              		.loc 1 153 0
 193 0080 07B0     		add	sp, sp, #28
 194              		.cfi_def_cfa_offset 12
 195              		@ sp needed
 196 0082 30BD     		pop	{r4, r5, pc}
 197              	.LVL31:
 198              	.L14:
 199              		.align	2
 200              	.L13:
 201 0084 00000000 		.word	.LANCHOR0
 202 0088 A0860100 		.word	100000
 203 008c 153E01FD 		.word	-50250219
 204 0090 605B00FD 		.word	-50308256
 205              		.cfi_endproc
 206              	.LFE1:
 207              		.size	RTD_GetTemperature, .-RTD_GetTemperature
 208              		.section	.rodata
 209              		.align	2
 210              		.set	.LANCHOR0,. + 0
 211              	.LC0:
 212 0000 153E01FD 		.word	-50250219
 213 0004 B1B60A0F 		.word	252360369
 214 0008 63457803 		.word	58213731
 215              	.LC1:
 216 000c 605B00FD 		.word	-50308256
 217 0010 EA54100F 		.word	252728554
 218 0014 129E7203 		.word	57843218
 219              		.text
 220              	.Letext0:
 221              		.file 2 "Generated_Source\\PSoC5\\cytypes.h"