ARM GAS  C:\Users\HENRYH~1\AppData\Local\Temp\cc4zIIO4.s 			page 1


   1              		.syntax unified
   2              		.cpu cortex-m3
   3              		.fpu softvfp
   4              		.eabi_attribute 20, 1
   5              		.eabi_attribute 21, 1
   6              		.eabi_attribute 23, 3
   7              		.eabi_attribute 24, 1
   8              		.eabi_attribute 25, 1
   9              		.eabi_attribute 26, 1
  10              		.eabi_attribute 30, 1
  11              		.eabi_attribute 34, 1
  12              		.eabi_attribute 18, 4
  13              		.thumb
  14              		.syntax unified
  15              		.file	"Termistor.c"
  16              		.text
  17              	.Ltext0:
  18              		.cfi_sections	.debug_frame
  19              		.section	.text.Termistor_GetResistance,"ax",%progbits
  20              		.align	2
  21              		.global	Termistor_GetResistance
  22              		.thumb
  23              		.thumb_func
  24              		.type	Termistor_GetResistance, %function
  25              	Termistor_GetResistance:
  26              	.LFB0:
  27              		.file 1 "Generated_Source\\PSoC5\\Termistor.c"
   1:Generated_Source\PSoC5/Termistor.c **** /*******************************************************************************
   2:Generated_Source\PSoC5/Termistor.c **** * File Name: Termistor.c
   3:Generated_Source\PSoC5/Termistor.c **** * Version 1.20
   4:Generated_Source\PSoC5/Termistor.c **** *
   5:Generated_Source\PSoC5/Termistor.c **** * Description:
   6:Generated_Source\PSoC5/Termistor.c **** *  This file provides the source code to the API for the ThermistorCalc
   7:Generated_Source\PSoC5/Termistor.c **** *  Component.
   8:Generated_Source\PSoC5/Termistor.c **** *
   9:Generated_Source\PSoC5/Termistor.c **** * Note:
  10:Generated_Source\PSoC5/Termistor.c **** *  None.
  11:Generated_Source\PSoC5/Termistor.c **** *
  12:Generated_Source\PSoC5/Termistor.c **** ********************************************************************************
  13:Generated_Source\PSoC5/Termistor.c **** * Copyright 2013, Cypress Semiconductor Corporation.  All rights reserved.
  14:Generated_Source\PSoC5/Termistor.c **** * You may use this file only in accordance with the license, terms, conditions,
  15:Generated_Source\PSoC5/Termistor.c **** * disclaimers, and limitations in the end user license agreement accompanying
  16:Generated_Source\PSoC5/Termistor.c **** * the software package with which this file was provided.
  17:Generated_Source\PSoC5/Termistor.c **** *******************************************************************************/
  18:Generated_Source\PSoC5/Termistor.c **** 
  19:Generated_Source\PSoC5/Termistor.c **** #include "Termistor.h"
  20:Generated_Source\PSoC5/Termistor.c **** 
  21:Generated_Source\PSoC5/Termistor.c **** 
  22:Generated_Source\PSoC5/Termistor.c **** /*******************************************************************************
  23:Generated_Source\PSoC5/Termistor.c **** * Function Name: Termistor_GetResistance
  24:Generated_Source\PSoC5/Termistor.c **** ********************************************************************************
  25:Generated_Source\PSoC5/Termistor.c **** *
  26:Generated_Source\PSoC5/Termistor.c **** * Summary:
  27:Generated_Source\PSoC5/Termistor.c **** *  The digital values of the voltages across the reference resistor and the
  28:Generated_Source\PSoC5/Termistor.c **** *  thermistor are passed to this function as parameters. The function returns
  29:Generated_Source\PSoC5/Termistor.c **** *  the resistance, based on the voltage values.
  30:Generated_Source\PSoC5/Termistor.c **** *
ARM GAS  C:\Users\HENRYH~1\AppData\Local\Temp\cc4zIIO4.s 			page 2


  31:Generated_Source\PSoC5/Termistor.c **** * Parameters:
  32:Generated_Source\PSoC5/Termistor.c **** *  vReference: the voltage across the reference resistor;
  33:Generated_Source\PSoC5/Termistor.c **** *  vThermistor: the voltage across the thermistor.
  34:Generated_Source\PSoC5/Termistor.c **** *  The ratio of these two voltages is used by this function. Therefore, the
  35:Generated_Source\PSoC5/Termistor.c **** *  units for both parameters must be the same.
  36:Generated_Source\PSoC5/Termistor.c **** *
  37:Generated_Source\PSoC5/Termistor.c **** * Return:
  38:Generated_Source\PSoC5/Termistor.c **** *  The return value is the resistance across the thermistor. The value returned
  39:Generated_Source\PSoC5/Termistor.c **** *  is the resistance in Ohms.
  40:Generated_Source\PSoC5/Termistor.c **** *
  41:Generated_Source\PSoC5/Termistor.c **** *******************************************************************************/
  42:Generated_Source\PSoC5/Termistor.c **** uint32 Termistor_GetResistance(int16 vReference, int16 vThermistor)
  43:Generated_Source\PSoC5/Termistor.c ****                                       
  44:Generated_Source\PSoC5/Termistor.c **** {
  28              		.loc 1 44 0
  29              		.cfi_startproc
  30              		@ args = 0, pretend = 0, frame = 0
  31              		@ frame_needed = 0, uses_anonymous_args = 0
  32              		@ link register save eliminated.
  33              	.LVL0:
  45:Generated_Source\PSoC5/Termistor.c ****     int32 resT;
  46:Generated_Source\PSoC5/Termistor.c ****     int16 temp;
  47:Generated_Source\PSoC5/Termistor.c **** 
  48:Generated_Source\PSoC5/Termistor.c ****     /* Calculate thermistor resistance from the voltages */
  49:Generated_Source\PSoC5/Termistor.c ****     resT = Termistor_REF_RESISTOR * ((int32)vThermistor);
  34              		.loc 1 49 0
  35 0000 42F21073 		movw	r3, #10000
  36 0004 03FB01F1 		mul	r1, r3, r1
  37              	.LVL1:
  50:Generated_Source\PSoC5/Termistor.c ****     if (vReference < 0)
  38              		.loc 1 50 0
  39 0008 0028     		cmp	r0, #0
  40              	.LVL2:
  41 000a 05DA     		bge	.L2
  51:Generated_Source\PSoC5/Termistor.c ****     {
  52:Generated_Source\PSoC5/Termistor.c ****         temp = -vReference;
  42              		.loc 1 52 0
  43 000c 4342     		negs	r3, r0
  44              	.LVL3:
  53:Generated_Source\PSoC5/Termistor.c ****         temp = (int16)((uint16)((uint16)temp >> 1u));
  45              		.loc 1 53 0
  46 000e C3F34E03 		ubfx	r3, r3, #1, #15
  47              	.LVL4:
  54:Generated_Source\PSoC5/Termistor.c ****         temp = -temp;
  48              		.loc 1 54 0
  49 0012 5B42     		negs	r3, r3
  50              	.LVL5:
  51 0014 1BB2     		sxth	r3, r3
  52              	.LVL6:
  53 0016 01E0     		b	.L3
  54              	.LVL7:
  55              	.L2:
  55:Generated_Source\PSoC5/Termistor.c ****     }
  56:Generated_Source\PSoC5/Termistor.c ****     else
  57:Generated_Source\PSoC5/Termistor.c ****     {
  58:Generated_Source\PSoC5/Termistor.c ****         temp = (int16)((uint16)((uint16)vReference >> 1u));
  56              		.loc 1 58 0
ARM GAS  C:\Users\HENRYH~1\AppData\Local\Temp\cc4zIIO4.s 			page 3


  57 0018 C0F34E03 		ubfx	r3, r0, #1, #15
  58              	.LVL8:
  59              	.L3:
  59:Generated_Source\PSoC5/Termistor.c ****     }
  60:Generated_Source\PSoC5/Termistor.c ****     resT += temp;
  60              		.loc 1 60 0
  61 001c 1944     		add	r1, r1, r3
  62              	.LVL9:
  61:Generated_Source\PSoC5/Termistor.c ****     resT /= vReference;
  62:Generated_Source\PSoC5/Termistor.c **** 
  63:Generated_Source\PSoC5/Termistor.c ****     /* The ordering of Reference resistor value is specifically designed to keep the result from ov
  64:Generated_Source\PSoC5/Termistor.c ****     return ((uint32)((uint32)resT << Termistor_REF_RES_SHIFT));
  65:Generated_Source\PSoC5/Termistor.c **** }
  63              		.loc 1 65 0
  64 001e 91FBF0F0 		sdiv	r0, r1, r0
  65              	.LVL10:
  66 0022 7047     		bx	lr
  67              		.cfi_endproc
  68              	.LFE0:
  69              		.size	Termistor_GetResistance, .-Termistor_GetResistance
  70              		.global	__aeabi_ui2d
  71              		.global	__aeabi_d2f
  72              		.global	__aeabi_f2d
  73              		.global	__aeabi_dmul
  74              		.global	__aeabi_dadd
  75              		.global	__aeabi_ddiv
  76              		.global	__aeabi_dsub
  77              		.global	__aeabi_f2iz
  78              		.section	.text.Termistor_GetTemperature,"ax",%progbits
  79              		.align	2
  80              		.global	Termistor_GetTemperature
  81              		.thumb
  82              		.thumb_func
  83              		.type	Termistor_GetTemperature, %function
  84              	Termistor_GetTemperature:
  85              	.LFB1:
  66:Generated_Source\PSoC5/Termistor.c **** 
  67:Generated_Source\PSoC5/Termistor.c **** 
  68:Generated_Source\PSoC5/Termistor.c **** /*******************************************************************************
  69:Generated_Source\PSoC5/Termistor.c **** * Function Name: Termistor_GetTemperature
  70:Generated_Source\PSoC5/Termistor.c **** ********************************************************************************
  71:Generated_Source\PSoC5/Termistor.c **** *
  72:Generated_Source\PSoC5/Termistor.c **** * Summary:
  73:Generated_Source\PSoC5/Termistor.c **** *  The value of the thermistor resistance is passed to this function as a
  74:Generated_Source\PSoC5/Termistor.c **** *  parameter. The function returns the temperature, based on the resistance
  75:Generated_Source\PSoC5/Termistor.c **** *  value. The method used to calculate the temperature is dependent on whether
  76:Generated_Source\PSoC5/Termistor.c **** *  Equation or LUT was selected in the Customizer.
  77:Generated_Source\PSoC5/Termistor.c **** *
  78:Generated_Source\PSoC5/Termistor.c **** * Parameters:
  79:Generated_Source\PSoC5/Termistor.c **** *  resT: the resistance across the thermistor in Ohms.
  80:Generated_Source\PSoC5/Termistor.c **** *
  81:Generated_Source\PSoC5/Termistor.c **** * Return:
  82:Generated_Source\PSoC5/Termistor.c **** *  The return value is the temperature in 1/100ths of degrees C. For example,
  83:Generated_Source\PSoC5/Termistor.c **** *  the return value is 2345, when the actual temperature is 23.45 degrees C.
  84:Generated_Source\PSoC5/Termistor.c **** *
  85:Generated_Source\PSoC5/Termistor.c **** *******************************************************************************/
  86:Generated_Source\PSoC5/Termistor.c **** int16 Termistor_GetTemperature(uint32 resT) 
ARM GAS  C:\Users\HENRYH~1\AppData\Local\Temp\cc4zIIO4.s 			page 4


  87:Generated_Source\PSoC5/Termistor.c **** {
  86              		.loc 1 87 0
  87              		.cfi_startproc
  88              		@ args = 0, pretend = 0, frame = 0
  89              		@ frame_needed = 0, uses_anonymous_args = 0
  90              	.LVL11:
  91 0000 F8B5     		push	{r3, r4, r5, r6, r7, lr}
  92              		.cfi_def_cfa_offset 24
  93              		.cfi_offset 3, -24
  94              		.cfi_offset 4, -20
  95              		.cfi_offset 5, -16
  96              		.cfi_offset 6, -12
  97              		.cfi_offset 7, -8
  98              		.cfi_offset 14, -4
  88:Generated_Source\PSoC5/Termistor.c ****     int16 tempTR;
  89:Generated_Source\PSoC5/Termistor.c ****     
  90:Generated_Source\PSoC5/Termistor.c ****     #if (Termistor_IMPLEMENTATION == Termistor_EQUATION_METHOD)
  91:Generated_Source\PSoC5/Termistor.c **** 
  92:Generated_Source\PSoC5/Termistor.c ****         float32 stEqn;
  93:Generated_Source\PSoC5/Termistor.c ****         float32 logrT;
  94:Generated_Source\PSoC5/Termistor.c **** 
  95:Generated_Source\PSoC5/Termistor.c ****         /* Calculate thermistor resistance from the voltages */
  96:Generated_Source\PSoC5/Termistor.c ****         #if(!CY_PSOC3)
  97:Generated_Source\PSoC5/Termistor.c ****             logrT = (float32)log((float64)resT);
  99              		.loc 1 97 0
 100 0002 FFF7FEFF 		bl	__aeabi_ui2d
 101              	.LVL12:
 102 0006 FFF7FEFF 		bl	log
 103              	.LVL13:
 104 000a FFF7FEFF 		bl	__aeabi_d2f
 105              	.LVL14:
  98:Generated_Source\PSoC5/Termistor.c ****         #else
  99:Generated_Source\PSoC5/Termistor.c ****             logrT = log((float32)resT);
 100:Generated_Source\PSoC5/Termistor.c ****         #endif  /* (!CY_PSOC3) */
 101:Generated_Source\PSoC5/Termistor.c **** 
 102:Generated_Source\PSoC5/Termistor.c ****         /* Calculate temperature from the resistance of thermistor using Steinhart-Hart Equation */
 103:Generated_Source\PSoC5/Termistor.c ****         #if(!CY_PSOC3)
 104:Generated_Source\PSoC5/Termistor.c ****             stEqn = (float32)(Termistor_THA + (Termistor_THB * logrT) + 
 106              		.loc 1 104 0
 107 000e FFF7FEFF 		bl	__aeabi_f2d
 108              	.LVL15:
 109 0012 0646     		mov	r6, r0
 110 0014 0F46     		mov	r7, r1
 111 0016 1EA3     		adr	r3, .L6
 112 0018 D3E90023 		ldrd	r2, [r3]
 113 001c FFF7FEFF 		bl	__aeabi_dmul
 114              	.LVL16:
 115 0020 1DA3     		adr	r3, .L6+8
 116 0022 D3E90023 		ldrd	r2, [r3]
 117 0026 FFF7FEFF 		bl	__aeabi_dadd
 118              	.LVL17:
 119 002a 0446     		mov	r4, r0
 120 002c 0D46     		mov	r5, r1
 105:Generated_Source\PSoC5/Termistor.c ****                              (Termistor_THC * pow((float64)logrT, (float32)3)));
 121              		.loc 1 105 0
 122 002e 0022     		movs	r2, #0
 123 0030 1F4B     		ldr	r3, .L6+32
ARM GAS  C:\Users\HENRYH~1\AppData\Local\Temp\cc4zIIO4.s 			page 5


 124 0032 3046     		mov	r0, r6
 125 0034 3946     		mov	r1, r7
 126 0036 FFF7FEFF 		bl	pow
 127              	.LVL18:
 128 003a 19A3     		adr	r3, .L6+16
 129 003c D3E90023 		ldrd	r2, [r3]
 130 0040 FFF7FEFF 		bl	__aeabi_dmul
 131              	.LVL19:
 104:Generated_Source\PSoC5/Termistor.c ****                              (Termistor_THC * pow((float64)logrT, (float32)3)));
 132              		.loc 1 104 0
 133 0044 0246     		mov	r2, r0
 134 0046 0B46     		mov	r3, r1
 135 0048 2046     		mov	r0, r4
 136 004a 2946     		mov	r1, r5
 137 004c FFF7FEFF 		bl	__aeabi_dadd
 138              	.LVL20:
 139 0050 FFF7FEFF 		bl	__aeabi_d2f
 140              	.LVL21:
 106:Generated_Source\PSoC5/Termistor.c ****         #else
 107:Generated_Source\PSoC5/Termistor.c ****             stEqn = (float32)(Termistor_THA + (Termistor_THB * logrT) + 
 108:Generated_Source\PSoC5/Termistor.c ****                              (Termistor_THC * pow(logrT, (float32)3)));
 109:Generated_Source\PSoC5/Termistor.c ****         #endif  /* (!CY_PSOC3) */
 110:Generated_Source\PSoC5/Termistor.c **** 
 111:Generated_Source\PSoC5/Termistor.c ****         tempTR = (int16)((float32)((((1.0 / stEqn) - Termistor_K2C) * (float32)Termistor_SCALE) + 0
 141              		.loc 1 111 0
 142 0054 FFF7FEFF 		bl	__aeabi_f2d
 143              	.LVL22:
 144 0058 0246     		mov	r2, r0
 145 005a 0B46     		mov	r3, r1
 146 005c 0020     		movs	r0, #0
 147 005e 1549     		ldr	r1, .L6+36
 148 0060 FFF7FEFF 		bl	__aeabi_ddiv
 149              	.LVL23:
 150 0064 10A3     		adr	r3, .L6+24
 151 0066 D3E90023 		ldrd	r2, [r3]
 152 006a FFF7FEFF 		bl	__aeabi_dsub
 153              	.LVL24:
 154 006e 0022     		movs	r2, #0
 155 0070 114B     		ldr	r3, .L6+40
 156 0072 FFF7FEFF 		bl	__aeabi_dmul
 157              	.LVL25:
 158 0076 0022     		movs	r2, #0
 159 0078 104B     		ldr	r3, .L6+44
 160 007a FFF7FEFF 		bl	__aeabi_dadd
 161              	.LVL26:
 162 007e FFF7FEFF 		bl	__aeabi_d2f
 163              	.LVL27:
 164 0082 FFF7FEFF 		bl	__aeabi_f2iz
 165              	.LVL28:
 112:Generated_Source\PSoC5/Termistor.c **** 
 113:Generated_Source\PSoC5/Termistor.c ****     #else /* Termistor_IMPLEMENTATION == Termistor_LUT_METHOD */
 114:Generated_Source\PSoC5/Termistor.c **** 
 115:Generated_Source\PSoC5/Termistor.c ****         uint16 mid;
 116:Generated_Source\PSoC5/Termistor.c ****         uint16 first = 0u;
 117:Generated_Source\PSoC5/Termistor.c ****         uint16 last = Termistor_LUT_SIZE - 1u;
 118:Generated_Source\PSoC5/Termistor.c **** 
 119:Generated_Source\PSoC5/Termistor.c ****         /* Calculate temperature from the resistance of thermistor by using the LUT */
ARM GAS  C:\Users\HENRYH~1\AppData\Local\Temp\cc4zIIO4.s 			page 6


 120:Generated_Source\PSoC5/Termistor.c ****         while (first < last)
 121:Generated_Source\PSoC5/Termistor.c ****         {
 122:Generated_Source\PSoC5/Termistor.c ****             mid = (first + last) >> 1u;
 123:Generated_Source\PSoC5/Termistor.c **** 
 124:Generated_Source\PSoC5/Termistor.c ****             if ((0u == mid) || ((Termistor_LUT_SIZE - 1u) == mid) || (resT == Termistor_LUT[mid]))
 125:Generated_Source\PSoC5/Termistor.c ****             {
 126:Generated_Source\PSoC5/Termistor.c ****                 last = mid;
 127:Generated_Source\PSoC5/Termistor.c ****                 break;
 128:Generated_Source\PSoC5/Termistor.c ****             }
 129:Generated_Source\PSoC5/Termistor.c ****             else if (Termistor_LUT[mid] > resT)
 130:Generated_Source\PSoC5/Termistor.c ****             {
 131:Generated_Source\PSoC5/Termistor.c ****                 first = mid + 1u;
 132:Generated_Source\PSoC5/Termistor.c ****             }
 133:Generated_Source\PSoC5/Termistor.c ****             else /* (Termistor_LUT[mid] < resT) */
 134:Generated_Source\PSoC5/Termistor.c ****             {
 135:Generated_Source\PSoC5/Termistor.c ****                 last = mid - 1u;
 136:Generated_Source\PSoC5/Termistor.c ****             }
 137:Generated_Source\PSoC5/Termistor.c ****         }
 138:Generated_Source\PSoC5/Termistor.c **** 
 139:Generated_Source\PSoC5/Termistor.c ****         /* Calculation the closest entry in the LUT */
 140:Generated_Source\PSoC5/Termistor.c ****         if ((Termistor_LUT[last] > resT) && (last < (Termistor_LUT_SIZE - 1u)) &&
 141:Generated_Source\PSoC5/Termistor.c ****            ((Termistor_LUT[last] - resT) > (resT - Termistor_LUT[last + 1u])))
 142:Generated_Source\PSoC5/Termistor.c ****         {
 143:Generated_Source\PSoC5/Termistor.c ****             last++;
 144:Generated_Source\PSoC5/Termistor.c ****         }
 145:Generated_Source\PSoC5/Termistor.c ****         else if ((Termistor_LUT[last] < resT) && (last > 0u) &&
 146:Generated_Source\PSoC5/Termistor.c ****                 ((Termistor_LUT[last - 1u] - resT) < (resT - Termistor_LUT[last])))
 147:Generated_Source\PSoC5/Termistor.c ****         {
 148:Generated_Source\PSoC5/Termistor.c ****             last--;
 149:Generated_Source\PSoC5/Termistor.c ****         }
 150:Generated_Source\PSoC5/Termistor.c ****         else
 151:Generated_Source\PSoC5/Termistor.c ****         {
 152:Generated_Source\PSoC5/Termistor.c ****             /* Closest entry in the LUT already found */
 153:Generated_Source\PSoC5/Termistor.c ****         }
 154:Generated_Source\PSoC5/Termistor.c **** 
 155:Generated_Source\PSoC5/Termistor.c ****         tempTR = Termistor_MIN_TEMP + (int16)((uint16)(last * Termistor_ACCURACY));
 156:Generated_Source\PSoC5/Termistor.c **** 
 157:Generated_Source\PSoC5/Termistor.c ****     #endif /* (Termistor_IMPLEMENTATION == Termistor_EQUATION_METHOD) */
 158:Generated_Source\PSoC5/Termistor.c **** 
 159:Generated_Source\PSoC5/Termistor.c ****     return (tempTR);
 160:Generated_Source\PSoC5/Termistor.c **** }
 166              		.loc 1 160 0
 167 0086 00B2     		sxth	r0, r0
 168 0088 F8BD     		pop	{r3, r4, r5, r6, r7, pc}
 169              	.L7:
 170 008a 00BFAFF3 		.align	3
 170      0080
 171              	.L6:
 172 0090 6943AA9A 		.word	-1700117655
 173 0094 B34D303F 		.word	1060130227
 174 0098 D8FD850B 		.word	193330648
 175 009c 29994D3F 		.word	1062050089
 176 00a0 4D33E444 		.word	1155806029
 177 00a4 25658B3E 		.word	1049322789
 178 00a8 66666666 		.word	1717986918
 179 00ac 66127140 		.word	1081152102
 180 00b0 00000840 		.word	1074266112
ARM GAS  C:\Users\HENRYH~1\AppData\Local\Temp\cc4zIIO4.s 			page 7


 181 00b4 0000F03F 		.word	1072693248
 182 00b8 00005940 		.word	1079574528
 183 00bc 0000E03F 		.word	1071644672
 184              		.cfi_endproc
 185              	.LFE1:
 186              		.size	Termistor_GetTemperature, .-Termistor_GetTemperature
 187              		.text
 188              	.Letext0:
 189              		.file 2 "Generated_Source\\PSoC5\\cytypes.h"
 190              		.file 3 "c:\\program files (x86)\\cypress\\psoc creator\\4.4\\psoc creator\\import\\gnu\\arm\\5.4.