ARM GAS  C:\Users\HENRYH~1\AppData\Local\Temp\ccGH8J4o.s 			page 1


   1              		.syntax unified
   2              		.cpu cortex-m3
   3              		.fpu softvfp
   4              		.eabi_attribute 20, 1
   5              		.eabi_attribute 21, 1
   6              		.eabi_attribute 23, 3
   7              		.eabi_attribute 24, 1
   8              		.eabi_attribute 25, 1
   9              		.eabi_attribute 26, 1
  10              		.eabi_attribute 30, 1
  11              		.eabi_attribute 34, 1
  12              		.eabi_attribute 18, 4
  13              		.thumb
  14              		.syntax unified
  15              		.file	"cyfitter_cfg.c"
  16              		.text
  17              	.Ltext0:
  18              		.cfi_sections	.debug_frame
  19              		.section	.text.CyClockStartupError,"ax",%progbits
  20              		.align	2
  21              		.thumb
  22              		.thumb_func
  23              		.type	CyClockStartupError, %function
  24              	CyClockStartupError:
  25              	.LFB3:
  26              		.file 1 "Generated_Source\\PSoC5\\cyfitter_cfg.c"
   1:Generated_Source\PSoC5/cyfitter_cfg.c **** 
   2:Generated_Source\PSoC5/cyfitter_cfg.c **** /*******************************************************************************
   3:Generated_Source\PSoC5/cyfitter_cfg.c **** * File Name: cyfitter_cfg.c
   4:Generated_Source\PSoC5/cyfitter_cfg.c **** * 
   5:Generated_Source\PSoC5/cyfitter_cfg.c **** * PSoC Creator  4.4
   6:Generated_Source\PSoC5/cyfitter_cfg.c **** *
   7:Generated_Source\PSoC5/cyfitter_cfg.c **** * Description:
   8:Generated_Source\PSoC5/cyfitter_cfg.c **** * This file contains device initialization code.
   9:Generated_Source\PSoC5/cyfitter_cfg.c **** * Except for the user defined sections in CyClockStartupError(), this file should not be modified.
  10:Generated_Source\PSoC5/cyfitter_cfg.c **** * This file is automatically generated by PSoC Creator.
  11:Generated_Source\PSoC5/cyfitter_cfg.c **** *
  12:Generated_Source\PSoC5/cyfitter_cfg.c **** ********************************************************************************
  13:Generated_Source\PSoC5/cyfitter_cfg.c **** * Copyright (c) 2007-2020 Cypress Semiconductor.  All rights reserved.
  14:Generated_Source\PSoC5/cyfitter_cfg.c **** * You may use this file only in accordance with the license, terms, conditions, 
  15:Generated_Source\PSoC5/cyfitter_cfg.c **** * disclaimers, and limitations in the end user license agreement accompanying 
  16:Generated_Source\PSoC5/cyfitter_cfg.c **** * the software package with which this file was provided.
  17:Generated_Source\PSoC5/cyfitter_cfg.c **** ********************************************************************************/
  18:Generated_Source\PSoC5/cyfitter_cfg.c **** 
  19:Generated_Source\PSoC5/cyfitter_cfg.c **** #include <string.h>
  20:Generated_Source\PSoC5/cyfitter_cfg.c **** #include "cytypes.h"
  21:Generated_Source\PSoC5/cyfitter_cfg.c **** #include "cydevice_trm.h"
  22:Generated_Source\PSoC5/cyfitter_cfg.c **** #include "cyfitter.h"
  23:Generated_Source\PSoC5/cyfitter_cfg.c **** #include "CyLib.h"
  24:Generated_Source\PSoC5/cyfitter_cfg.c **** #include "cyfitter_cfg.h"
  25:Generated_Source\PSoC5/cyfitter_cfg.c **** #include "cyapicallbacks.h"
  26:Generated_Source\PSoC5/cyfitter_cfg.c **** 
  27:Generated_Source\PSoC5/cyfitter_cfg.c **** #define CY_NEED_CYCLOCKSTARTUPERROR 1
  28:Generated_Source\PSoC5/cyfitter_cfg.c **** 
  29:Generated_Source\PSoC5/cyfitter_cfg.c **** 
  30:Generated_Source\PSoC5/cyfitter_cfg.c **** #if defined(__GNUC__) || defined(__ARMCC_VERSION)
  31:Generated_Source\PSoC5/cyfitter_cfg.c ****     #define CYPACKED 
ARM GAS  C:\Users\HENRYH~1\AppData\Local\Temp\ccGH8J4o.s 			page 2


  32:Generated_Source\PSoC5/cyfitter_cfg.c ****     #define CYPACKED_ATTR __attribute__ ((packed))
  33:Generated_Source\PSoC5/cyfitter_cfg.c ****     #define CYALIGNED __attribute__ ((aligned))
  34:Generated_Source\PSoC5/cyfitter_cfg.c ****     #define CY_CFG_UNUSED __attribute__ ((unused))
  35:Generated_Source\PSoC5/cyfitter_cfg.c ****     #ifndef CY_CFG_SECTION
  36:Generated_Source\PSoC5/cyfitter_cfg.c ****         #define CY_CFG_SECTION __attribute__ ((section(".psocinit")))
  37:Generated_Source\PSoC5/cyfitter_cfg.c ****     #endif
  38:Generated_Source\PSoC5/cyfitter_cfg.c ****     
  39:Generated_Source\PSoC5/cyfitter_cfg.c ****     #if defined(__ARMCC_VERSION)
  40:Generated_Source\PSoC5/cyfitter_cfg.c ****         #define CY_CFG_MEMORY_BARRIER() __memory_changed()
  41:Generated_Source\PSoC5/cyfitter_cfg.c ****     #else
  42:Generated_Source\PSoC5/cyfitter_cfg.c ****         #define CY_CFG_MEMORY_BARRIER() __sync_synchronize()
  43:Generated_Source\PSoC5/cyfitter_cfg.c ****     #endif
  44:Generated_Source\PSoC5/cyfitter_cfg.c ****     
  45:Generated_Source\PSoC5/cyfitter_cfg.c **** #elif defined(__ICCARM__)
  46:Generated_Source\PSoC5/cyfitter_cfg.c ****     #include <intrinsics.h>
  47:Generated_Source\PSoC5/cyfitter_cfg.c **** 
  48:Generated_Source\PSoC5/cyfitter_cfg.c ****     #define CYPACKED __packed
  49:Generated_Source\PSoC5/cyfitter_cfg.c ****     #define CYPACKED_ATTR 
  50:Generated_Source\PSoC5/cyfitter_cfg.c ****     #define CYALIGNED _Pragma("data_alignment=4")
  51:Generated_Source\PSoC5/cyfitter_cfg.c ****     #define CY_CFG_UNUSED _Pragma("diag_suppress=Pe177")
  52:Generated_Source\PSoC5/cyfitter_cfg.c ****     #define CY_CFG_SECTION _Pragma("location=\".psocinit\"")
  53:Generated_Source\PSoC5/cyfitter_cfg.c ****     
  54:Generated_Source\PSoC5/cyfitter_cfg.c ****     #define CY_CFG_MEMORY_BARRIER() __DMB()
  55:Generated_Source\PSoC5/cyfitter_cfg.c ****     
  56:Generated_Source\PSoC5/cyfitter_cfg.c **** #else
  57:Generated_Source\PSoC5/cyfitter_cfg.c ****     #error Unsupported toolchain
  58:Generated_Source\PSoC5/cyfitter_cfg.c **** #endif
  59:Generated_Source\PSoC5/cyfitter_cfg.c **** 
  60:Generated_Source\PSoC5/cyfitter_cfg.c **** #ifndef CYCODE
  61:Generated_Source\PSoC5/cyfitter_cfg.c ****     #define CYCODE
  62:Generated_Source\PSoC5/cyfitter_cfg.c **** #endif
  63:Generated_Source\PSoC5/cyfitter_cfg.c **** #ifndef CYDATA
  64:Generated_Source\PSoC5/cyfitter_cfg.c ****     #define CYDATA
  65:Generated_Source\PSoC5/cyfitter_cfg.c **** #endif
  66:Generated_Source\PSoC5/cyfitter_cfg.c **** #ifndef CYFAR
  67:Generated_Source\PSoC5/cyfitter_cfg.c ****     #define CYFAR
  68:Generated_Source\PSoC5/cyfitter_cfg.c **** #endif
  69:Generated_Source\PSoC5/cyfitter_cfg.c **** #ifndef CYXDATA
  70:Generated_Source\PSoC5/cyfitter_cfg.c ****     #define CYXDATA
  71:Generated_Source\PSoC5/cyfitter_cfg.c **** #endif
  72:Generated_Source\PSoC5/cyfitter_cfg.c **** 
  73:Generated_Source\PSoC5/cyfitter_cfg.c **** 
  74:Generated_Source\PSoC5/cyfitter_cfg.c **** CY_CFG_UNUSED
  75:Generated_Source\PSoC5/cyfitter_cfg.c **** static void CYMEMZERO(void *s, size_t n);
  76:Generated_Source\PSoC5/cyfitter_cfg.c **** CY_CFG_UNUSED
  77:Generated_Source\PSoC5/cyfitter_cfg.c **** static void CYMEMZERO(void *s, size_t n)
  78:Generated_Source\PSoC5/cyfitter_cfg.c **** {
  79:Generated_Source\PSoC5/cyfitter_cfg.c **** 	(void)memset(s, 0, n);
  80:Generated_Source\PSoC5/cyfitter_cfg.c **** }
  81:Generated_Source\PSoC5/cyfitter_cfg.c **** CY_CFG_UNUSED
  82:Generated_Source\PSoC5/cyfitter_cfg.c **** static void CYCONFIGCPY(void *dest, const void *src, size_t n);
  83:Generated_Source\PSoC5/cyfitter_cfg.c **** CY_CFG_UNUSED
  84:Generated_Source\PSoC5/cyfitter_cfg.c **** static void CYCONFIGCPY(void *dest, const void *src, size_t n)
  85:Generated_Source\PSoC5/cyfitter_cfg.c **** {
  86:Generated_Source\PSoC5/cyfitter_cfg.c **** 	(void)memcpy(dest, src, n);
  87:Generated_Source\PSoC5/cyfitter_cfg.c **** }
  88:Generated_Source\PSoC5/cyfitter_cfg.c **** CY_CFG_UNUSED
ARM GAS  C:\Users\HENRYH~1\AppData\Local\Temp\ccGH8J4o.s 			page 3


  89:Generated_Source\PSoC5/cyfitter_cfg.c **** static void CYCONFIGCPYCODE(void *dest, const void *src, size_t n);
  90:Generated_Source\PSoC5/cyfitter_cfg.c **** CY_CFG_UNUSED
  91:Generated_Source\PSoC5/cyfitter_cfg.c **** static void CYCONFIGCPYCODE(void *dest, const void *src, size_t n)
  92:Generated_Source\PSoC5/cyfitter_cfg.c **** {
  93:Generated_Source\PSoC5/cyfitter_cfg.c **** 	(void)memcpy(dest, src, n);
  94:Generated_Source\PSoC5/cyfitter_cfg.c **** }
  95:Generated_Source\PSoC5/cyfitter_cfg.c **** 
  96:Generated_Source\PSoC5/cyfitter_cfg.c **** 
  97:Generated_Source\PSoC5/cyfitter_cfg.c **** 
  98:Generated_Source\PSoC5/cyfitter_cfg.c **** 
  99:Generated_Source\PSoC5/cyfitter_cfg.c **** /* Clock startup error codes                                                   */
 100:Generated_Source\PSoC5/cyfitter_cfg.c **** #define CYCLOCKSTART_NO_ERROR    0u
 101:Generated_Source\PSoC5/cyfitter_cfg.c **** #define CYCLOCKSTART_XTAL_ERROR  1u
 102:Generated_Source\PSoC5/cyfitter_cfg.c **** #define CYCLOCKSTART_32KHZ_ERROR 2u
 103:Generated_Source\PSoC5/cyfitter_cfg.c **** #define CYCLOCKSTART_PLL_ERROR   3u
 104:Generated_Source\PSoC5/cyfitter_cfg.c **** #define CYCLOCKSTART_FLL_ERROR   4u
 105:Generated_Source\PSoC5/cyfitter_cfg.c **** #define CYCLOCKSTART_WCO_ERROR   5u
 106:Generated_Source\PSoC5/cyfitter_cfg.c **** 
 107:Generated_Source\PSoC5/cyfitter_cfg.c **** 
 108:Generated_Source\PSoC5/cyfitter_cfg.c **** #ifdef CY_NEED_CYCLOCKSTARTUPERROR
 109:Generated_Source\PSoC5/cyfitter_cfg.c **** /*******************************************************************************
 110:Generated_Source\PSoC5/cyfitter_cfg.c **** * Function Name: CyClockStartupError
 111:Generated_Source\PSoC5/cyfitter_cfg.c **** ********************************************************************************
 112:Generated_Source\PSoC5/cyfitter_cfg.c **** * Summary:
 113:Generated_Source\PSoC5/cyfitter_cfg.c **** *  If an error is encountered during clock configuration (crystal startup error,
 114:Generated_Source\PSoC5/cyfitter_cfg.c **** *  PLL lock error, etc.), the system will end up here.  Unless reimplemented by
 115:Generated_Source\PSoC5/cyfitter_cfg.c **** *  the customer, this function will stop in an infinite loop.
 116:Generated_Source\PSoC5/cyfitter_cfg.c **** *
 117:Generated_Source\PSoC5/cyfitter_cfg.c **** * Parameters:
 118:Generated_Source\PSoC5/cyfitter_cfg.c **** *   void
 119:Generated_Source\PSoC5/cyfitter_cfg.c **** *
 120:Generated_Source\PSoC5/cyfitter_cfg.c **** * Return:
 121:Generated_Source\PSoC5/cyfitter_cfg.c **** *   void
 122:Generated_Source\PSoC5/cyfitter_cfg.c **** *
 123:Generated_Source\PSoC5/cyfitter_cfg.c **** *******************************************************************************/
 124:Generated_Source\PSoC5/cyfitter_cfg.c **** CY_CFG_UNUSED
 125:Generated_Source\PSoC5/cyfitter_cfg.c **** static void CyClockStartupError(uint8 errorCode);
 126:Generated_Source\PSoC5/cyfitter_cfg.c **** CY_CFG_UNUSED
 127:Generated_Source\PSoC5/cyfitter_cfg.c **** static void CyClockStartupError(uint8 errorCode)
 128:Generated_Source\PSoC5/cyfitter_cfg.c **** {
  27              		.loc 1 128 0
  28              		.cfi_startproc
  29              		@ Volatile: function does not return.
  30              		@ args = 0, pretend = 0, frame = 0
  31              		@ frame_needed = 0, uses_anonymous_args = 0
  32              		@ link register save eliminated.
  33              	.LVL0:
  34              	.L2:
  35 0000 FEE7     		b	.L2
  36              		.cfi_endproc
  37              	.LFE3:
  38              		.size	CyClockStartupError, .-CyClockStartupError
  39 0002 00BF     		.section	.text.cfg_write_bytes32,"ax",%progbits
  40              		.align	2
  41              		.thumb
  42              		.thumb_func
  43              		.type	cfg_write_bytes32, %function
ARM GAS  C:\Users\HENRYH~1\AppData\Local\Temp\ccGH8J4o.s 			page 4


  44              	cfg_write_bytes32:
  45              	.LFB4:
 129:Generated_Source\PSoC5/cyfitter_cfg.c ****     /* To remove the compiler warning if errorCode not used.                */
 130:Generated_Source\PSoC5/cyfitter_cfg.c ****     errorCode = errorCode;
 131:Generated_Source\PSoC5/cyfitter_cfg.c **** 
 132:Generated_Source\PSoC5/cyfitter_cfg.c ****     /* If we have a clock startup error (bad MHz crystal, PLL lock, etc.),  */
 133:Generated_Source\PSoC5/cyfitter_cfg.c ****     /* we will end up here to allow the customer to implement something to  */
 134:Generated_Source\PSoC5/cyfitter_cfg.c ****     /* deal with the clock condition.                                       */
 135:Generated_Source\PSoC5/cyfitter_cfg.c **** 
 136:Generated_Source\PSoC5/cyfitter_cfg.c **** #ifdef CY_CFG_CLOCK_STARTUP_ERROR_CALLBACK
 137:Generated_Source\PSoC5/cyfitter_cfg.c ****     CY_CFG_Clock_Startup_ErrorCallback();
 138:Generated_Source\PSoC5/cyfitter_cfg.c **** #else
 139:Generated_Source\PSoC5/cyfitter_cfg.c ****     /*  If not using CY_CFG_CLOCK_STARTUP_ERROR_CALLBACK, place your clock startup code here. */
 140:Generated_Source\PSoC5/cyfitter_cfg.c ****     /* `#START CyClockStartupError` */
 141:Generated_Source\PSoC5/cyfitter_cfg.c **** 
 142:Generated_Source\PSoC5/cyfitter_cfg.c **** 
 143:Generated_Source\PSoC5/cyfitter_cfg.c **** 
 144:Generated_Source\PSoC5/cyfitter_cfg.c ****     /* `#END` */
 145:Generated_Source\PSoC5/cyfitter_cfg.c **** 
 146:Generated_Source\PSoC5/cyfitter_cfg.c ****     while(1) {}
 147:Generated_Source\PSoC5/cyfitter_cfg.c **** #endif /* CY_CFG_CLOCK_STARTUP_ERROR_CALLBACK */
 148:Generated_Source\PSoC5/cyfitter_cfg.c **** }
 149:Generated_Source\PSoC5/cyfitter_cfg.c **** #endif
 150:Generated_Source\PSoC5/cyfitter_cfg.c **** 
 151:Generated_Source\PSoC5/cyfitter_cfg.c **** #define CY_CFG_BASE_ADDR_COUNT 7u
 152:Generated_Source\PSoC5/cyfitter_cfg.c **** CYPACKED typedef struct
 153:Generated_Source\PSoC5/cyfitter_cfg.c **** {
 154:Generated_Source\PSoC5/cyfitter_cfg.c **** 	uint8 offset;
 155:Generated_Source\PSoC5/cyfitter_cfg.c **** 	uint8 value;
 156:Generated_Source\PSoC5/cyfitter_cfg.c **** } CYPACKED_ATTR cy_cfg_addrvalue_t;
 157:Generated_Source\PSoC5/cyfitter_cfg.c **** 
 158:Generated_Source\PSoC5/cyfitter_cfg.c **** #define cy_cfg_addr_table ((const uint32 CYFAR *)0x48000000u)
 159:Generated_Source\PSoC5/cyfitter_cfg.c **** #define cy_cfg_data_table ((const cy_cfg_addrvalue_t CYFAR *)0x4800001Cu)
 160:Generated_Source\PSoC5/cyfitter_cfg.c **** 
 161:Generated_Source\PSoC5/cyfitter_cfg.c **** /* IOPINS0_7 Address: CYREG_PRT12_DM0 Size (bytes): 8 */
 162:Generated_Source\PSoC5/cyfitter_cfg.c **** #define BS_IOPINS0_7_VAL ((const uint8 CYFAR *)0x48000038u)
 163:Generated_Source\PSoC5/cyfitter_cfg.c **** 
 164:Generated_Source\PSoC5/cyfitter_cfg.c **** /* IOPINS0_1 Address: CYREG_PRT1_DM0 Size (bytes): 8 */
 165:Generated_Source\PSoC5/cyfitter_cfg.c **** #define BS_IOPINS0_1_VAL ((const uint8 CYFAR *)0x48000040u)
 166:Generated_Source\PSoC5/cyfitter_cfg.c **** 
 167:Generated_Source\PSoC5/cyfitter_cfg.c **** /* IOPINS0_2 Address: CYREG_PRT2_DM0 Size (bytes): 8 */
 168:Generated_Source\PSoC5/cyfitter_cfg.c **** #define BS_IOPINS0_2_VAL ((const uint8 CYFAR *)0x48000048u)
 169:Generated_Source\PSoC5/cyfitter_cfg.c **** 
 170:Generated_Source\PSoC5/cyfitter_cfg.c **** 
 171:Generated_Source\PSoC5/cyfitter_cfg.c **** /*******************************************************************************
 172:Generated_Source\PSoC5/cyfitter_cfg.c **** * Function Name: cfg_write_bytes32
 173:Generated_Source\PSoC5/cyfitter_cfg.c **** ********************************************************************************
 174:Generated_Source\PSoC5/cyfitter_cfg.c **** * Summary:
 175:Generated_Source\PSoC5/cyfitter_cfg.c **** *  This function is used for setting up the chip configuration areas that
 176:Generated_Source\PSoC5/cyfitter_cfg.c **** *  contain relatively sparse data.
 177:Generated_Source\PSoC5/cyfitter_cfg.c **** *
 178:Generated_Source\PSoC5/cyfitter_cfg.c **** * Parameters:
 179:Generated_Source\PSoC5/cyfitter_cfg.c **** *   void
 180:Generated_Source\PSoC5/cyfitter_cfg.c **** *
 181:Generated_Source\PSoC5/cyfitter_cfg.c **** * Return:
 182:Generated_Source\PSoC5/cyfitter_cfg.c **** *   void
 183:Generated_Source\PSoC5/cyfitter_cfg.c **** *
ARM GAS  C:\Users\HENRYH~1\AppData\Local\Temp\ccGH8J4o.s 			page 5


 184:Generated_Source\PSoC5/cyfitter_cfg.c **** *******************************************************************************/
 185:Generated_Source\PSoC5/cyfitter_cfg.c **** static void cfg_write_bytes32(const uint32 addr_table[], const cy_cfg_addrvalue_t data_table[]);
 186:Generated_Source\PSoC5/cyfitter_cfg.c **** static void cfg_write_bytes32(const uint32 addr_table[], const cy_cfg_addrvalue_t data_table[])
 187:Generated_Source\PSoC5/cyfitter_cfg.c **** {
  46              		.loc 1 187 0
  47              		.cfi_startproc
  48              		@ args = 0, pretend = 0, frame = 0
  49              		@ frame_needed = 0, uses_anonymous_args = 0
  50              		@ link register save eliminated.
  51              	.LVL1:
  52              		.loc 1 187 0
  53 0000 F0B4     		push	{r4, r5, r6, r7}
  54              		.cfi_def_cfa_offset 16
  55              		.cfi_offset 4, -16
  56              		.cfi_offset 5, -12
  57              		.cfi_offset 6, -8
  58              		.cfi_offset 7, -4
  59              	.LVL2:
 188:Generated_Source\PSoC5/cyfitter_cfg.c **** 	/* For 32-bit little-endian architectures */
 189:Generated_Source\PSoC5/cyfitter_cfg.c **** 	uint32 i, j = 0u;
  60              		.loc 1 189 0
  61 0002 0022     		movs	r2, #0
 190:Generated_Source\PSoC5/cyfitter_cfg.c **** 	for (i = 0u; i < CY_CFG_BASE_ADDR_COUNT; i++)
  62              		.loc 1 190 0
  63 0004 1746     		mov	r7, r2
  64 0006 11E0     		b	.L4
  65              	.LVL3:
  66              	.L7:
  67              	.LBB2:
 191:Generated_Source\PSoC5/cyfitter_cfg.c **** 	{
 192:Generated_Source\PSoC5/cyfitter_cfg.c **** 		uint32 baseAddr = addr_table[i];
  68              		.loc 1 192 0
  69 0008 50F82760 		ldr	r6, [r0, r7, lsl #2]
  70              	.LVL4:
 193:Generated_Source\PSoC5/cyfitter_cfg.c **** 		uint8 count = (uint8)baseAddr;
  71              		.loc 1 193 0
  72 000c F3B2     		uxtb	r3, r6
  73              	.LVL5:
 194:Generated_Source\PSoC5/cyfitter_cfg.c **** 		baseAddr &= 0xFFFFFF00u;
  74              		.loc 1 194 0
  75 000e 26F0FF06 		bic	r6, r6, #255
  76              	.LVL6:
 195:Generated_Source\PSoC5/cyfitter_cfg.c **** 		while (count != 0u)
  77              		.loc 1 195 0
  78 0012 08E0     		b	.L5
  79              	.L6:
 196:Generated_Source\PSoC5/cyfitter_cfg.c **** 		{
 197:Generated_Source\PSoC5/cyfitter_cfg.c **** 			CY_SET_REG8((void *)(baseAddr + data_table[j].offset), data_table[j].value);
  80              		.loc 1 197 0
  81 0014 01EB4205 		add	r5, r1, r2, lsl #1
  82 0018 11F81240 		ldrb	r4, [r1, r2, lsl #1]	@ zero_extendqisi2
  83 001c 6D78     		ldrb	r5, [r5, #1]	@ zero_extendqisi2
  84 001e A555     		strb	r5, [r4, r6]
 198:Generated_Source\PSoC5/cyfitter_cfg.c **** 			j++;
  85              		.loc 1 198 0
  86 0020 0132     		adds	r2, r2, #1
  87              	.LVL7:
ARM GAS  C:\Users\HENRYH~1\AppData\Local\Temp\ccGH8J4o.s 			page 6


 199:Generated_Source\PSoC5/cyfitter_cfg.c **** 			count--;
  88              		.loc 1 199 0
  89 0022 013B     		subs	r3, r3, #1
  90              	.LVL8:
  91 0024 DBB2     		uxtb	r3, r3
  92              	.LVL9:
  93              	.L5:
 195:Generated_Source\PSoC5/cyfitter_cfg.c **** 		{
  94              		.loc 1 195 0
  95 0026 002B     		cmp	r3, #0
  96 0028 F4D1     		bne	.L6
  97              	.LBE2:
 190:Generated_Source\PSoC5/cyfitter_cfg.c **** 	{
  98              		.loc 1 190 0 discriminator 2
  99 002a 0137     		adds	r7, r7, #1
 100              	.LVL10:
 101              	.L4:
 190:Generated_Source\PSoC5/cyfitter_cfg.c **** 	{
 102              		.loc 1 190 0 is_stmt 0 discriminator 1
 103 002c 062F     		cmp	r7, #6
 104 002e EBD9     		bls	.L7
 200:Generated_Source\PSoC5/cyfitter_cfg.c **** 		}
 201:Generated_Source\PSoC5/cyfitter_cfg.c **** 	}
 202:Generated_Source\PSoC5/cyfitter_cfg.c **** }
 105              		.loc 1 202 0 is_stmt 1
 106 0030 F0BC     		pop	{r4, r5, r6, r7}
 107              		.cfi_restore 7
 108              		.cfi_restore 6
 109              		.cfi_restore 5
 110              		.cfi_restore 4
 111              		.cfi_def_cfa_offset 0
 112              	.LVL11:
 113 0032 7047     		bx	lr
 114              		.cfi_endproc
 115              	.LFE4:
 116              		.size	cfg_write_bytes32, .-cfg_write_bytes32
 117              		.section	.text.AnalogSetDefault,"ax",%progbits
 118              		.align	2
 119              		.thumb
 120              		.thumb_func
 121              		.type	AnalogSetDefault, %function
 122              	AnalogSetDefault:
 123              	.LFB6:
 203:Generated_Source\PSoC5/cyfitter_cfg.c **** 
 204:Generated_Source\PSoC5/cyfitter_cfg.c **** /*******************************************************************************
 205:Generated_Source\PSoC5/cyfitter_cfg.c **** * Function Name: ClockSetup
 206:Generated_Source\PSoC5/cyfitter_cfg.c **** ********************************************************************************
 207:Generated_Source\PSoC5/cyfitter_cfg.c **** *
 208:Generated_Source\PSoC5/cyfitter_cfg.c **** * Summary:
 209:Generated_Source\PSoC5/cyfitter_cfg.c **** *  Performs the initialization of all of the clocks in the device based on the
 210:Generated_Source\PSoC5/cyfitter_cfg.c **** *  settings in the Clock tab of the DWR.  This includes enabling the requested
 211:Generated_Source\PSoC5/cyfitter_cfg.c **** *  clocks and setting the necessary dividers to produce the desired frequency. 
 212:Generated_Source\PSoC5/cyfitter_cfg.c **** *
 213:Generated_Source\PSoC5/cyfitter_cfg.c **** * Parameters:
 214:Generated_Source\PSoC5/cyfitter_cfg.c **** *  void
 215:Generated_Source\PSoC5/cyfitter_cfg.c **** *
 216:Generated_Source\PSoC5/cyfitter_cfg.c **** * Return:
ARM GAS  C:\Users\HENRYH~1\AppData\Local\Temp\ccGH8J4o.s 			page 7


 217:Generated_Source\PSoC5/cyfitter_cfg.c **** *  void
 218:Generated_Source\PSoC5/cyfitter_cfg.c **** *
 219:Generated_Source\PSoC5/cyfitter_cfg.c **** *******************************************************************************/
 220:Generated_Source\PSoC5/cyfitter_cfg.c **** static void ClockSetup(void);
 221:Generated_Source\PSoC5/cyfitter_cfg.c **** static void ClockSetup(void)
 222:Generated_Source\PSoC5/cyfitter_cfg.c **** {
 223:Generated_Source\PSoC5/cyfitter_cfg.c **** 	uint8 x32TrHold;
 224:Generated_Source\PSoC5/cyfitter_cfg.c **** 	uint32 timeout;
 225:Generated_Source\PSoC5/cyfitter_cfg.c **** 	uint8 pllLock;
 226:Generated_Source\PSoC5/cyfitter_cfg.c **** 
 227:Generated_Source\PSoC5/cyfitter_cfg.c **** 	x32TrHold = CY_GET_XTND_REG8((void CYFAR *)CYREG_X32_TR);
 228:Generated_Source\PSoC5/cyfitter_cfg.c **** 
 229:Generated_Source\PSoC5/cyfitter_cfg.c **** 	/* Configure ILO based on settings from Clock DWR */
 230:Generated_Source\PSoC5/cyfitter_cfg.c **** 	CY_SET_XTND_REG8((void CYFAR *)(CYREG_SLOWCLK_ILO_CR0), 0x02u);
 231:Generated_Source\PSoC5/cyfitter_cfg.c **** 	CY_SET_XTND_REG8((void CYFAR *)(CYREG_CLKDIST_CR), 0x08u);
 232:Generated_Source\PSoC5/cyfitter_cfg.c **** 
 233:Generated_Source\PSoC5/cyfitter_cfg.c **** 	/* Configure XTAL 32kHz based on settings from Clock DWR */
 234:Generated_Source\PSoC5/cyfitter_cfg.c **** 	CY_SET_XTND_REG8((void CYFAR *)(CYREG_SLOWCLK_X32_TST), 0xF3u);
 235:Generated_Source\PSoC5/cyfitter_cfg.c **** 	CY_SET_XTND_REG8((void CYFAR *)(CYREG_X32_TR), 0x03u);
 236:Generated_Source\PSoC5/cyfitter_cfg.c **** 	CY_SET_XTND_REG8((void CYFAR *)(CYREG_SLOWCLK_X32_CFG), 0x84u);
 237:Generated_Source\PSoC5/cyfitter_cfg.c **** 	CY_SET_XTND_REG8((void CYFAR *)(CYREG_SLOWCLK_X32_CR), 0x05u);
 238:Generated_Source\PSoC5/cyfitter_cfg.c **** 	/* Wait up to 1000000us for the XTAL 32kHz to lock */
 239:Generated_Source\PSoC5/cyfitter_cfg.c **** 	for (timeout = 1000000u / 10u; (timeout > 0u) && ((CY_GET_XTND_REG8((void CYFAR *)CYREG_SLOWCLK_X3
 240:Generated_Source\PSoC5/cyfitter_cfg.c **** 	{ 
 241:Generated_Source\PSoC5/cyfitter_cfg.c **** 		
 242:Generated_Source\PSoC5/cyfitter_cfg.c **** 		CyDelayCycles(10u * 48u); /* Delay 10us based on 48MHz clock */
 243:Generated_Source\PSoC5/cyfitter_cfg.c **** 	}
 244:Generated_Source\PSoC5/cyfitter_cfg.c **** 	CY_SET_XTND_REG8((void CYFAR *)(CYREG_X32_TR), (x32TrHold));
 245:Generated_Source\PSoC5/cyfitter_cfg.c **** 
 246:Generated_Source\PSoC5/cyfitter_cfg.c **** 	/* Configure XTAL based on settings from Clock DWR */
 247:Generated_Source\PSoC5/cyfitter_cfg.c **** 	CY_SET_XTND_REG16((void CYFAR *)(CYREG_FASTCLK_XMHZ_CFG0), 0x3313u);
 248:Generated_Source\PSoC5/cyfitter_cfg.c **** 	CY_SET_XTND_REG8((void CYFAR *)(CYREG_FASTCLK_XMHZ_CSR), 0x05u);
 249:Generated_Source\PSoC5/cyfitter_cfg.c **** 	/* Wait up to 130000us for the XTAL to lock */
 250:Generated_Source\PSoC5/cyfitter_cfg.c **** 	CY_GET_XTND_REG8((void CYFAR *)CYREG_FASTCLK_XMHZ_CSR);
 251:Generated_Source\PSoC5/cyfitter_cfg.c **** 	for (timeout = 130000u / 10u; (timeout > 0u) && ((CY_GET_XTND_REG8((void CYFAR *)CYREG_FASTCLK_XMH
 252:Generated_Source\PSoC5/cyfitter_cfg.c **** 	{ 
 253:Generated_Source\PSoC5/cyfitter_cfg.c **** 		
 254:Generated_Source\PSoC5/cyfitter_cfg.c **** 		CyDelayCycles(10u * 48u); /* Delay 10us based on 48MHz clock */
 255:Generated_Source\PSoC5/cyfitter_cfg.c **** 	}
 256:Generated_Source\PSoC5/cyfitter_cfg.c **** 	if (timeout == 0u)
 257:Generated_Source\PSoC5/cyfitter_cfg.c **** 	{
 258:Generated_Source\PSoC5/cyfitter_cfg.c **** 		CyClockStartupError(CYCLOCKSTART_XTAL_ERROR);
 259:Generated_Source\PSoC5/cyfitter_cfg.c **** 	}
 260:Generated_Source\PSoC5/cyfitter_cfg.c **** 	CY_SET_XTND_REG8((void CYFAR *)(CYREG_CLKDIST_CR), 0x48u);
 261:Generated_Source\PSoC5/cyfitter_cfg.c **** 
 262:Generated_Source\PSoC5/cyfitter_cfg.c **** 	/* Configure IMO based on settings from Clock DWR */
 263:Generated_Source\PSoC5/cyfitter_cfg.c **** 	CY_SET_XTND_REG8((void CYFAR *)(CYREG_FASTCLK_IMO_CR), 0x20u);
 264:Generated_Source\PSoC5/cyfitter_cfg.c **** 
 265:Generated_Source\PSoC5/cyfitter_cfg.c **** 	/* Configure PLL based on settings from Clock DWR */
 266:Generated_Source\PSoC5/cyfitter_cfg.c **** 	CY_SET_XTND_REG16((void CYFAR *)(CYREG_FASTCLK_PLL_P), 0x0708u);
 267:Generated_Source\PSoC5/cyfitter_cfg.c **** 	CY_SET_XTND_REG16((void CYFAR *)(CYREG_FASTCLK_PLL_CFG0), 0x1251u);
 268:Generated_Source\PSoC5/cyfitter_cfg.c **** 	/* Wait up to 250us for the PLL to lock */
 269:Generated_Source\PSoC5/cyfitter_cfg.c **** 	pllLock = 0u;
 270:Generated_Source\PSoC5/cyfitter_cfg.c **** 	for (timeout = 250u / 10u; (timeout > 0u) && (pllLock != 0x03u); timeout--)
 271:Generated_Source\PSoC5/cyfitter_cfg.c **** 	{ 
 272:Generated_Source\PSoC5/cyfitter_cfg.c **** 		pllLock = 0x03u & ((uint8)((uint8)pllLock << 1) | ((CY_GET_XTND_REG8((void CYFAR *)CYREG_FASTCLK_
 273:Generated_Source\PSoC5/cyfitter_cfg.c **** 		CyDelayCycles(10u * 48u); /* Delay 10us based on 48MHz clock */
ARM GAS  C:\Users\HENRYH~1\AppData\Local\Temp\ccGH8J4o.s 			page 8


 274:Generated_Source\PSoC5/cyfitter_cfg.c **** 	}
 275:Generated_Source\PSoC5/cyfitter_cfg.c **** 	/* If we ran out of time the PLL didn't lock so go to the error function */
 276:Generated_Source\PSoC5/cyfitter_cfg.c **** 	if (timeout == 0u)
 277:Generated_Source\PSoC5/cyfitter_cfg.c **** 	{
 278:Generated_Source\PSoC5/cyfitter_cfg.c **** 		CyClockStartupError(CYCLOCKSTART_PLL_ERROR);
 279:Generated_Source\PSoC5/cyfitter_cfg.c **** 	}
 280:Generated_Source\PSoC5/cyfitter_cfg.c **** 
 281:Generated_Source\PSoC5/cyfitter_cfg.c **** 	/* Configure Bus/Master Clock based on settings from Clock DWR */
 282:Generated_Source\PSoC5/cyfitter_cfg.c **** 	CY_SET_XTND_REG16((void CYFAR *)(CYREG_CLKDIST_MSTR0), 0x0100u);
 283:Generated_Source\PSoC5/cyfitter_cfg.c **** 	CY_SET_XTND_REG8((void CYFAR *)(CYREG_CLKDIST_MSTR0), 0x07u);
 284:Generated_Source\PSoC5/cyfitter_cfg.c **** 	CY_SET_XTND_REG8((void CYFAR *)(CYREG_CLKDIST_BCFG0), 0x00u);
 285:Generated_Source\PSoC5/cyfitter_cfg.c **** 	CY_SET_XTND_REG8((void CYFAR *)(CYREG_CLKDIST_BCFG2), 0x48u);
 286:Generated_Source\PSoC5/cyfitter_cfg.c **** 	CY_SET_XTND_REG8((void CYFAR *)(CYREG_CLKDIST_MSTR0), 0x00u);
 287:Generated_Source\PSoC5/cyfitter_cfg.c **** 	CY_SET_XTND_REG8((void CYFAR *)(CYREG_CLKDIST_LD), 0x02u);
 288:Generated_Source\PSoC5/cyfitter_cfg.c **** }
 289:Generated_Source\PSoC5/cyfitter_cfg.c **** 
 290:Generated_Source\PSoC5/cyfitter_cfg.c **** 
 291:Generated_Source\PSoC5/cyfitter_cfg.c **** /* Analog API Functions */
 292:Generated_Source\PSoC5/cyfitter_cfg.c **** 
 293:Generated_Source\PSoC5/cyfitter_cfg.c **** 
 294:Generated_Source\PSoC5/cyfitter_cfg.c **** /*******************************************************************************
 295:Generated_Source\PSoC5/cyfitter_cfg.c **** * Function Name: AnalogSetDefault
 296:Generated_Source\PSoC5/cyfitter_cfg.c **** ********************************************************************************
 297:Generated_Source\PSoC5/cyfitter_cfg.c **** *
 298:Generated_Source\PSoC5/cyfitter_cfg.c **** * Summary:
 299:Generated_Source\PSoC5/cyfitter_cfg.c **** *  Sets up the analog portions of the chip to default values based on chip
 300:Generated_Source\PSoC5/cyfitter_cfg.c **** *  configuration options from the project.
 301:Generated_Source\PSoC5/cyfitter_cfg.c **** *
 302:Generated_Source\PSoC5/cyfitter_cfg.c **** * Parameters:
 303:Generated_Source\PSoC5/cyfitter_cfg.c **** *  void
 304:Generated_Source\PSoC5/cyfitter_cfg.c **** *
 305:Generated_Source\PSoC5/cyfitter_cfg.c **** * Return:
 306:Generated_Source\PSoC5/cyfitter_cfg.c **** *  void
 307:Generated_Source\PSoC5/cyfitter_cfg.c **** *
 308:Generated_Source\PSoC5/cyfitter_cfg.c **** *******************************************************************************/
 309:Generated_Source\PSoC5/cyfitter_cfg.c **** static void AnalogSetDefault(void);
 310:Generated_Source\PSoC5/cyfitter_cfg.c **** static void AnalogSetDefault(void)
 311:Generated_Source\PSoC5/cyfitter_cfg.c **** {
 124              		.loc 1 311 0
 125              		.cfi_startproc
 126              		@ args = 0, pretend = 0, frame = 0
 127              		@ frame_needed = 0, uses_anonymous_args = 0
 128              		@ link register save eliminated.
 312:Generated_Source\PSoC5/cyfitter_cfg.c **** 	uint8 bg_xover_inl_trim = CY_GET_XTND_REG8((void CYFAR *)(CYREG_FLSHID_MFG_CFG_BG_XOVER_INL_TRIM +
 129              		.loc 1 312 0
 130 0000 064B     		ldr	r3, .L10
 131 0002 1B78     		ldrb	r3, [r3]	@ zero_extendqisi2
 132 0004 DBB2     		uxtb	r3, r3
 133              	.LVL12:
 313:Generated_Source\PSoC5/cyfitter_cfg.c **** 	CY_SET_XTND_REG8((void CYFAR *)(CYREG_BG_DFT0), (bg_xover_inl_trim & 0x07u));
 134              		.loc 1 313 0
 135 0006 03F00701 		and	r1, r3, #7
 136 000a 054A     		ldr	r2, .L10+4
 137 000c 1170     		strb	r1, [r2]
 314:Generated_Source\PSoC5/cyfitter_cfg.c **** 	CY_SET_XTND_REG8((void CYFAR *)(CYREG_BG_DFT1), ((bg_xover_inl_trim >> 4) & 0x0Fu));
 138              		.loc 1 314 0
 139 000e 1B09     		lsrs	r3, r3, #4
ARM GAS  C:\Users\HENRYH~1\AppData\Local\Temp\ccGH8J4o.s 			page 9


 140              	.LVL13:
 141 0010 0132     		adds	r2, r2, #1
 142 0012 1370     		strb	r3, [r2]
 315:Generated_Source\PSoC5/cyfitter_cfg.c **** 	CY_SET_XTND_REG8((void CYFAR *)CYREG_PUMP_CR0, 0x44u);
 143              		.loc 1 315 0
 144 0014 4422     		movs	r2, #68
 145 0016 034B     		ldr	r3, .L10+8
 146 0018 1A70     		strb	r2, [r3]
 147 001a 7047     		bx	lr
 148              	.L11:
 149              		.align	2
 150              	.L10:
 151 001c CF010049 		.word	1224737231
 152 0020 6E580040 		.word	1073764462
 153 0024 76580040 		.word	1073764470
 154              		.cfi_endproc
 155              	.LFE6:
 156              		.size	AnalogSetDefault, .-AnalogSetDefault
 157              		.section	.text.CYMEMZERO,"ax",%progbits
 158              		.align	2
 159              		.thumb
 160              		.thumb_func
 161              		.type	CYMEMZERO, %function
 162              	CYMEMZERO:
 163              	.LFB0:
  78:Generated_Source\PSoC5/cyfitter_cfg.c **** 	(void)memset(s, 0, n);
 164              		.loc 1 78 0
 165              		.cfi_startproc
 166              		@ args = 0, pretend = 0, frame = 0
 167              		@ frame_needed = 0, uses_anonymous_args = 0
 168              	.LVL14:
 169 0000 08B5     		push	{r3, lr}
 170              		.cfi_def_cfa_offset 8
 171              		.cfi_offset 3, -8
 172              		.cfi_offset 14, -4
  79:Generated_Source\PSoC5/cyfitter_cfg.c **** }
 173              		.loc 1 79 0
 174 0002 0A46     		mov	r2, r1
 175 0004 0021     		movs	r1, #0
 176              	.LVL15:
 177 0006 FFF7FEFF 		bl	memset
 178              	.LVL16:
 179 000a 08BD     		pop	{r3, pc}
 180              		.cfi_endproc
 181              	.LFE0:
 182              		.size	CYMEMZERO, .-CYMEMZERO
 183              		.section	.text.ClockSetup,"ax",%progbits
 184              		.align	2
 185              		.thumb
 186              		.thumb_func
 187              		.type	ClockSetup, %function
 188              	ClockSetup:
 189              	.LFB5:
 222:Generated_Source\PSoC5/cyfitter_cfg.c **** 	uint8 x32TrHold;
 190              		.loc 1 222 0
 191              		.cfi_startproc
 192              		@ args = 0, pretend = 0, frame = 0
ARM GAS  C:\Users\HENRYH~1\AppData\Local\Temp\ccGH8J4o.s 			page 10


 193              		@ frame_needed = 0, uses_anonymous_args = 0
 194 0000 38B5     		push	{r3, r4, r5, lr}
 195              		.cfi_def_cfa_offset 16
 196              		.cfi_offset 3, -16
 197              		.cfi_offset 4, -12
 198              		.cfi_offset 5, -8
 199              		.cfi_offset 14, -4
 227:Generated_Source\PSoC5/cyfitter_cfg.c **** 
 200              		.loc 1 227 0
 201 0002 3C4B     		ldr	r3, .L27
 202 0004 1D78     		ldrb	r5, [r3]	@ zero_extendqisi2
 203 0006 EDB2     		uxtb	r5, r5
 204              	.LVL17:
 230:Generated_Source\PSoC5/cyfitter_cfg.c **** 	CY_SET_XTND_REG8((void CYFAR *)(CYREG_CLKDIST_CR), 0x08u);
 205              		.loc 1 230 0
 206 0008 0221     		movs	r1, #2
 207 000a 3B4A     		ldr	r2, .L27+4
 208 000c 1170     		strb	r1, [r2]
 231:Generated_Source\PSoC5/cyfitter_cfg.c **** 
 209              		.loc 1 231 0
 210 000e 0821     		movs	r1, #8
 211 0010 4FF04022 		mov	r2, #1073758208
 212 0014 1170     		strb	r1, [r2]
 234:Generated_Source\PSoC5/cyfitter_cfg.c **** 	CY_SET_XTND_REG8((void CYFAR *)(CYREG_X32_TR), 0x03u);
 213              		.loc 1 234 0
 214 0016 F321     		movs	r1, #243
 215 0018 02F20A32 		addw	r2, r2, #778
 216 001c 1170     		strb	r1, [r2]
 235:Generated_Source\PSoC5/cyfitter_cfg.c **** 	CY_SET_XTND_REG8((void CYFAR *)(CYREG_SLOWCLK_X32_CFG), 0x84u);
 217              		.loc 1 235 0
 218 001e 0322     		movs	r2, #3
 219 0020 1A70     		strb	r2, [r3]
 236:Generated_Source\PSoC5/cyfitter_cfg.c **** 	CY_SET_XTND_REG8((void CYFAR *)(CYREG_SLOWCLK_X32_CR), 0x05u);
 220              		.loc 1 236 0
 221 0022 8422     		movs	r2, #132
 222 0024 A3F28F33 		subw	r3, r3, #911
 223 0028 1A70     		strb	r2, [r3]
 237:Generated_Source\PSoC5/cyfitter_cfg.c **** 	/* Wait up to 1000000us for the XTAL 32kHz to lock */
 224              		.loc 1 237 0
 225 002a 0522     		movs	r2, #5
 226 002c 013B     		subs	r3, r3, #1
 227 002e 1A70     		strb	r2, [r3]
 228              	.LVL18:
 239:Generated_Source\PSoC5/cyfitter_cfg.c **** 	{ 
 229              		.loc 1 239 0
 230 0030 324C     		ldr	r4, .L27+8
 231 0032 04E0     		b	.L15
 232              	.LVL19:
 233              	.L17:
 242:Generated_Source\PSoC5/cyfitter_cfg.c **** 	}
 234              		.loc 1 242 0 discriminator 4
 235 0034 4FF4F070 		mov	r0, #480
 236 0038 FFF7FEFF 		bl	CyDelayCycles
 237              	.LVL20:
 239:Generated_Source\PSoC5/cyfitter_cfg.c **** 	{ 
 238              		.loc 1 239 0 discriminator 4
 239 003c 013C     		subs	r4, r4, #1
ARM GAS  C:\Users\HENRYH~1\AppData\Local\Temp\ccGH8J4o.s 			page 11


 240              	.LVL21:
 241              	.L15:
 239:Generated_Source\PSoC5/cyfitter_cfg.c **** 	{ 
 242              		.loc 1 239 0 is_stmt 0 discriminator 1
 243 003e 24B1     		cbz	r4, .L16
 239:Generated_Source\PSoC5/cyfitter_cfg.c **** 	{ 
 244              		.loc 1 239 0 discriminator 3
 245 0040 2F4B     		ldr	r3, .L27+12
 246 0042 1B78     		ldrb	r3, [r3]	@ zero_extendqisi2
 247 0044 13F0200F 		tst	r3, #32
 248 0048 F4D0     		beq	.L17
 249              	.L16:
 244:Generated_Source\PSoC5/cyfitter_cfg.c **** 
 250              		.loc 1 244 0 is_stmt 1
 251 004a 2A4B     		ldr	r3, .L27
 252 004c 1D70     		strb	r5, [r3]
 247:Generated_Source\PSoC5/cyfitter_cfg.c **** 	CY_SET_XTND_REG8((void CYFAR *)(CYREG_FASTCLK_XMHZ_CSR), 0x05u);
 253              		.loc 1 247 0
 254 004e 43F21332 		movw	r2, #13075
 255 0052 A3F28643 		subw	r3, r3, #1158
 256 0056 1A80     		strh	r2, [r3]	@ movhi
 248:Generated_Source\PSoC5/cyfitter_cfg.c **** 	/* Wait up to 130000us for the XTAL to lock */
 257              		.loc 1 248 0
 258 0058 023B     		subs	r3, r3, #2
 259 005a 0522     		movs	r2, #5
 260 005c 1A70     		strb	r2, [r3]
 250:Generated_Source\PSoC5/cyfitter_cfg.c **** 	for (timeout = 130000u / 10u; (timeout > 0u) && ((CY_GET_XTND_REG8((void CYFAR *)CYREG_FASTCLK_XMH
 261              		.loc 1 250 0
 262 005e 1B78     		ldrb	r3, [r3]	@ zero_extendqisi2
 263              	.LVL22:
 251:Generated_Source\PSoC5/cyfitter_cfg.c **** 	{ 
 264              		.loc 1 251 0
 265 0060 43F2C824 		movw	r4, #13000
 266 0064 04E0     		b	.L18
 267              	.LVL23:
 268              	.L20:
 254:Generated_Source\PSoC5/cyfitter_cfg.c **** 	}
 269              		.loc 1 254 0 discriminator 4
 270 0066 4FF4F070 		mov	r0, #480
 271 006a FFF7FEFF 		bl	CyDelayCycles
 272              	.LVL24:
 251:Generated_Source\PSoC5/cyfitter_cfg.c **** 	{ 
 273              		.loc 1 251 0 discriminator 4
 274 006e 013C     		subs	r4, r4, #1
 275              	.LVL25:
 276              	.L18:
 251:Generated_Source\PSoC5/cyfitter_cfg.c **** 	{ 
 277              		.loc 1 251 0 is_stmt 0 discriminator 1
 278 0070 24B1     		cbz	r4, .L19
 251:Generated_Source\PSoC5/cyfitter_cfg.c **** 	{ 
 279              		.loc 1 251 0 discriminator 3
 280 0072 244B     		ldr	r3, .L27+16
 281 0074 1B78     		ldrb	r3, [r3]	@ zero_extendqisi2
 282 0076 13F0800F 		tst	r3, #128
 283 007a F4D1     		bne	.L20
 284              	.L19:
 256:Generated_Source\PSoC5/cyfitter_cfg.c **** 	{
ARM GAS  C:\Users\HENRYH~1\AppData\Local\Temp\ccGH8J4o.s 			page 12


 285              		.loc 1 256 0 is_stmt 1
 286 007c 14B9     		cbnz	r4, .L21
 258:Generated_Source\PSoC5/cyfitter_cfg.c **** 	}
 287              		.loc 1 258 0
 288 007e 0120     		movs	r0, #1
 289 0080 FFF7FEFF 		bl	CyClockStartupError
 290              	.LVL26:
 291              	.L21:
 260:Generated_Source\PSoC5/cyfitter_cfg.c **** 
 292              		.loc 1 260 0
 293 0084 4822     		movs	r2, #72
 294 0086 4FF04023 		mov	r3, #1073758208
 295 008a 1A70     		strb	r2, [r3]
 263:Generated_Source\PSoC5/cyfitter_cfg.c **** 
 296              		.loc 1 263 0
 297 008c 2022     		movs	r2, #32
 298 008e 03F50073 		add	r3, r3, #512
 299 0092 1A70     		strb	r2, [r3]
 266:Generated_Source\PSoC5/cyfitter_cfg.c **** 	CY_SET_XTND_REG16((void CYFAR *)(CYREG_FASTCLK_PLL_CFG0), 0x1251u);
 300              		.loc 1 266 0
 301 0094 4FF4E162 		mov	r2, #1800
 302 0098 2233     		adds	r3, r3, #34
 303 009a 1A80     		strh	r2, [r3]	@ movhi
 267:Generated_Source\PSoC5/cyfitter_cfg.c **** 	/* Wait up to 250us for the PLL to lock */
 304              		.loc 1 267 0
 305 009c 41F25122 		movw	r2, #4689
 306 00a0 023B     		subs	r3, r3, #2
 307 00a2 1A80     		strh	r2, [r3]	@ movhi
 308              	.LVL27:
 269:Generated_Source\PSoC5/cyfitter_cfg.c **** 	for (timeout = 250u / 10u; (timeout > 0u) && (pllLock != 0x03u); timeout--)
 309              		.loc 1 269 0
 310 00a4 0024     		movs	r4, #0
 270:Generated_Source\PSoC5/cyfitter_cfg.c **** 	{ 
 311              		.loc 1 270 0
 312 00a6 1925     		movs	r5, #25
 313              	.LVL28:
 314 00a8 0CE0     		b	.L22
 315              	.LVL29:
 316              	.L24:
 272:Generated_Source\PSoC5/cyfitter_cfg.c **** 		CyDelayCycles(10u * 48u); /* Delay 10us based on 48MHz clock */
 317              		.loc 1 272 0 discriminator 4
 318 00aa 174B     		ldr	r3, .L27+20
 319 00ac 1B78     		ldrb	r3, [r3]	@ zero_extendqisi2
 320 00ae 03F00103 		and	r3, r3, #1
 321 00b2 43EA4404 		orr	r4, r3, r4, lsl #1
 322              	.LVL30:
 323 00b6 04F00304 		and	r4, r4, #3
 324              	.LVL31:
 273:Generated_Source\PSoC5/cyfitter_cfg.c **** 	}
 325              		.loc 1 273 0 discriminator 4
 326 00ba 4FF4F070 		mov	r0, #480
 327 00be FFF7FEFF 		bl	CyDelayCycles
 328              	.LVL32:
 270:Generated_Source\PSoC5/cyfitter_cfg.c **** 	{ 
 329              		.loc 1 270 0 discriminator 4
 330 00c2 013D     		subs	r5, r5, #1
 331              	.LVL33:
ARM GAS  C:\Users\HENRYH~1\AppData\Local\Temp\ccGH8J4o.s 			page 13


 332              	.L22:
 270:Generated_Source\PSoC5/cyfitter_cfg.c **** 	{ 
 333              		.loc 1 270 0 is_stmt 0 discriminator 1
 334 00c4 0DB1     		cbz	r5, .L23
 270:Generated_Source\PSoC5/cyfitter_cfg.c **** 	{ 
 335              		.loc 1 270 0 discriminator 3
 336 00c6 032C     		cmp	r4, #3
 337 00c8 EFD1     		bne	.L24
 338              	.L23:
 276:Generated_Source\PSoC5/cyfitter_cfg.c **** 	{
 339              		.loc 1 276 0 is_stmt 1
 340 00ca 15B9     		cbnz	r5, .L25
 278:Generated_Source\PSoC5/cyfitter_cfg.c **** 	}
 341              		.loc 1 278 0
 342 00cc 0320     		movs	r0, #3
 343 00ce FFF7FEFF 		bl	CyClockStartupError
 344              	.LVL34:
 345              	.L25:
 282:Generated_Source\PSoC5/cyfitter_cfg.c **** 	CY_SET_XTND_REG8((void CYFAR *)(CYREG_CLKDIST_MSTR0), 0x07u);
 346              		.loc 1 282 0
 347 00d2 0E4B     		ldr	r3, .L27+24
 348 00d4 4FF48072 		mov	r2, #256
 349 00d8 1A80     		strh	r2, [r3]	@ movhi
 283:Generated_Source\PSoC5/cyfitter_cfg.c **** 	CY_SET_XTND_REG8((void CYFAR *)(CYREG_CLKDIST_BCFG0), 0x00u);
 350              		.loc 1 283 0
 351 00da 0722     		movs	r2, #7
 352 00dc 1A70     		strb	r2, [r3]
 284:Generated_Source\PSoC5/cyfitter_cfg.c **** 	CY_SET_XTND_REG8((void CYFAR *)(CYREG_CLKDIST_BCFG2), 0x48u);
 353              		.loc 1 284 0
 354 00de 0022     		movs	r2, #0
 355 00e0 0B49     		ldr	r1, .L27+28
 356 00e2 0A70     		strb	r2, [r1]
 285:Generated_Source\PSoC5/cyfitter_cfg.c **** 	CY_SET_XTND_REG8((void CYFAR *)(CYREG_CLKDIST_MSTR0), 0x00u);
 357              		.loc 1 285 0
 358 00e4 4820     		movs	r0, #72
 359 00e6 0231     		adds	r1, r1, #2
 360 00e8 0870     		strb	r0, [r1]
 286:Generated_Source\PSoC5/cyfitter_cfg.c **** 	CY_SET_XTND_REG8((void CYFAR *)(CYREG_CLKDIST_LD), 0x02u);
 361              		.loc 1 286 0
 362 00ea 1A70     		strb	r2, [r3]
 287:Generated_Source\PSoC5/cyfitter_cfg.c **** }
 363              		.loc 1 287 0
 364 00ec 0222     		movs	r2, #2
 365 00ee 033B     		subs	r3, r3, #3
 366 00f0 1A70     		strb	r2, [r3]
 367 00f2 38BD     		pop	{r3, r4, r5, pc}
 368              	.LVL35:
 369              	.L28:
 370              		.align	2
 371              	.L27:
 372 00f4 98460040 		.word	1073759896
 373 00f8 00430040 		.word	1073758976
 374 00fc A0860100 		.word	100000
 375 0100 08430040 		.word	1073758984
 376 0104 10420040 		.word	1073758736
 377 0108 25420040 		.word	1073758757
 378 010c 04400040 		.word	1073758212
ARM GAS  C:\Users\HENRYH~1\AppData\Local\Temp\ccGH8J4o.s 			page 14


 379 0110 06400040 		.word	1073758214
 380              		.cfi_endproc
 381              	.LFE5:
 382              		.size	ClockSetup, .-ClockSetup
 383              		.section	.text.CYCONFIGCPY,"ax",%progbits
 384              		.align	2
 385              		.thumb
 386              		.thumb_func
 387              		.type	CYCONFIGCPY, %function
 388              	CYCONFIGCPY:
 389              	.LFB1:
  85:Generated_Source\PSoC5/cyfitter_cfg.c **** 	(void)memcpy(dest, src, n);
 390              		.loc 1 85 0
 391              		.cfi_startproc
 392              		@ args = 0, pretend = 0, frame = 0
 393              		@ frame_needed = 0, uses_anonymous_args = 0
 394              	.LVL36:
 395 0000 08B5     		push	{r3, lr}
 396              		.cfi_def_cfa_offset 8
 397              		.cfi_offset 3, -8
 398              		.cfi_offset 14, -4
  86:Generated_Source\PSoC5/cyfitter_cfg.c **** }
 399              		.loc 1 86 0
 400 0002 FFF7FEFF 		bl	memcpy
 401              	.LVL37:
 402 0006 08BD     		pop	{r3, pc}
 403              		.cfi_endproc
 404              	.LFE1:
 405              		.size	CYCONFIGCPY, .-CYCONFIGCPY
 406              		.section	.text.SetAnalogRoutingPumps,"ax",%progbits
 407              		.align	2
 408              		.global	SetAnalogRoutingPumps
 409              		.thumb
 410              		.thumb_func
 411              		.type	SetAnalogRoutingPumps, %function
 412              	SetAnalogRoutingPumps:
 413              	.LFB7:
 316:Generated_Source\PSoC5/cyfitter_cfg.c **** }
 317:Generated_Source\PSoC5/cyfitter_cfg.c **** 
 318:Generated_Source\PSoC5/cyfitter_cfg.c **** 
 319:Generated_Source\PSoC5/cyfitter_cfg.c **** /*******************************************************************************
 320:Generated_Source\PSoC5/cyfitter_cfg.c **** * Function Name: SetAnalogRoutingPumps
 321:Generated_Source\PSoC5/cyfitter_cfg.c **** ********************************************************************************
 322:Generated_Source\PSoC5/cyfitter_cfg.c **** *
 323:Generated_Source\PSoC5/cyfitter_cfg.c **** * Summary:
 324:Generated_Source\PSoC5/cyfitter_cfg.c **** * Enables or disables the analog pumps feeding analog routing switches.
 325:Generated_Source\PSoC5/cyfitter_cfg.c **** * Intended to be called at startup, based on the Vdda system configuration;
 326:Generated_Source\PSoC5/cyfitter_cfg.c **** * may be called during operation when the user informs us that the Vdda voltage
 327:Generated_Source\PSoC5/cyfitter_cfg.c **** * crossed the pump threshold.
 328:Generated_Source\PSoC5/cyfitter_cfg.c **** *
 329:Generated_Source\PSoC5/cyfitter_cfg.c **** * Parameters:
 330:Generated_Source\PSoC5/cyfitter_cfg.c **** *  enabled - 1 to enable the pumps, 0 to disable the pumps
 331:Generated_Source\PSoC5/cyfitter_cfg.c **** *
 332:Generated_Source\PSoC5/cyfitter_cfg.c **** * Return:
 333:Generated_Source\PSoC5/cyfitter_cfg.c **** *  void
 334:Generated_Source\PSoC5/cyfitter_cfg.c **** *
 335:Generated_Source\PSoC5/cyfitter_cfg.c **** *******************************************************************************/
ARM GAS  C:\Users\HENRYH~1\AppData\Local\Temp\ccGH8J4o.s 			page 15


 336:Generated_Source\PSoC5/cyfitter_cfg.c **** void SetAnalogRoutingPumps(uint8 enabled)
 337:Generated_Source\PSoC5/cyfitter_cfg.c **** {
 414              		.loc 1 337 0
 415              		.cfi_startproc
 416              		@ args = 0, pretend = 0, frame = 0
 417              		@ frame_needed = 0, uses_anonymous_args = 0
 418              		@ link register save eliminated.
 419              	.LVL38:
 338:Generated_Source\PSoC5/cyfitter_cfg.c **** 	uint8 regValue = CY_GET_XTND_REG8((void CYFAR *)CYREG_PUMP_CR0);
 420              		.loc 1 338 0
 421 0000 024A     		ldr	r2, .L32
 422 0002 1378     		ldrb	r3, [r2]	@ zero_extendqisi2
 423 0004 DBB2     		uxtb	r3, r3
 424              	.LVL39:
 339:Generated_Source\PSoC5/cyfitter_cfg.c **** 	if (enabled != 0u)
 340:Generated_Source\PSoC5/cyfitter_cfg.c **** 	{
 341:Generated_Source\PSoC5/cyfitter_cfg.c **** 		regValue |= 0x00u;
 342:Generated_Source\PSoC5/cyfitter_cfg.c **** 	}
 343:Generated_Source\PSoC5/cyfitter_cfg.c **** 	else
 344:Generated_Source\PSoC5/cyfitter_cfg.c **** 	{
 345:Generated_Source\PSoC5/cyfitter_cfg.c **** 		regValue &= (uint8)~0x00u;
 346:Generated_Source\PSoC5/cyfitter_cfg.c **** 	}
 347:Generated_Source\PSoC5/cyfitter_cfg.c **** 	CY_SET_XTND_REG8((void CYFAR *)CYREG_PUMP_CR0, regValue);
 425              		.loc 1 347 0
 426 0006 1370     		strb	r3, [r2]
 427 0008 7047     		bx	lr
 428              	.L33:
 429 000a 00BF     		.align	2
 430              	.L32:
 431 000c 76580040 		.word	1073764470
 432              		.cfi_endproc
 433              	.LFE7:
 434              		.size	SetAnalogRoutingPumps, .-SetAnalogRoutingPumps
 435              		.section	.text.cyfitter_cfg,"ax",%progbits
 436              		.align	2
 437              		.global	cyfitter_cfg
 438              		.thumb
 439              		.thumb_func
 440              		.type	cyfitter_cfg, %function
 441              	cyfitter_cfg:
 442              	.LFB8:
 348:Generated_Source\PSoC5/cyfitter_cfg.c **** }
 349:Generated_Source\PSoC5/cyfitter_cfg.c **** 
 350:Generated_Source\PSoC5/cyfitter_cfg.c **** 
 351:Generated_Source\PSoC5/cyfitter_cfg.c **** 
 352:Generated_Source\PSoC5/cyfitter_cfg.c **** 
 353:Generated_Source\PSoC5/cyfitter_cfg.c **** /*******************************************************************************
 354:Generated_Source\PSoC5/cyfitter_cfg.c **** * Function Name: cyfitter_cfg
 355:Generated_Source\PSoC5/cyfitter_cfg.c **** ********************************************************************************
 356:Generated_Source\PSoC5/cyfitter_cfg.c **** * Summary:
 357:Generated_Source\PSoC5/cyfitter_cfg.c **** *  This function is called by the start-up code for the selected device. It
 358:Generated_Source\PSoC5/cyfitter_cfg.c **** *  performs all of the necessary device configuration based on the design
 359:Generated_Source\PSoC5/cyfitter_cfg.c **** *  settings.  This includes settings from the Design Wide Resources (DWR) such
 360:Generated_Source\PSoC5/cyfitter_cfg.c **** *  as Clocks and Pins as well as any component configuration that is necessary.
 361:Generated_Source\PSoC5/cyfitter_cfg.c **** *
 362:Generated_Source\PSoC5/cyfitter_cfg.c **** * Parameters:
 363:Generated_Source\PSoC5/cyfitter_cfg.c **** *   void
ARM GAS  C:\Users\HENRYH~1\AppData\Local\Temp\ccGH8J4o.s 			page 16


 364:Generated_Source\PSoC5/cyfitter_cfg.c **** *
 365:Generated_Source\PSoC5/cyfitter_cfg.c **** * Return:
 366:Generated_Source\PSoC5/cyfitter_cfg.c **** *   void
 367:Generated_Source\PSoC5/cyfitter_cfg.c **** *
 368:Generated_Source\PSoC5/cyfitter_cfg.c **** *******************************************************************************/
 369:Generated_Source\PSoC5/cyfitter_cfg.c **** 
 370:Generated_Source\PSoC5/cyfitter_cfg.c **** void cyfitter_cfg(void)
 371:Generated_Source\PSoC5/cyfitter_cfg.c **** {
 443              		.loc 1 371 0
 444              		.cfi_startproc
 445              		@ args = 0, pretend = 0, frame = 0
 446              		@ frame_needed = 0, uses_anonymous_args = 0
 447 0000 38B5     		push	{r3, r4, r5, lr}
 448              		.cfi_def_cfa_offset 16
 449              		.cfi_offset 3, -16
 450              		.cfi_offset 4, -12
 451              		.cfi_offset 5, -8
 452              		.cfi_offset 14, -4
 372:Generated_Source\PSoC5/cyfitter_cfg.c **** #ifdef CYGlobalIntDisable
 373:Generated_Source\PSoC5/cyfitter_cfg.c **** 	/* Disable interrupts by default. Let user enable if/when they want. */
 374:Generated_Source\PSoC5/cyfitter_cfg.c **** 	CYGlobalIntDisable
 453              		.loc 1 374 0
 454              		.syntax unified
 455              	@ 374 "Generated_Source\PSoC5\cyfitter_cfg.c" 1
 456 0002 72B6     		CPSID   i
 457              	@ 0 "" 2
 375:Generated_Source\PSoC5/cyfitter_cfg.c **** #endif
 376:Generated_Source\PSoC5/cyfitter_cfg.c **** 
 377:Generated_Source\PSoC5/cyfitter_cfg.c **** 	/* Enable/Disable Debug functionality based on settings from System DWR */
 378:Generated_Source\PSoC5/cyfitter_cfg.c **** 	CY_SET_XTND_REG8((void CYFAR *)CYREG_MLOGIC_DEBUG, (CY_GET_XTND_REG8((void CYFAR *)CYREG_MLOGIC_DE
 458              		.loc 1 378 0
 459              		.thumb
 460              		.syntax unified
 461 0004 254A     		ldr	r2, .L38
 462 0006 1378     		ldrb	r3, [r2]	@ zero_extendqisi2
 463 0008 43F00403 		orr	r3, r3, #4
 464 000c 1370     		strb	r3, [r2]
 465              	.LVL40:
 466              	.LBB3:
 379:Generated_Source\PSoC5/cyfitter_cfg.c **** 
 380:Generated_Source\PSoC5/cyfitter_cfg.c **** 	{
 381:Generated_Source\PSoC5/cyfitter_cfg.c **** 
 382:Generated_Source\PSoC5/cyfitter_cfg.c **** 		CYPACKED typedef struct {
 383:Generated_Source\PSoC5/cyfitter_cfg.c **** 			void CYFAR *address;
 384:Generated_Source\PSoC5/cyfitter_cfg.c **** 			uint16 size;
 385:Generated_Source\PSoC5/cyfitter_cfg.c **** 		} CYPACKED_ATTR cfg_memset_t;
 386:Generated_Source\PSoC5/cyfitter_cfg.c **** 
 387:Generated_Source\PSoC5/cyfitter_cfg.c **** 		static const cfg_memset_t CYCODE cfg_memset_list[] = {
 388:Generated_Source\PSoC5/cyfitter_cfg.c **** 			/* address, size */
 389:Generated_Source\PSoC5/cyfitter_cfg.c **** 			{(void CYFAR *)(CYREG_PRT0_DR), 16u},
 390:Generated_Source\PSoC5/cyfitter_cfg.c **** 			{(void CYFAR *)(CYREG_PRT3_DR), 64u},
 391:Generated_Source\PSoC5/cyfitter_cfg.c **** 			{(void CYFAR *)(CYREG_PRT15_DR), 16u},
 392:Generated_Source\PSoC5/cyfitter_cfg.c **** 			{(void CYFAR *)(CYDEV_UCFG_B0_P0_U0_BASE), 4096u},
 393:Generated_Source\PSoC5/cyfitter_cfg.c **** 			{(void CYFAR *)(CYDEV_UCFG_B1_P2_U0_BASE), 2048u},
 394:Generated_Source\PSoC5/cyfitter_cfg.c **** 			{(void CYFAR *)(CYDEV_UCFG_DSI0_BASE), 2560u},
 395:Generated_Source\PSoC5/cyfitter_cfg.c **** 			{(void CYFAR *)(CYDEV_UCFG_DSI12_BASE), 512u},
 396:Generated_Source\PSoC5/cyfitter_cfg.c **** 			{(void CYFAR *)(CYREG_BCTL0_MDCLK_EN), 32u},
ARM GAS  C:\Users\HENRYH~1\AppData\Local\Temp\ccGH8J4o.s 			page 17


 397:Generated_Source\PSoC5/cyfitter_cfg.c **** 		};
 398:Generated_Source\PSoC5/cyfitter_cfg.c **** 
 399:Generated_Source\PSoC5/cyfitter_cfg.c **** 		uint8 CYDATA i;
 400:Generated_Source\PSoC5/cyfitter_cfg.c **** 
 401:Generated_Source\PSoC5/cyfitter_cfg.c **** 		/* Zero out critical memory blocks before beginning configuration */
 402:Generated_Source\PSoC5/cyfitter_cfg.c **** 		for (i = 0u; i < (sizeof(cfg_memset_list)/sizeof(cfg_memset_list[0])); i++)
 467              		.loc 1 402 0
 468 000e 0024     		movs	r4, #0
 469 0010 0CE0     		b	.L35
 470              	.LVL41:
 471              	.L36:
 472              	.LBB4:
 403:Generated_Source\PSoC5/cyfitter_cfg.c **** 		{
 404:Generated_Source\PSoC5/cyfitter_cfg.c **** 			const cfg_memset_t CYCODE * CYDATA ms = &cfg_memset_list[i];
 405:Generated_Source\PSoC5/cyfitter_cfg.c **** 			CYMEMZERO(ms->address, (size_t)(uint32)(ms->size));
 473              		.loc 1 405 0 discriminator 3
 474 0012 234D     		ldr	r5, .L38+4
 475 0014 6300     		lsls	r3, r4, #1
 476 0016 1919     		adds	r1, r3, r4
 477 0018 4A00     		lsls	r2, r1, #1
 478 001a 1146     		mov	r1, r2
 479 001c 2A44     		add	r2, r2, r5
 480 001e 0846     		mov	r0, r1
 481 0020 9188     		ldrh	r1, [r2, #4]
 482 0022 2858     		ldr	r0, [r5, r0]	@ unaligned
 483 0024 FFF7FEFF 		bl	CYMEMZERO
 484              	.LVL42:
 485              	.LBE4:
 402:Generated_Source\PSoC5/cyfitter_cfg.c **** 		{
 486              		.loc 1 402 0 discriminator 3
 487 0028 0134     		adds	r4, r4, #1
 488              	.LVL43:
 489 002a E4B2     		uxtb	r4, r4
 490              	.LVL44:
 491              	.L35:
 402:Generated_Source\PSoC5/cyfitter_cfg.c **** 		{
 492              		.loc 1 402 0 is_stmt 0 discriminator 1
 493 002c 072C     		cmp	r4, #7
 494 002e F0D9     		bls	.L36
 406:Generated_Source\PSoC5/cyfitter_cfg.c **** 		}
 407:Generated_Source\PSoC5/cyfitter_cfg.c **** 
 408:Generated_Source\PSoC5/cyfitter_cfg.c **** 		cfg_write_bytes32(cy_cfg_addr_table, cy_cfg_data_table);
 495              		.loc 1 408 0 is_stmt 1
 496 0030 1C49     		ldr	r1, .L38+8
 497 0032 4FF09040 		mov	r0, #1207959552
 498 0036 FFF7FEFF 		bl	cfg_write_bytes32
 499              	.LVL45:
 409:Generated_Source\PSoC5/cyfitter_cfg.c **** 
 410:Generated_Source\PSoC5/cyfitter_cfg.c **** 		/* Enable digital routing */
 411:Generated_Source\PSoC5/cyfitter_cfg.c **** 		CY_SET_XTND_REG8((void CYFAR *)CYREG_BCTL0_BANK_CTL, CY_GET_XTND_REG8((void CYFAR *)CYREG_BCTL0_B
 500              		.loc 1 411 0
 501 003a 1B4A     		ldr	r2, .L38+12
 502 003c 1378     		ldrb	r3, [r2]	@ zero_extendqisi2
 503 003e 43F00203 		orr	r3, r3, #2
 504 0042 1370     		strb	r3, [r2]
 412:Generated_Source\PSoC5/cyfitter_cfg.c **** 		CY_SET_XTND_REG8((void CYFAR *)CYREG_BCTL1_BANK_CTL, CY_GET_XTND_REG8((void CYFAR *)CYREG_BCTL1_B
 505              		.loc 1 412 0
ARM GAS  C:\Users\HENRYH~1\AppData\Local\Temp\ccGH8J4o.s 			page 18


 506 0044 1032     		adds	r2, r2, #16
 507 0046 1378     		ldrb	r3, [r2]	@ zero_extendqisi2
 508 0048 43F00203 		orr	r3, r3, #2
 509 004c 1370     		strb	r3, [r2]
 510              	.LBE3:
 413:Generated_Source\PSoC5/cyfitter_cfg.c **** 	}
 414:Generated_Source\PSoC5/cyfitter_cfg.c **** 
 415:Generated_Source\PSoC5/cyfitter_cfg.c **** 
 416:Generated_Source\PSoC5/cyfitter_cfg.c **** 	/* Perform second pass device configuration. These items must be configured in specific order afte
 417:Generated_Source\PSoC5/cyfitter_cfg.c **** 	CYCONFIGCPY((void CYFAR *)(CYREG_PRT12_DM0), (const void CYFAR *)(BS_IOPINS0_7_VAL), 8u);
 511              		.loc 1 417 0
 512 004e 0822     		movs	r2, #8
 513 0050 1649     		ldr	r1, .L38+16
 514 0052 1748     		ldr	r0, .L38+20
 515 0054 FFF7FEFF 		bl	CYCONFIGCPY
 516              	.LVL46:
 418:Generated_Source\PSoC5/cyfitter_cfg.c **** 	CYCONFIGCPY((void CYFAR *)(CYREG_PRT1_DM0), (const void CYFAR *)(BS_IOPINS0_1_VAL), 8u);
 517              		.loc 1 418 0
 518 0058 0822     		movs	r2, #8
 519 005a 1649     		ldr	r1, .L38+24
 520 005c 1648     		ldr	r0, .L38+28
 521 005e FFF7FEFF 		bl	CYCONFIGCPY
 522              	.LVL47:
 419:Generated_Source\PSoC5/cyfitter_cfg.c **** 	CYCONFIGCPY((void CYFAR *)(CYREG_PRT2_DM0), (const void CYFAR *)(BS_IOPINS0_2_VAL), 8u);
 523              		.loc 1 419 0
 524 0062 0822     		movs	r2, #8
 525 0064 1549     		ldr	r1, .L38+32
 526 0066 1648     		ldr	r0, .L38+36
 527 0068 FFF7FEFF 		bl	CYCONFIGCPY
 528              	.LVL48:
 420:Generated_Source\PSoC5/cyfitter_cfg.c **** 	/* Switch Boost to the precision bandgap reference from its internal reference */
 421:Generated_Source\PSoC5/cyfitter_cfg.c **** 	CY_SET_REG8((void CYXDATA *)CYREG_BOOST_CR2, (CY_GET_REG8((void CYXDATA *)CYREG_BOOST_CR2) | 0x08u
 529              		.loc 1 421 0
 530 006c 154A     		ldr	r2, .L38+40
 531 006e 1378     		ldrb	r3, [r2]	@ zero_extendqisi2
 532 0070 43F00803 		orr	r3, r3, #8
 533 0074 1370     		strb	r3, [r2]
 422:Generated_Source\PSoC5/cyfitter_cfg.c **** 
 423:Generated_Source\PSoC5/cyfitter_cfg.c **** 	/* Set Flash Cycles based on max possible frequency in case a glitch occurs during ClockSetup(). *
 424:Generated_Source\PSoC5/cyfitter_cfg.c **** 	CY_SET_XTND_REG8((void CYFAR *)(CYREG_CACHE_CC_CTL), (((CYDEV_INSTRUCT_CACHE_ENABLED) != 0) ? 0x61
 534              		.loc 1 424 0
 535 0076 144C     		ldr	r4, .L38+44
 536              	.LVL49:
 537 0078 6123     		movs	r3, #97
 538 007a 2370     		strb	r3, [r4]
 425:Generated_Source\PSoC5/cyfitter_cfg.c **** 	/* Setup clocks based on selections from Clock DWR */
 426:Generated_Source\PSoC5/cyfitter_cfg.c **** 	ClockSetup();
 539              		.loc 1 426 0
 540 007c FFF7FEFF 		bl	ClockSetup
 541              	.LVL50:
 427:Generated_Source\PSoC5/cyfitter_cfg.c **** 	/* Set Flash Cycles based on newly configured 24.00MHz Bus Clock. */
 428:Generated_Source\PSoC5/cyfitter_cfg.c **** 	CY_SET_XTND_REG8((void CYFAR *)(CYREG_CACHE_CC_CTL), (((CYDEV_INSTRUCT_CACHE_ENABLED) != 0) ? 0x81
 542              		.loc 1 428 0
 543 0080 8123     		movs	r3, #129
 544 0082 2370     		strb	r3, [r4]
 429:Generated_Source\PSoC5/cyfitter_cfg.c **** 	CY_SET_XTND_REG8((void CYFAR *)(CYREG_PANTHER_WAITPIPE), 0x01u);
 545              		.loc 1 429 0
ARM GAS  C:\Users\HENRYH~1\AppData\Local\Temp\ccGH8J4o.s 			page 19


 546 0084 0122     		movs	r2, #1
 547 0086 114B     		ldr	r3, .L38+48
 548 0088 1A70     		strb	r2, [r3]
 430:Generated_Source\PSoC5/cyfitter_cfg.c **** 
 431:Generated_Source\PSoC5/cyfitter_cfg.c **** 	/* Perform basic analog initialization to defaults */
 432:Generated_Source\PSoC5/cyfitter_cfg.c **** 	AnalogSetDefault();
 549              		.loc 1 432 0
 550 008a FFF7FEFF 		bl	AnalogSetDefault
 551              	.LVL51:
 433:Generated_Source\PSoC5/cyfitter_cfg.c **** 
 434:Generated_Source\PSoC5/cyfitter_cfg.c **** 	/* Configure alternate active mode */
 435:Generated_Source\PSoC5/cyfitter_cfg.c **** 	CYCONFIGCPY((void CYFAR *)CYDEV_PM_STBY_BASE, (const void CYFAR *)CYDEV_PM_ACT_BASE, 14u);
 552              		.loc 1 435 0
 553 008e 0E22     		movs	r2, #14
 554 0090 0F49     		ldr	r1, .L38+52
 555 0092 1048     		ldr	r0, .L38+56
 556 0094 FFF7FEFF 		bl	CYCONFIGCPY
 557              	.LVL52:
 558 0098 38BD     		pop	{r3, r4, r5, pc}
 559              	.L39:
 560 009a 00BF     		.align	2
 561              	.L38:
 562 009c E8460040 		.word	1073759976
 563 00a0 00000000 		.word	.LANCHOR0
 564 00a4 1C000048 		.word	1207959580
 565 00a8 03500140 		.word	1073827843
 566 00ac 38000048 		.word	1207959608
 567 00b0 C2510040 		.word	1073762754
 568 00b4 40000048 		.word	1207959616
 569 00b8 12510040 		.word	1073762578
 570 00bc 48000048 		.word	1207959624
 571 00c0 22510040 		.word	1073762594
 572 00c4 22430040 		.word	1073759010
 573 00c8 00480040 		.word	1073760256
 574 00cc 04000840 		.word	1074266116
 575 00d0 A0430040 		.word	1073759136
 576 00d4 B0430040 		.word	1073759152
 577              		.cfi_endproc
 578              	.LFE8:
 579              		.size	cyfitter_cfg, .-cyfitter_cfg
 580              		.section	.rodata
 581              		.align	2
 582              		.set	.LANCHOR0,. + 0
 583              		.type	cfg_memset_list.5020, %object
 584              		.size	cfg_memset_list.5020, 48
 585              	cfg_memset_list.5020:
 586 0000 00510040 		.word	1073762560
 587 0004 1000     		.short	16
 588 0006 30510040 		.4byte	1073762608
 589 000a 4000     		.short	64
 590 000c F0510040 		.word	1073762800
 591 0010 1000     		.short	16
 592 0012 00000140 		.4byte	1073807360
 593 0016 0010     		.short	4096
 594 0018 00140140 		.word	1073812480
 595 001c 0008     		.short	2048
 596 001e 00400140 		.4byte	1073823744
ARM GAS  C:\Users\HENRYH~1\AppData\Local\Temp\ccGH8J4o.s 			page 20


 597 0022 000A     		.short	2560
 598 0024 004C0140 		.word	1073826816
 599 0028 0002     		.short	512
 600 002a 00500140 		.4byte	1073827840
 601 002e 2000     		.short	32
 602              		.text
 603              	.Letext0:
 604              		.file 2 "c:\\program files (x86)\\cypress\\psoc creator\\4.4\\psoc creator\\import\\gnu\\arm\\5.4.
 605              		.file 3 "Generated_Source\\PSoC5\\cytypes.h"
 606              		.file 4 "Generated_Source\\PSoC5\\CyLib.h"