ARM GAS  C:\Users\HENRYA~1\AppData\Local\Temp\cc8DOJUR.s 			page 1


   1              		.syntax unified
   2              		.cpu cortex-m3
   3              		.fpu softvfp
   4              		.eabi_attribute 20, 1
   5              		.eabi_attribute 21, 1
   6              		.eabi_attribute 23, 3
   7              		.eabi_attribute 24, 1
   8              		.eabi_attribute 25, 1
   9              		.eabi_attribute 26, 1
  10              		.eabi_attribute 30, 1
  11              		.eabi_attribute 34, 1
  12              		.eabi_attribute 18, 4
  13              		.thumb
  14              		.syntax unified
  15              		.file	"PUERTO_CAN_1_INT.c"
  16              		.text
  17              	.Ltext0:
  18              		.cfi_sections	.debug_frame
  19              		.section	.text.PUERTO_CAN_1_BusOffIsr,"ax",%progbits
  20              		.align	2
  21              		.global	PUERTO_CAN_1_BusOffIsr
  22              		.thumb
  23              		.thumb_func
  24              		.type	PUERTO_CAN_1_BusOffIsr, %function
  25              	PUERTO_CAN_1_BusOffIsr:
  26              	.LFB0:
  27              		.file 1 "Generated_Source\\PSoC5\\PUERTO_CAN_1_INT.c"
   1:Generated_Source\PSoC5/PUERTO_CAN_1_INT.c **** /*******************************************************************************
   2:Generated_Source\PSoC5/PUERTO_CAN_1_INT.c **** * File Name: PUERTO_CAN_1_INT.c
   3:Generated_Source\PSoC5/PUERTO_CAN_1_INT.c **** * Version 3.0
   4:Generated_Source\PSoC5/PUERTO_CAN_1_INT.c **** *
   5:Generated_Source\PSoC5/PUERTO_CAN_1_INT.c **** * Description:
   6:Generated_Source\PSoC5/PUERTO_CAN_1_INT.c **** *  This file contains Interrupt Service Routine (ISR) for CAN Component.
   7:Generated_Source\PSoC5/PUERTO_CAN_1_INT.c **** *  The Interrupt handlers functions are generated accordingly to the PSoC
   8:Generated_Source\PSoC5/PUERTO_CAN_1_INT.c **** *  Creator Customizer inputs.
   9:Generated_Source\PSoC5/PUERTO_CAN_1_INT.c **** *
  10:Generated_Source\PSoC5/PUERTO_CAN_1_INT.c **** * Note:
  11:Generated_Source\PSoC5/PUERTO_CAN_1_INT.c **** *  None
  12:Generated_Source\PSoC5/PUERTO_CAN_1_INT.c **** *
  13:Generated_Source\PSoC5/PUERTO_CAN_1_INT.c **** ********************************************************************************
  14:Generated_Source\PSoC5/PUERTO_CAN_1_INT.c **** * Copyright 2008-2015, Cypress Semiconductor Corporation.  All rights reserved.
  15:Generated_Source\PSoC5/PUERTO_CAN_1_INT.c **** * You may use this file only in accordance with the license, terms, conditions,
  16:Generated_Source\PSoC5/PUERTO_CAN_1_INT.c **** * disclaimers, and limitations in the end user license agreement accompanying
  17:Generated_Source\PSoC5/PUERTO_CAN_1_INT.c **** * the software package with which this file was provided.
  18:Generated_Source\PSoC5/PUERTO_CAN_1_INT.c **** *******************************************************************************/
  19:Generated_Source\PSoC5/PUERTO_CAN_1_INT.c **** 
  20:Generated_Source\PSoC5/PUERTO_CAN_1_INT.c **** #include "PUERTO_CAN_1.h"
  21:Generated_Source\PSoC5/PUERTO_CAN_1_INT.c **** #include "cyapicallbacks.h"
  22:Generated_Source\PSoC5/PUERTO_CAN_1_INT.c **** 
  23:Generated_Source\PSoC5/PUERTO_CAN_1_INT.c **** /* `#START CAN_INT_C_CODE_DEFINITION` */
  24:Generated_Source\PSoC5/PUERTO_CAN_1_INT.c **** 
  25:Generated_Source\PSoC5/PUERTO_CAN_1_INT.c **** /* `#END` */
  26:Generated_Source\PSoC5/PUERTO_CAN_1_INT.c **** 
  27:Generated_Source\PSoC5/PUERTO_CAN_1_INT.c **** #if (PUERTO_CAN_1_ARB_LOST)
  28:Generated_Source\PSoC5/PUERTO_CAN_1_INT.c ****     /*******************************************************************************
  29:Generated_Source\PSoC5/PUERTO_CAN_1_INT.c ****     * FUNCTION NAME:   PUERTO_CAN_1_ArbLostIsr
  30:Generated_Source\PSoC5/PUERTO_CAN_1_INT.c ****     ********************************************************************************
ARM GAS  C:\Users\HENRYA~1\AppData\Local\Temp\cc8DOJUR.s 			page 2


  31:Generated_Source\PSoC5/PUERTO_CAN_1_INT.c ****     *
  32:Generated_Source\PSoC5/PUERTO_CAN_1_INT.c ****     * Summary:
  33:Generated_Source\PSoC5/PUERTO_CAN_1_INT.c ****     *  This function is entry point to Arbitration Lost Interrupt. Clears
  34:Generated_Source\PSoC5/PUERTO_CAN_1_INT.c ****     *  Arbitration Lost interrupt flag. Only generated if Arbitration Lost
  35:Generated_Source\PSoC5/PUERTO_CAN_1_INT.c ****     *  Interrupt enable in Customizer.
  36:Generated_Source\PSoC5/PUERTO_CAN_1_INT.c ****     *
  37:Generated_Source\PSoC5/PUERTO_CAN_1_INT.c ****     * Parameters:
  38:Generated_Source\PSoC5/PUERTO_CAN_1_INT.c ****     *  None.
  39:Generated_Source\PSoC5/PUERTO_CAN_1_INT.c ****     *
  40:Generated_Source\PSoC5/PUERTO_CAN_1_INT.c ****     * Return:
  41:Generated_Source\PSoC5/PUERTO_CAN_1_INT.c ****     *  None.
  42:Generated_Source\PSoC5/PUERTO_CAN_1_INT.c ****     *
  43:Generated_Source\PSoC5/PUERTO_CAN_1_INT.c ****     * Reentrant:
  44:Generated_Source\PSoC5/PUERTO_CAN_1_INT.c ****     *  Depends on Customer code.
  45:Generated_Source\PSoC5/PUERTO_CAN_1_INT.c ****     *
  46:Generated_Source\PSoC5/PUERTO_CAN_1_INT.c ****     *******************************************************************************/
  47:Generated_Source\PSoC5/PUERTO_CAN_1_INT.c ****     void PUERTO_CAN_1_ArbLostIsr(void) 
  48:Generated_Source\PSoC5/PUERTO_CAN_1_INT.c ****     {
  49:Generated_Source\PSoC5/PUERTO_CAN_1_INT.c ****         /* Clear Arbitration Lost flag */
  50:Generated_Source\PSoC5/PUERTO_CAN_1_INT.c ****         PUERTO_CAN_1_INT_SR_REG.byte[0u] = PUERTO_CAN_1_ARBITRATION_LOST_MASK;
  51:Generated_Source\PSoC5/PUERTO_CAN_1_INT.c **** 
  52:Generated_Source\PSoC5/PUERTO_CAN_1_INT.c ****         /* `#START ARBITRATION_LOST_ISR` */
  53:Generated_Source\PSoC5/PUERTO_CAN_1_INT.c **** 
  54:Generated_Source\PSoC5/PUERTO_CAN_1_INT.c ****         /* `#END` */
  55:Generated_Source\PSoC5/PUERTO_CAN_1_INT.c **** 
  56:Generated_Source\PSoC5/PUERTO_CAN_1_INT.c ****         #ifdef PUERTO_CAN_1_ARB_LOST_ISR_CALLBACK
  57:Generated_Source\PSoC5/PUERTO_CAN_1_INT.c ****             PUERTO_CAN_1_ArbLostIsr_Callback();
  58:Generated_Source\PSoC5/PUERTO_CAN_1_INT.c ****         #endif /* PUERTO_CAN_1_ARB_LOST_ISR_CALLBACK */
  59:Generated_Source\PSoC5/PUERTO_CAN_1_INT.c ****     }
  60:Generated_Source\PSoC5/PUERTO_CAN_1_INT.c **** #endif /* PUERTO_CAN_1_ARB_LOST */
  61:Generated_Source\PSoC5/PUERTO_CAN_1_INT.c **** 
  62:Generated_Source\PSoC5/PUERTO_CAN_1_INT.c **** 
  63:Generated_Source\PSoC5/PUERTO_CAN_1_INT.c **** #if (PUERTO_CAN_1_OVERLOAD)
  64:Generated_Source\PSoC5/PUERTO_CAN_1_INT.c ****     /*******************************************************************************
  65:Generated_Source\PSoC5/PUERTO_CAN_1_INT.c ****     * FUNCTION NAME:   PUERTO_CAN_1_OvrLdErrorIsr
  66:Generated_Source\PSoC5/PUERTO_CAN_1_INT.c ****     ********************************************************************************
  67:Generated_Source\PSoC5/PUERTO_CAN_1_INT.c ****     *
  68:Generated_Source\PSoC5/PUERTO_CAN_1_INT.c ****     * Summary:
  69:Generated_Source\PSoC5/PUERTO_CAN_1_INT.c ****     *  This function is entry point to Overload Error Interrupt. Clears Overload
  70:Generated_Source\PSoC5/PUERTO_CAN_1_INT.c ****     *  Error interrupt flag. Only generated if Overload Error Interrupt enable
  71:Generated_Source\PSoC5/PUERTO_CAN_1_INT.c ****     *  in Customizer.
  72:Generated_Source\PSoC5/PUERTO_CAN_1_INT.c ****     *
  73:Generated_Source\PSoC5/PUERTO_CAN_1_INT.c ****     * Parameters:
  74:Generated_Source\PSoC5/PUERTO_CAN_1_INT.c ****     *  None.
  75:Generated_Source\PSoC5/PUERTO_CAN_1_INT.c ****     *
  76:Generated_Source\PSoC5/PUERTO_CAN_1_INT.c ****     * Return:
  77:Generated_Source\PSoC5/PUERTO_CAN_1_INT.c ****     *  None.
  78:Generated_Source\PSoC5/PUERTO_CAN_1_INT.c ****     *
  79:Generated_Source\PSoC5/PUERTO_CAN_1_INT.c ****     * Reentrant:
  80:Generated_Source\PSoC5/PUERTO_CAN_1_INT.c ****     *  Depends on Customer code.
  81:Generated_Source\PSoC5/PUERTO_CAN_1_INT.c ****     *
  82:Generated_Source\PSoC5/PUERTO_CAN_1_INT.c ****     *******************************************************************************/
  83:Generated_Source\PSoC5/PUERTO_CAN_1_INT.c ****     void PUERTO_CAN_1_OvrLdErrorIsr(void) 
  84:Generated_Source\PSoC5/PUERTO_CAN_1_INT.c ****     {
  85:Generated_Source\PSoC5/PUERTO_CAN_1_INT.c ****         /* Clear Overload Error flag */
  86:Generated_Source\PSoC5/PUERTO_CAN_1_INT.c ****         PUERTO_CAN_1_INT_SR_REG.byte[0u] = PUERTO_CAN_1_OVERLOAD_ERROR_MASK;
  87:Generated_Source\PSoC5/PUERTO_CAN_1_INT.c **** 
ARM GAS  C:\Users\HENRYA~1\AppData\Local\Temp\cc8DOJUR.s 			page 3


  88:Generated_Source\PSoC5/PUERTO_CAN_1_INT.c ****         /* `#START OVER_LOAD_ERROR_ISR` */
  89:Generated_Source\PSoC5/PUERTO_CAN_1_INT.c **** 
  90:Generated_Source\PSoC5/PUERTO_CAN_1_INT.c ****         /* `#END` */
  91:Generated_Source\PSoC5/PUERTO_CAN_1_INT.c **** 
  92:Generated_Source\PSoC5/PUERTO_CAN_1_INT.c ****         #ifdef PUERTO_CAN_1_OVR_LD_ERROR_ISR_CALLBACK
  93:Generated_Source\PSoC5/PUERTO_CAN_1_INT.c ****             PUERTO_CAN_1_OvrLdErrorIsr_Callback();
  94:Generated_Source\PSoC5/PUERTO_CAN_1_INT.c ****         #endif /* PUERTO_CAN_1_OVR_LD_ERROR_ISR_CALLBACK */
  95:Generated_Source\PSoC5/PUERTO_CAN_1_INT.c ****     }
  96:Generated_Source\PSoC5/PUERTO_CAN_1_INT.c **** #endif /* PUERTO_CAN_1_OVERLOAD */
  97:Generated_Source\PSoC5/PUERTO_CAN_1_INT.c **** 
  98:Generated_Source\PSoC5/PUERTO_CAN_1_INT.c **** 
  99:Generated_Source\PSoC5/PUERTO_CAN_1_INT.c **** #if (PUERTO_CAN_1_BIT_ERR)
 100:Generated_Source\PSoC5/PUERTO_CAN_1_INT.c ****     /*******************************************************************************
 101:Generated_Source\PSoC5/PUERTO_CAN_1_INT.c ****     * FUNCTION NAME:   PUERTO_CAN_1_BitErrorIsr
 102:Generated_Source\PSoC5/PUERTO_CAN_1_INT.c ****     ********************************************************************************
 103:Generated_Source\PSoC5/PUERTO_CAN_1_INT.c ****     *
 104:Generated_Source\PSoC5/PUERTO_CAN_1_INT.c ****     * Summary:
 105:Generated_Source\PSoC5/PUERTO_CAN_1_INT.c ****     *  This function is entry point to Bit Error Interrupt. Clears Bit Error
 106:Generated_Source\PSoC5/PUERTO_CAN_1_INT.c ****     *  interrupt flag. Only generated if Bit Error Interrupt enable in Customizer.
 107:Generated_Source\PSoC5/PUERTO_CAN_1_INT.c ****     *
 108:Generated_Source\PSoC5/PUERTO_CAN_1_INT.c ****     * Parameters:
 109:Generated_Source\PSoC5/PUERTO_CAN_1_INT.c ****     *  None.
 110:Generated_Source\PSoC5/PUERTO_CAN_1_INT.c ****     *
 111:Generated_Source\PSoC5/PUERTO_CAN_1_INT.c ****     * Return:
 112:Generated_Source\PSoC5/PUERTO_CAN_1_INT.c ****     *  None.
 113:Generated_Source\PSoC5/PUERTO_CAN_1_INT.c ****     *
 114:Generated_Source\PSoC5/PUERTO_CAN_1_INT.c ****     * Reentrant:
 115:Generated_Source\PSoC5/PUERTO_CAN_1_INT.c ****     *  Depends on Customer code.
 116:Generated_Source\PSoC5/PUERTO_CAN_1_INT.c ****     *
 117:Generated_Source\PSoC5/PUERTO_CAN_1_INT.c ****     *******************************************************************************/
 118:Generated_Source\PSoC5/PUERTO_CAN_1_INT.c ****     void PUERTO_CAN_1_BitErrorIsr(void) 
 119:Generated_Source\PSoC5/PUERTO_CAN_1_INT.c ****     {
 120:Generated_Source\PSoC5/PUERTO_CAN_1_INT.c ****         /* Clear Bit Error flag */
 121:Generated_Source\PSoC5/PUERTO_CAN_1_INT.c ****         PUERTO_CAN_1_INT_SR_REG.byte[0u] = PUERTO_CAN_1_BIT_ERROR_MASK;
 122:Generated_Source\PSoC5/PUERTO_CAN_1_INT.c **** 
 123:Generated_Source\PSoC5/PUERTO_CAN_1_INT.c ****         /* `#START BIT_ERROR_ISR` */
 124:Generated_Source\PSoC5/PUERTO_CAN_1_INT.c **** 
 125:Generated_Source\PSoC5/PUERTO_CAN_1_INT.c ****         /* `#END` */
 126:Generated_Source\PSoC5/PUERTO_CAN_1_INT.c **** 
 127:Generated_Source\PSoC5/PUERTO_CAN_1_INT.c ****         #ifdef PUERTO_CAN_1_BIT_ERROR_ISR_CALLBACK
 128:Generated_Source\PSoC5/PUERTO_CAN_1_INT.c ****             PUERTO_CAN_1_BitErrorIsr_Callback();
 129:Generated_Source\PSoC5/PUERTO_CAN_1_INT.c ****         #endif /* PUERTO_CAN_1_BIT_ERROR_ISR_CALLBACK */
 130:Generated_Source\PSoC5/PUERTO_CAN_1_INT.c ****     }
 131:Generated_Source\PSoC5/PUERTO_CAN_1_INT.c **** #endif /* PUERTO_CAN_1_BIT_ERR */
 132:Generated_Source\PSoC5/PUERTO_CAN_1_INT.c **** 
 133:Generated_Source\PSoC5/PUERTO_CAN_1_INT.c **** 
 134:Generated_Source\PSoC5/PUERTO_CAN_1_INT.c **** #if (PUERTO_CAN_1_STUFF_ERR)
 135:Generated_Source\PSoC5/PUERTO_CAN_1_INT.c ****     /*******************************************************************************
 136:Generated_Source\PSoC5/PUERTO_CAN_1_INT.c ****     * FUNCTION NAME:   PUERTO_CAN_1_BitStuffErrorIsr
 137:Generated_Source\PSoC5/PUERTO_CAN_1_INT.c ****     ********************************************************************************
 138:Generated_Source\PSoC5/PUERTO_CAN_1_INT.c ****     *
 139:Generated_Source\PSoC5/PUERTO_CAN_1_INT.c ****     * Summary:
 140:Generated_Source\PSoC5/PUERTO_CAN_1_INT.c ****     *  This function is entry point to Bit Stuff Error Interrupt. Clears Bit Stuff
 141:Generated_Source\PSoC5/PUERTO_CAN_1_INT.c ****     *  Error interrupt flag. Only generated if Bit Stuff Error Interrupt enable
 142:Generated_Source\PSoC5/PUERTO_CAN_1_INT.c ****     *  in Customizer.
 143:Generated_Source\PSoC5/PUERTO_CAN_1_INT.c ****     *
 144:Generated_Source\PSoC5/PUERTO_CAN_1_INT.c ****     * Parameters:
ARM GAS  C:\Users\HENRYA~1\AppData\Local\Temp\cc8DOJUR.s 			page 4


 145:Generated_Source\PSoC5/PUERTO_CAN_1_INT.c ****     *  None.
 146:Generated_Source\PSoC5/PUERTO_CAN_1_INT.c ****     *
 147:Generated_Source\PSoC5/PUERTO_CAN_1_INT.c ****     * Return:
 148:Generated_Source\PSoC5/PUERTO_CAN_1_INT.c ****     *  None.
 149:Generated_Source\PSoC5/PUERTO_CAN_1_INT.c ****     *
 150:Generated_Source\PSoC5/PUERTO_CAN_1_INT.c ****     * Reentrant:
 151:Generated_Source\PSoC5/PUERTO_CAN_1_INT.c ****     *  Depends on Customer code.
 152:Generated_Source\PSoC5/PUERTO_CAN_1_INT.c ****     *
 153:Generated_Source\PSoC5/PUERTO_CAN_1_INT.c ****     *******************************************************************************/
 154:Generated_Source\PSoC5/PUERTO_CAN_1_INT.c ****     void PUERTO_CAN_1_BitStuffErrorIsr(void) 
 155:Generated_Source\PSoC5/PUERTO_CAN_1_INT.c ****     {
 156:Generated_Source\PSoC5/PUERTO_CAN_1_INT.c ****         /* Clear Stuff Error flag */
 157:Generated_Source\PSoC5/PUERTO_CAN_1_INT.c ****         PUERTO_CAN_1_INT_SR_REG.byte[0u] = PUERTO_CAN_1_STUFF_ERROR_MASK;
 158:Generated_Source\PSoC5/PUERTO_CAN_1_INT.c **** 
 159:Generated_Source\PSoC5/PUERTO_CAN_1_INT.c ****         /* `#START BIT_STUFF_ERROR_ISR` */
 160:Generated_Source\PSoC5/PUERTO_CAN_1_INT.c **** 
 161:Generated_Source\PSoC5/PUERTO_CAN_1_INT.c ****         /* `#END` */
 162:Generated_Source\PSoC5/PUERTO_CAN_1_INT.c **** 
 163:Generated_Source\PSoC5/PUERTO_CAN_1_INT.c ****         #ifdef PUERTO_CAN_1_BIT_STUFF_ERROR_ISR_CALLBACK
 164:Generated_Source\PSoC5/PUERTO_CAN_1_INT.c ****             PUERTO_CAN_1_BitStuffErrorIsr_Callback();
 165:Generated_Source\PSoC5/PUERTO_CAN_1_INT.c ****         #endif /* PUERTO_CAN_1_BIT_STUFF_ERROR_ISR_CALLBACK */
 166:Generated_Source\PSoC5/PUERTO_CAN_1_INT.c ****     }
 167:Generated_Source\PSoC5/PUERTO_CAN_1_INT.c **** #endif /* PUERTO_CAN_1_STUFF_ERR */
 168:Generated_Source\PSoC5/PUERTO_CAN_1_INT.c **** 
 169:Generated_Source\PSoC5/PUERTO_CAN_1_INT.c **** 
 170:Generated_Source\PSoC5/PUERTO_CAN_1_INT.c **** #if (PUERTO_CAN_1_ACK_ERR)
 171:Generated_Source\PSoC5/PUERTO_CAN_1_INT.c ****     /*******************************************************************************
 172:Generated_Source\PSoC5/PUERTO_CAN_1_INT.c ****     * FUNCTION NAME:   PUERTO_CAN_1_AckErrorIsr
 173:Generated_Source\PSoC5/PUERTO_CAN_1_INT.c ****     ********************************************************************************
 174:Generated_Source\PSoC5/PUERTO_CAN_1_INT.c ****     *
 175:Generated_Source\PSoC5/PUERTO_CAN_1_INT.c ****     * Summary:
 176:Generated_Source\PSoC5/PUERTO_CAN_1_INT.c ****     *  This function is entry point to Acknowledge Error Interrupt. Clears
 177:Generated_Source\PSoC5/PUERTO_CAN_1_INT.c ****     *  Acknowledge Error interrupt flag. Only generated if Acknowledge Error
 178:Generated_Source\PSoC5/PUERTO_CAN_1_INT.c ****     *  Interrupt enable in Customizer.
 179:Generated_Source\PSoC5/PUERTO_CAN_1_INT.c ****     *
 180:Generated_Source\PSoC5/PUERTO_CAN_1_INT.c ****     * Parameters:
 181:Generated_Source\PSoC5/PUERTO_CAN_1_INT.c ****     *  None.
 182:Generated_Source\PSoC5/PUERTO_CAN_1_INT.c ****     *
 183:Generated_Source\PSoC5/PUERTO_CAN_1_INT.c ****     * Return:
 184:Generated_Source\PSoC5/PUERTO_CAN_1_INT.c ****     *  None.
 185:Generated_Source\PSoC5/PUERTO_CAN_1_INT.c ****     *
 186:Generated_Source\PSoC5/PUERTO_CAN_1_INT.c ****     * Reentrant:
 187:Generated_Source\PSoC5/PUERTO_CAN_1_INT.c ****     *  Depends on Customer code.
 188:Generated_Source\PSoC5/PUERTO_CAN_1_INT.c ****     *
 189:Generated_Source\PSoC5/PUERTO_CAN_1_INT.c ****     *******************************************************************************/
 190:Generated_Source\PSoC5/PUERTO_CAN_1_INT.c ****     void PUERTO_CAN_1_AckErrorIsr(void) 
 191:Generated_Source\PSoC5/PUERTO_CAN_1_INT.c ****     {
 192:Generated_Source\PSoC5/PUERTO_CAN_1_INT.c ****         /* Clear Acknoledge Error flag */
 193:Generated_Source\PSoC5/PUERTO_CAN_1_INT.c ****         PUERTO_CAN_1_INT_SR_REG.byte[0u] = PUERTO_CAN_1_ACK_ERROR_MASK;
 194:Generated_Source\PSoC5/PUERTO_CAN_1_INT.c **** 
 195:Generated_Source\PSoC5/PUERTO_CAN_1_INT.c ****         /* `#START ACKNOWLEDGE_ERROR_ISR` */
 196:Generated_Source\PSoC5/PUERTO_CAN_1_INT.c **** 
 197:Generated_Source\PSoC5/PUERTO_CAN_1_INT.c ****         /* `#END` */
 198:Generated_Source\PSoC5/PUERTO_CAN_1_INT.c **** 
 199:Generated_Source\PSoC5/PUERTO_CAN_1_INT.c ****         #ifdef PUERTO_CAN_1_ACK_ERROR_ISR_CALLBACK
 200:Generated_Source\PSoC5/PUERTO_CAN_1_INT.c ****             PUERTO_CAN_1_AckErrorIsr_Callback();
 201:Generated_Source\PSoC5/PUERTO_CAN_1_INT.c ****         #endif /* PUERTO_CAN_1_ACK_ERROR_ISR_CALLBACK */
ARM GAS  C:\Users\HENRYA~1\AppData\Local\Temp\cc8DOJUR.s 			page 5


 202:Generated_Source\PSoC5/PUERTO_CAN_1_INT.c ****     }
 203:Generated_Source\PSoC5/PUERTO_CAN_1_INT.c **** #endif /* PUERTO_CAN_1_ACK_ERR */
 204:Generated_Source\PSoC5/PUERTO_CAN_1_INT.c **** 
 205:Generated_Source\PSoC5/PUERTO_CAN_1_INT.c **** 
 206:Generated_Source\PSoC5/PUERTO_CAN_1_INT.c **** #if (PUERTO_CAN_1_FORM_ERR)
 207:Generated_Source\PSoC5/PUERTO_CAN_1_INT.c ****     /*******************************************************************************
 208:Generated_Source\PSoC5/PUERTO_CAN_1_INT.c ****     * FUNCTION NAME:   PUERTO_CAN_1_MsgErrorIsr
 209:Generated_Source\PSoC5/PUERTO_CAN_1_INT.c ****     ********************************************************************************
 210:Generated_Source\PSoC5/PUERTO_CAN_1_INT.c ****     *
 211:Generated_Source\PSoC5/PUERTO_CAN_1_INT.c ****     * Summary:
 212:Generated_Source\PSoC5/PUERTO_CAN_1_INT.c ****     *  This function is entry point to Form Error Interrupt. Clears Form Error
 213:Generated_Source\PSoC5/PUERTO_CAN_1_INT.c ****     *  interrupt flag. Only generated if Form Error Interrupt enable in Customizer.
 214:Generated_Source\PSoC5/PUERTO_CAN_1_INT.c ****     *
 215:Generated_Source\PSoC5/PUERTO_CAN_1_INT.c ****     * Parameters:
 216:Generated_Source\PSoC5/PUERTO_CAN_1_INT.c ****     *  None.
 217:Generated_Source\PSoC5/PUERTO_CAN_1_INT.c ****     *
 218:Generated_Source\PSoC5/PUERTO_CAN_1_INT.c ****     * Return:
 219:Generated_Source\PSoC5/PUERTO_CAN_1_INT.c ****     *  None.
 220:Generated_Source\PSoC5/PUERTO_CAN_1_INT.c ****     *
 221:Generated_Source\PSoC5/PUERTO_CAN_1_INT.c ****     * Reentrant:
 222:Generated_Source\PSoC5/PUERTO_CAN_1_INT.c ****     *  Depends on Customer code.
 223:Generated_Source\PSoC5/PUERTO_CAN_1_INT.c ****     *
 224:Generated_Source\PSoC5/PUERTO_CAN_1_INT.c ****     *******************************************************************************/
 225:Generated_Source\PSoC5/PUERTO_CAN_1_INT.c ****     void PUERTO_CAN_1_MsgErrorIsr(void) 
 226:Generated_Source\PSoC5/PUERTO_CAN_1_INT.c ****     {
 227:Generated_Source\PSoC5/PUERTO_CAN_1_INT.c ****         /* Clear Form Error flag */
 228:Generated_Source\PSoC5/PUERTO_CAN_1_INT.c ****         PUERTO_CAN_1_INT_SR_REG.byte[0u] = PUERTO_CAN_1_FORM_ERROR_MASK;
 229:Generated_Source\PSoC5/PUERTO_CAN_1_INT.c **** 
 230:Generated_Source\PSoC5/PUERTO_CAN_1_INT.c ****         /* `#START MESSAGE_ERROR_ISR` */
 231:Generated_Source\PSoC5/PUERTO_CAN_1_INT.c **** 
 232:Generated_Source\PSoC5/PUERTO_CAN_1_INT.c ****         /* `#END` */
 233:Generated_Source\PSoC5/PUERTO_CAN_1_INT.c **** 
 234:Generated_Source\PSoC5/PUERTO_CAN_1_INT.c ****         #ifdef PUERTO_CAN_1_MSG_ERROR_ISR_CALLBACK
 235:Generated_Source\PSoC5/PUERTO_CAN_1_INT.c ****             PUERTO_CAN_1_MsgErrorIsr_Callback();
 236:Generated_Source\PSoC5/PUERTO_CAN_1_INT.c ****         #endif /* PUERTO_CAN_1_MSG_ERROR_ISR_CALLBACK */
 237:Generated_Source\PSoC5/PUERTO_CAN_1_INT.c ****     }
 238:Generated_Source\PSoC5/PUERTO_CAN_1_INT.c **** #endif /* PUERTO_CAN_1_FORM_ERR */
 239:Generated_Source\PSoC5/PUERTO_CAN_1_INT.c **** 
 240:Generated_Source\PSoC5/PUERTO_CAN_1_INT.c **** 
 241:Generated_Source\PSoC5/PUERTO_CAN_1_INT.c **** #if (PUERTO_CAN_1_CRC_ERR)
 242:Generated_Source\PSoC5/PUERTO_CAN_1_INT.c ****     /*******************************************************************************
 243:Generated_Source\PSoC5/PUERTO_CAN_1_INT.c ****     * FUNCTION NAME:   PUERTO_CAN_1_CrcErrorIsr
 244:Generated_Source\PSoC5/PUERTO_CAN_1_INT.c ****     ********************************************************************************
 245:Generated_Source\PSoC5/PUERTO_CAN_1_INT.c ****     *
 246:Generated_Source\PSoC5/PUERTO_CAN_1_INT.c ****     * Summary:
 247:Generated_Source\PSoC5/PUERTO_CAN_1_INT.c ****     *  This function is entry point to CRC Error Interrupt. Clears CRC Error
 248:Generated_Source\PSoC5/PUERTO_CAN_1_INT.c ****     *  interrupt flag. Only generated if CRC Error Interrupt enable in Customizer.
 249:Generated_Source\PSoC5/PUERTO_CAN_1_INT.c ****     *
 250:Generated_Source\PSoC5/PUERTO_CAN_1_INT.c ****     * Parameters:
 251:Generated_Source\PSoC5/PUERTO_CAN_1_INT.c ****     *  None.
 252:Generated_Source\PSoC5/PUERTO_CAN_1_INT.c ****     *
 253:Generated_Source\PSoC5/PUERTO_CAN_1_INT.c ****     * Return:
 254:Generated_Source\PSoC5/PUERTO_CAN_1_INT.c ****     *  None.
 255:Generated_Source\PSoC5/PUERTO_CAN_1_INT.c ****     *
 256:Generated_Source\PSoC5/PUERTO_CAN_1_INT.c ****     * Reentrant:
 257:Generated_Source\PSoC5/PUERTO_CAN_1_INT.c ****     *  Depends on Customer code.
 258:Generated_Source\PSoC5/PUERTO_CAN_1_INT.c ****     *
ARM GAS  C:\Users\HENRYA~1\AppData\Local\Temp\cc8DOJUR.s 			page 6


 259:Generated_Source\PSoC5/PUERTO_CAN_1_INT.c ****     *******************************************************************************/
 260:Generated_Source\PSoC5/PUERTO_CAN_1_INT.c ****     void PUERTO_CAN_1_CrcErrorIsr(void) 
 261:Generated_Source\PSoC5/PUERTO_CAN_1_INT.c ****     {
 262:Generated_Source\PSoC5/PUERTO_CAN_1_INT.c ****         /* Clear CRC Error flag */
 263:Generated_Source\PSoC5/PUERTO_CAN_1_INT.c ****         PUERTO_CAN_1_INT_SR_REG.byte[1u] = PUERTO_CAN_1_CRC_ERROR_MASK;
 264:Generated_Source\PSoC5/PUERTO_CAN_1_INT.c **** 
 265:Generated_Source\PSoC5/PUERTO_CAN_1_INT.c ****         /* `#START CRC_ERROR_ISR` */
 266:Generated_Source\PSoC5/PUERTO_CAN_1_INT.c **** 
 267:Generated_Source\PSoC5/PUERTO_CAN_1_INT.c ****         /* `#END` */
 268:Generated_Source\PSoC5/PUERTO_CAN_1_INT.c **** 
 269:Generated_Source\PSoC5/PUERTO_CAN_1_INT.c ****         #ifdef PUERTO_CAN_1_CRC_ERROR_ISR_CALLBACK
 270:Generated_Source\PSoC5/PUERTO_CAN_1_INT.c ****             PUERTO_CAN_1_CrcErrorIsr_Callback();
 271:Generated_Source\PSoC5/PUERTO_CAN_1_INT.c ****         #endif /* PUERTO_CAN_1_CRC_ERROR_ISR_CALLBACK */
 272:Generated_Source\PSoC5/PUERTO_CAN_1_INT.c ****     }
 273:Generated_Source\PSoC5/PUERTO_CAN_1_INT.c **** #endif /* PUERTO_CAN_1_CRC_ERR */
 274:Generated_Source\PSoC5/PUERTO_CAN_1_INT.c **** 
 275:Generated_Source\PSoC5/PUERTO_CAN_1_INT.c **** 
 276:Generated_Source\PSoC5/PUERTO_CAN_1_INT.c **** #if (PUERTO_CAN_1_BUS_OFF)
 277:Generated_Source\PSoC5/PUERTO_CAN_1_INT.c ****     /*******************************************************************************
 278:Generated_Source\PSoC5/PUERTO_CAN_1_INT.c ****     * FUNCTION NAME:   PUERTO_CAN_1_BusOffIsr
 279:Generated_Source\PSoC5/PUERTO_CAN_1_INT.c ****     ********************************************************************************
 280:Generated_Source\PSoC5/PUERTO_CAN_1_INT.c ****     *
 281:Generated_Source\PSoC5/PUERTO_CAN_1_INT.c ****     * Summary:
 282:Generated_Source\PSoC5/PUERTO_CAN_1_INT.c ****     *  This function is entry point to Bus Off Interrupt. Places CAN Component
 283:Generated_Source\PSoC5/PUERTO_CAN_1_INT.c ****     *  to Stop mode. Only generated if Bus Off Interrupt enable in Customizer.
 284:Generated_Source\PSoC5/PUERTO_CAN_1_INT.c ****     *  Recommended setting to enable this interrupt.
 285:Generated_Source\PSoC5/PUERTO_CAN_1_INT.c ****     *
 286:Generated_Source\PSoC5/PUERTO_CAN_1_INT.c ****     * Parameters:
 287:Generated_Source\PSoC5/PUERTO_CAN_1_INT.c ****     *  None.
 288:Generated_Source\PSoC5/PUERTO_CAN_1_INT.c ****     *
 289:Generated_Source\PSoC5/PUERTO_CAN_1_INT.c ****     * Return:
 290:Generated_Source\PSoC5/PUERTO_CAN_1_INT.c ****     *  None.
 291:Generated_Source\PSoC5/PUERTO_CAN_1_INT.c ****     *
 292:Generated_Source\PSoC5/PUERTO_CAN_1_INT.c ****     * Side Effects:
 293:Generated_Source\PSoC5/PUERTO_CAN_1_INT.c ****     *  Stops CAN component operation.
 294:Generated_Source\PSoC5/PUERTO_CAN_1_INT.c ****     *
 295:Generated_Source\PSoC5/PUERTO_CAN_1_INT.c ****     *******************************************************************************/
 296:Generated_Source\PSoC5/PUERTO_CAN_1_INT.c ****     void PUERTO_CAN_1_BusOffIsr(void) 
 297:Generated_Source\PSoC5/PUERTO_CAN_1_INT.c ****     {
  28              		.loc 1 297 0
  29              		.cfi_startproc
  30              		@ args = 0, pretend = 0, frame = 0
  31              		@ frame_needed = 0, uses_anonymous_args = 0
  32 0000 08B5     		push	{r3, lr}
  33              		.cfi_def_cfa_offset 8
  34              		.cfi_offset 3, -8
  35              		.cfi_offset 14, -4
 298:Generated_Source\PSoC5/PUERTO_CAN_1_INT.c ****         /* Clear Bus Off flag */
 299:Generated_Source\PSoC5/PUERTO_CAN_1_INT.c ****         PUERTO_CAN_1_INT_SR_REG.byte[1u] = PUERTO_CAN_1_BUS_OFF_MASK;
  36              		.loc 1 299 0
  37 0002 0222     		movs	r2, #2
  38 0004 034B     		ldr	r3, .L3
  39 0006 5A70     		strb	r2, [r3, #1]
 300:Generated_Source\PSoC5/PUERTO_CAN_1_INT.c ****         (void) PUERTO_CAN_1_GlobalIntDisable();
  40              		.loc 1 300 0
  41 0008 FFF7FEFF 		bl	PUERTO_CAN_1_GlobalIntDisable
  42              	.LVL0:
ARM GAS  C:\Users\HENRYA~1\AppData\Local\Temp\cc8DOJUR.s 			page 7


 301:Generated_Source\PSoC5/PUERTO_CAN_1_INT.c **** 
 302:Generated_Source\PSoC5/PUERTO_CAN_1_INT.c ****         /* `#START BUS_OFF_ISR` */
 303:Generated_Source\PSoC5/PUERTO_CAN_1_INT.c **** 
 304:Generated_Source\PSoC5/PUERTO_CAN_1_INT.c ****         /* `#END` */
 305:Generated_Source\PSoC5/PUERTO_CAN_1_INT.c **** 
 306:Generated_Source\PSoC5/PUERTO_CAN_1_INT.c ****         #ifdef PUERTO_CAN_1_BUS_OFF_ISR_CALLBACK
 307:Generated_Source\PSoC5/PUERTO_CAN_1_INT.c ****             PUERTO_CAN_1_BusOffIsr_Callback();
 308:Generated_Source\PSoC5/PUERTO_CAN_1_INT.c ****         #endif /* PUERTO_CAN_1_BUS_OFF_ISR_CALLBACK */
 309:Generated_Source\PSoC5/PUERTO_CAN_1_INT.c **** 
 310:Generated_Source\PSoC5/PUERTO_CAN_1_INT.c ****         (void) PUERTO_CAN_1_Stop();
  43              		.loc 1 310 0
  44 000c FFF7FEFF 		bl	PUERTO_CAN_1_Stop
  45              	.LVL1:
  46 0010 08BD     		pop	{r3, pc}
  47              	.L4:
  48 0012 00BF     		.align	2
  49              	.L3:
  50 0014 00A00040 		.word	1073782784
  51              		.cfi_endproc
  52              	.LFE0:
  53              		.size	PUERTO_CAN_1_BusOffIsr, .-PUERTO_CAN_1_BusOffIsr
  54              		.section	.text.PUERTO_CAN_1_MsgRXIsr,"ax",%progbits
  55              		.align	2
  56              		.global	PUERTO_CAN_1_MsgRXIsr
  57              		.thumb
  58              		.thumb_func
  59              		.type	PUERTO_CAN_1_MsgRXIsr, %function
  60              	PUERTO_CAN_1_MsgRXIsr:
  61              	.LFB1:
 311:Generated_Source\PSoC5/PUERTO_CAN_1_INT.c ****     }
 312:Generated_Source\PSoC5/PUERTO_CAN_1_INT.c **** #endif /* PUERTO_CAN_1_BUS_OFF */
 313:Generated_Source\PSoC5/PUERTO_CAN_1_INT.c **** 
 314:Generated_Source\PSoC5/PUERTO_CAN_1_INT.c **** 
 315:Generated_Source\PSoC5/PUERTO_CAN_1_INT.c **** #if (PUERTO_CAN_1_RX_MSG_LOST)
 316:Generated_Source\PSoC5/PUERTO_CAN_1_INT.c ****     /*******************************************************************************
 317:Generated_Source\PSoC5/PUERTO_CAN_1_INT.c ****     * FUNCTION NAME:   PUERTO_CAN_1_MsgLostIsr
 318:Generated_Source\PSoC5/PUERTO_CAN_1_INT.c ****     ********************************************************************************
 319:Generated_Source\PSoC5/PUERTO_CAN_1_INT.c ****     *
 320:Generated_Source\PSoC5/PUERTO_CAN_1_INT.c ****     * Summary:
 321:Generated_Source\PSoC5/PUERTO_CAN_1_INT.c ****     *  This function is entry point to Message Lost Interrupt. Clears Message Lost
 322:Generated_Source\PSoC5/PUERTO_CAN_1_INT.c ****     *  interrupt flag. Only generated if Message Lost Interrupt enable in Customizer
 323:Generated_Source\PSoC5/PUERTO_CAN_1_INT.c ****     *
 324:Generated_Source\PSoC5/PUERTO_CAN_1_INT.c ****     * Parameters:
 325:Generated_Source\PSoC5/PUERTO_CAN_1_INT.c ****     *  None.
 326:Generated_Source\PSoC5/PUERTO_CAN_1_INT.c ****     *
 327:Generated_Source\PSoC5/PUERTO_CAN_1_INT.c ****     * Return:
 328:Generated_Source\PSoC5/PUERTO_CAN_1_INT.c ****     *  None.
 329:Generated_Source\PSoC5/PUERTO_CAN_1_INT.c ****     *
 330:Generated_Source\PSoC5/PUERTO_CAN_1_INT.c ****     * Reentrant:
 331:Generated_Source\PSoC5/PUERTO_CAN_1_INT.c ****     *  Depends on Customer code.
 332:Generated_Source\PSoC5/PUERTO_CAN_1_INT.c ****     *
 333:Generated_Source\PSoC5/PUERTO_CAN_1_INT.c ****     *******************************************************************************/
 334:Generated_Source\PSoC5/PUERTO_CAN_1_INT.c ****     void PUERTO_CAN_1_MsgLostIsr(void) 
 335:Generated_Source\PSoC5/PUERTO_CAN_1_INT.c ****     {
 336:Generated_Source\PSoC5/PUERTO_CAN_1_INT.c ****         /* Clear Receive Message Lost flag */
 337:Generated_Source\PSoC5/PUERTO_CAN_1_INT.c ****         PUERTO_CAN_1_INT_SR_REG.byte[1u] = PUERTO_CAN_1_RX_MSG_LOST_MASK;
 338:Generated_Source\PSoC5/PUERTO_CAN_1_INT.c **** 
ARM GAS  C:\Users\HENRYA~1\AppData\Local\Temp\cc8DOJUR.s 			page 8


 339:Generated_Source\PSoC5/PUERTO_CAN_1_INT.c ****         /* `#START MESSAGE_LOST_ISR` */
 340:Generated_Source\PSoC5/PUERTO_CAN_1_INT.c **** 
 341:Generated_Source\PSoC5/PUERTO_CAN_1_INT.c ****         /* `#END` */
 342:Generated_Source\PSoC5/PUERTO_CAN_1_INT.c **** 
 343:Generated_Source\PSoC5/PUERTO_CAN_1_INT.c ****         #ifdef PUERTO_CAN_1_MSG_LOST_ISR_CALLBACK
 344:Generated_Source\PSoC5/PUERTO_CAN_1_INT.c ****             PUERTO_CAN_1_MsgLostIsr_Callback();
 345:Generated_Source\PSoC5/PUERTO_CAN_1_INT.c ****         #endif /* PUERTO_CAN_1_MSG_LOST_ISR_CALLBACK */
 346:Generated_Source\PSoC5/PUERTO_CAN_1_INT.c ****     }
 347:Generated_Source\PSoC5/PUERTO_CAN_1_INT.c **** #endif /* PUERTO_CAN_1_RX_MSG_LOST */
 348:Generated_Source\PSoC5/PUERTO_CAN_1_INT.c **** 
 349:Generated_Source\PSoC5/PUERTO_CAN_1_INT.c **** 
 350:Generated_Source\PSoC5/PUERTO_CAN_1_INT.c **** #if (PUERTO_CAN_1_TX_MESSAGE)
 351:Generated_Source\PSoC5/PUERTO_CAN_1_INT.c ****     /*******************************************************************************
 352:Generated_Source\PSoC5/PUERTO_CAN_1_INT.c ****     * FUNCTION NAME:   PUERTO_CAN_1_MsgTXIsr
 353:Generated_Source\PSoC5/PUERTO_CAN_1_INT.c ****     ********************************************************************************
 354:Generated_Source\PSoC5/PUERTO_CAN_1_INT.c ****     *
 355:Generated_Source\PSoC5/PUERTO_CAN_1_INT.c ****     * Summary:
 356:Generated_Source\PSoC5/PUERTO_CAN_1_INT.c ****     *  This function is entry point to Transmit Message Interrupt. Clears Transmit
 357:Generated_Source\PSoC5/PUERTO_CAN_1_INT.c ****     *  Message interrupt flag. Only generated if Transmit Message Interrupt enable
 358:Generated_Source\PSoC5/PUERTO_CAN_1_INT.c ****     *  in Customizer.
 359:Generated_Source\PSoC5/PUERTO_CAN_1_INT.c ****     *
 360:Generated_Source\PSoC5/PUERTO_CAN_1_INT.c ****     * Parameters:
 361:Generated_Source\PSoC5/PUERTO_CAN_1_INT.c ****     *  None.
 362:Generated_Source\PSoC5/PUERTO_CAN_1_INT.c ****     *
 363:Generated_Source\PSoC5/PUERTO_CAN_1_INT.c ****     * Return:
 364:Generated_Source\PSoC5/PUERTO_CAN_1_INT.c ****     *  None.
 365:Generated_Source\PSoC5/PUERTO_CAN_1_INT.c ****     *
 366:Generated_Source\PSoC5/PUERTO_CAN_1_INT.c ****     * Reentrant:
 367:Generated_Source\PSoC5/PUERTO_CAN_1_INT.c ****     *  Depends on Customer code.
 368:Generated_Source\PSoC5/PUERTO_CAN_1_INT.c ****     *
 369:Generated_Source\PSoC5/PUERTO_CAN_1_INT.c ****     *******************************************************************************/
 370:Generated_Source\PSoC5/PUERTO_CAN_1_INT.c ****     void PUERTO_CAN_1_MsgTXIsr(void) 
 371:Generated_Source\PSoC5/PUERTO_CAN_1_INT.c ****     {
 372:Generated_Source\PSoC5/PUERTO_CAN_1_INT.c ****         /* Clear Transmit Message flag */
 373:Generated_Source\PSoC5/PUERTO_CAN_1_INT.c ****         PUERTO_CAN_1_INT_SR_REG.byte[1u] = PUERTO_CAN_1_TX_MESSAGE_MASK;
 374:Generated_Source\PSoC5/PUERTO_CAN_1_INT.c **** 
 375:Generated_Source\PSoC5/PUERTO_CAN_1_INT.c ****         /* `#START MESSAGE_TRANSMITTED_ISR` */
 376:Generated_Source\PSoC5/PUERTO_CAN_1_INT.c **** 
 377:Generated_Source\PSoC5/PUERTO_CAN_1_INT.c ****         /* `#END` */
 378:Generated_Source\PSoC5/PUERTO_CAN_1_INT.c **** 
 379:Generated_Source\PSoC5/PUERTO_CAN_1_INT.c ****         #ifdef PUERTO_CAN_1_MSG_TX_ISR_CALLBACK
 380:Generated_Source\PSoC5/PUERTO_CAN_1_INT.c ****             PUERTO_CAN_1_MsgTXIsr_Callback();
 381:Generated_Source\PSoC5/PUERTO_CAN_1_INT.c ****         #endif /* PUERTO_CAN_1_MSG_TX_ISR_CALLBACK */
 382:Generated_Source\PSoC5/PUERTO_CAN_1_INT.c ****     }
 383:Generated_Source\PSoC5/PUERTO_CAN_1_INT.c **** #endif /* PUERTO_CAN_1_TX_MESSAGE */
 384:Generated_Source\PSoC5/PUERTO_CAN_1_INT.c **** 
 385:Generated_Source\PSoC5/PUERTO_CAN_1_INT.c **** 
 386:Generated_Source\PSoC5/PUERTO_CAN_1_INT.c **** #if (PUERTO_CAN_1_RX_MESSAGE)
 387:Generated_Source\PSoC5/PUERTO_CAN_1_INT.c ****     /*******************************************************************************
 388:Generated_Source\PSoC5/PUERTO_CAN_1_INT.c ****     * FUNCTION NAME:   PUERTO_CAN_1_MsgRXIsr
 389:Generated_Source\PSoC5/PUERTO_CAN_1_INT.c ****     ********************************************************************************
 390:Generated_Source\PSoC5/PUERTO_CAN_1_INT.c ****     *
 391:Generated_Source\PSoC5/PUERTO_CAN_1_INT.c ****     * Summary:
 392:Generated_Source\PSoC5/PUERTO_CAN_1_INT.c ****     *  This function is entry point to Receive Message Interrupt. Clears Receive
 393:Generated_Source\PSoC5/PUERTO_CAN_1_INT.c ****     *  Message interrupt flag and call appropriate handlers for Basic and Full
 394:Generated_Source\PSoC5/PUERTO_CAN_1_INT.c ****     *  interrupt based mailboxes. Only generated if Receive Message Interrupt
 395:Generated_Source\PSoC5/PUERTO_CAN_1_INT.c ****     *  enable in Customizer. Recommended setting to enable this interrupt.
ARM GAS  C:\Users\HENRYA~1\AppData\Local\Temp\cc8DOJUR.s 			page 9


 396:Generated_Source\PSoC5/PUERTO_CAN_1_INT.c ****     *
 397:Generated_Source\PSoC5/PUERTO_CAN_1_INT.c ****     * Parameters:
 398:Generated_Source\PSoC5/PUERTO_CAN_1_INT.c ****     *  None.
 399:Generated_Source\PSoC5/PUERTO_CAN_1_INT.c ****     *
 400:Generated_Source\PSoC5/PUERTO_CAN_1_INT.c ****     * Return:
 401:Generated_Source\PSoC5/PUERTO_CAN_1_INT.c ****     *  None.
 402:Generated_Source\PSoC5/PUERTO_CAN_1_INT.c ****     *
 403:Generated_Source\PSoC5/PUERTO_CAN_1_INT.c ****     *******************************************************************************/
 404:Generated_Source\PSoC5/PUERTO_CAN_1_INT.c ****     void PUERTO_CAN_1_MsgRXIsr(void) 
 405:Generated_Source\PSoC5/PUERTO_CAN_1_INT.c ****     {
  62              		.loc 1 405 0
  63              		.cfi_startproc
  64              		@ args = 0, pretend = 0, frame = 0
  65              		@ frame_needed = 0, uses_anonymous_args = 0
  66 0000 38B5     		push	{r3, r4, r5, lr}
  67              		.cfi_def_cfa_offset 16
  68              		.cfi_offset 3, -16
  69              		.cfi_offset 4, -12
  70              		.cfi_offset 5, -8
  71              		.cfi_offset 14, -4
  72              	.LVL2:
 406:Generated_Source\PSoC5/PUERTO_CAN_1_INT.c ****         uint8 mailboxNumber;
 407:Generated_Source\PSoC5/PUERTO_CAN_1_INT.c ****         uint16 shift = 0x01u;
 408:Generated_Source\PSoC5/PUERTO_CAN_1_INT.c **** 
 409:Generated_Source\PSoC5/PUERTO_CAN_1_INT.c ****         /* Clear Receive Message flag */
 410:Generated_Source\PSoC5/PUERTO_CAN_1_INT.c ****         PUERTO_CAN_1_INT_SR_REG.byte[1u] = PUERTO_CAN_1_RX_MESSAGE_MASK;
  73              		.loc 1 410 0
  74 0002 1022     		movs	r2, #16
  75 0004 0F4B     		ldr	r3, .L12
  76 0006 5A70     		strb	r2, [r3, #1]
  77              	.LVL3:
 407:Generated_Source\PSoC5/PUERTO_CAN_1_INT.c **** 
  78              		.loc 1 407 0
  79 0008 0125     		movs	r5, #1
 411:Generated_Source\PSoC5/PUERTO_CAN_1_INT.c **** 
 412:Generated_Source\PSoC5/PUERTO_CAN_1_INT.c ****         /* `#START MESSAGE_RECEIVE_ISR` */
 413:Generated_Source\PSoC5/PUERTO_CAN_1_INT.c **** 
 414:Generated_Source\PSoC5/PUERTO_CAN_1_INT.c ****         /* `#END` */
 415:Generated_Source\PSoC5/PUERTO_CAN_1_INT.c **** 
 416:Generated_Source\PSoC5/PUERTO_CAN_1_INT.c ****         #ifdef PUERTO_CAN_1_MSG_RX_ISR_CALLBACK
 417:Generated_Source\PSoC5/PUERTO_CAN_1_INT.c ****             PUERTO_CAN_1_MsgRXIsr_Callback();
 418:Generated_Source\PSoC5/PUERTO_CAN_1_INT.c ****         #endif /* PUERTO_CAN_1_MSG_RX_ISR_CALLBACK */
 419:Generated_Source\PSoC5/PUERTO_CAN_1_INT.c **** 
 420:Generated_Source\PSoC5/PUERTO_CAN_1_INT.c ****         for (mailboxNumber = 0u; mailboxNumber < PUERTO_CAN_1_NUMBER_OF_RX_MAILBOXES; mailboxNumber
  80              		.loc 1 420 0
  81 000a 0024     		movs	r4, #0
  82 000c 17E0     		b	.L6
  83              	.LVL4:
  84              	.L10:
 421:Generated_Source\PSoC5/PUERTO_CAN_1_INT.c ****         {
 422:Generated_Source\PSoC5/PUERTO_CAN_1_INT.c ****             if ((CY_GET_REG16((reg16 *) &PUERTO_CAN_1_BUF_SR_REG.byte[0u]) & shift) != 0u)
  85              		.loc 1 422 0
  86 000e 0E4B     		ldr	r3, .L12+4
  87 0010 1B88     		ldrh	r3, [r3]
  88 0012 1D42     		tst	r5, r3
  89 0014 0FD0     		beq	.L7
 423:Generated_Source\PSoC5/PUERTO_CAN_1_INT.c ****             {
ARM GAS  C:\Users\HENRYA~1\AppData\Local\Temp\cc8DOJUR.s 			page 10


 424:Generated_Source\PSoC5/PUERTO_CAN_1_INT.c ****                 if ((PUERTO_CAN_1_RX[mailboxNumber].rxcmd.byte[0u] & PUERTO_CAN_1_RX_INT_ENABLE_MAS
  90              		.loc 1 424 0
  91 0016 6301     		lsls	r3, r4, #5
  92 0018 0C4A     		ldr	r2, .L12+8
  93 001a 9B5C     		ldrb	r3, [r3, r2]	@ zero_extendqisi2
  94 001c 13F0200F 		tst	r3, #32
  95 0020 09D0     		beq	.L7
 425:Generated_Source\PSoC5/PUERTO_CAN_1_INT.c ****                 {
 426:Generated_Source\PSoC5/PUERTO_CAN_1_INT.c ****                     if ((PUERTO_CAN_1_RX_MAILBOX_TYPE & shift) != 0u)
  96              		.loc 1 426 0
  97 0022 15F0010F 		tst	r5, #1
  98 0026 03D0     		beq	.L8
 427:Generated_Source\PSoC5/PUERTO_CAN_1_INT.c ****                     {
 428:Generated_Source\PSoC5/PUERTO_CAN_1_INT.c ****                         /* RX Full mailboxes handler */
 429:Generated_Source\PSoC5/PUERTO_CAN_1_INT.c ****                         switch(mailboxNumber)
  99              		.loc 1 429 0
 100 0028 2CB9     		cbnz	r4, .L7
 430:Generated_Source\PSoC5/PUERTO_CAN_1_INT.c ****                         {
 431:Generated_Source\PSoC5/PUERTO_CAN_1_INT.c ****                             case 0u : PUERTO_CAN_1_ReceiveMsg0();
 101              		.loc 1 431 0
 102 002a FFF7FEFF 		bl	PUERTO_CAN_1_ReceiveMsg0
 103              	.LVL5:
 432:Generated_Source\PSoC5/PUERTO_CAN_1_INT.c ****                             break;
 104              		.loc 1 432 0
 105 002e 02E0     		b	.L7
 106              	.L8:
 433:Generated_Source\PSoC5/PUERTO_CAN_1_INT.c ****                             default:
 434:Generated_Source\PSoC5/PUERTO_CAN_1_INT.c ****                             break;
 435:Generated_Source\PSoC5/PUERTO_CAN_1_INT.c ****                         }
 436:Generated_Source\PSoC5/PUERTO_CAN_1_INT.c ****                     }
 437:Generated_Source\PSoC5/PUERTO_CAN_1_INT.c ****                     else
 438:Generated_Source\PSoC5/PUERTO_CAN_1_INT.c ****                     {
 439:Generated_Source\PSoC5/PUERTO_CAN_1_INT.c ****                         /* RX Basic mailbox handler */
 440:Generated_Source\PSoC5/PUERTO_CAN_1_INT.c ****                         PUERTO_CAN_1_ReceiveMsg(mailboxNumber);
 107              		.loc 1 440 0
 108 0030 2046     		mov	r0, r4
 109 0032 FFF7FEFF 		bl	PUERTO_CAN_1_ReceiveMsg
 110              	.LVL6:
 111              	.L7:
 441:Generated_Source\PSoC5/PUERTO_CAN_1_INT.c ****                     }
 442:Generated_Source\PSoC5/PUERTO_CAN_1_INT.c ****                 }
 443:Generated_Source\PSoC5/PUERTO_CAN_1_INT.c ****             }
 444:Generated_Source\PSoC5/PUERTO_CAN_1_INT.c ****             shift <<= 1u;
 112              		.loc 1 444 0 discriminator 2
 113 0036 6D00     		lsls	r5, r5, #1
 114              	.LVL7:
 115 0038 ADB2     		uxth	r5, r5
 116              	.LVL8:
 420:Generated_Source\PSoC5/PUERTO_CAN_1_INT.c ****         {
 117              		.loc 1 420 0 discriminator 2
 118 003a 0134     		adds	r4, r4, #1
 119              	.LVL9:
 120 003c E4B2     		uxtb	r4, r4
 121              	.LVL10:
 122              	.L6:
 420:Generated_Source\PSoC5/PUERTO_CAN_1_INT.c ****         {
 123              		.loc 1 420 0 is_stmt 0 discriminator 1
ARM GAS  C:\Users\HENRYA~1\AppData\Local\Temp\cc8DOJUR.s 			page 11


 124 003e 0F2C     		cmp	r4, #15
 125 0040 E5D9     		bls	.L10
 445:Generated_Source\PSoC5/PUERTO_CAN_1_INT.c ****         }
 446:Generated_Source\PSoC5/PUERTO_CAN_1_INT.c ****     }
 126              		.loc 1 446 0 is_stmt 1
 127 0042 38BD     		pop	{r3, r4, r5, pc}
 128              	.LVL11:
 129              	.L13:
 130              		.align	2
 131              	.L12:
 132 0044 00A00040 		.word	1073782784
 133 0048 08A00040 		.word	1073782792
 134 004c A0A00040 		.word	1073782944
 135              		.cfi_endproc
 136              	.LFE1:
 137              		.size	PUERTO_CAN_1_MsgRXIsr, .-PUERTO_CAN_1_MsgRXIsr
 138              		.section	.text.PUERTO_CAN_1_ISR,"ax",%progbits
 139              		.align	2
 140              		.global	PUERTO_CAN_1_ISR
 141              		.thumb
 142              		.thumb_func
 143              		.type	PUERTO_CAN_1_ISR, %function
 144              	PUERTO_CAN_1_ISR:
 145              	.LFB2:
 447:Generated_Source\PSoC5/PUERTO_CAN_1_INT.c **** #endif /* PUERTO_CAN_1_RX_MESSAGE */
 448:Generated_Source\PSoC5/PUERTO_CAN_1_INT.c **** 
 449:Generated_Source\PSoC5/PUERTO_CAN_1_INT.c **** 
 450:Generated_Source\PSoC5/PUERTO_CAN_1_INT.c **** /*******************************************************************************
 451:Generated_Source\PSoC5/PUERTO_CAN_1_INT.c **** * Function Name: PUERTO_CAN_1_ISR
 452:Generated_Source\PSoC5/PUERTO_CAN_1_INT.c **** ********************************************************************************
 453:Generated_Source\PSoC5/PUERTO_CAN_1_INT.c **** *
 454:Generated_Source\PSoC5/PUERTO_CAN_1_INT.c **** * Summary:
 455:Generated_Source\PSoC5/PUERTO_CAN_1_INT.c **** *  This ISR is executed when CAN Core generates and interrupt on one of events:
 456:Generated_Source\PSoC5/PUERTO_CAN_1_INT.c **** *  Arb_lost, Overload, Bit_err, Stuff_err, Ack_err, Form_err, Crc_err,
 457:Generated_Source\PSoC5/PUERTO_CAN_1_INT.c **** *  Buss_off, Rx_msg_lost, Tx_msg or Rx_msg. The interrupt sources depends
 458:Generated_Source\PSoC5/PUERTO_CAN_1_INT.c **** *  on the Customizer inputs.
 459:Generated_Source\PSoC5/PUERTO_CAN_1_INT.c **** *
 460:Generated_Source\PSoC5/PUERTO_CAN_1_INT.c **** * Parameters:
 461:Generated_Source\PSoC5/PUERTO_CAN_1_INT.c **** *  None.
 462:Generated_Source\PSoC5/PUERTO_CAN_1_INT.c **** *
 463:Generated_Source\PSoC5/PUERTO_CAN_1_INT.c **** * Return:
 464:Generated_Source\PSoC5/PUERTO_CAN_1_INT.c **** *  None.
 465:Generated_Source\PSoC5/PUERTO_CAN_1_INT.c **** *
 466:Generated_Source\PSoC5/PUERTO_CAN_1_INT.c **** *******************************************************************************/
 467:Generated_Source\PSoC5/PUERTO_CAN_1_INT.c **** CY_ISR(PUERTO_CAN_1_ISR)
 468:Generated_Source\PSoC5/PUERTO_CAN_1_INT.c **** {
 146              		.loc 1 468 0
 147              		.cfi_startproc
 148              		@ args = 0, pretend = 0, frame = 0
 149              		@ frame_needed = 0, uses_anonymous_args = 0
 150 0000 08B5     		push	{r3, lr}
 151              		.cfi_def_cfa_offset 8
 152              		.cfi_offset 3, -8
 153              		.cfi_offset 14, -4
 469:Generated_Source\PSoC5/PUERTO_CAN_1_INT.c ****     #ifdef PUERTO_CAN_1_ISR_INTERRUPT_CALLBACK
 470:Generated_Source\PSoC5/PUERTO_CAN_1_INT.c ****         PUERTO_CAN_1_ISR_InterruptCallback();
 471:Generated_Source\PSoC5/PUERTO_CAN_1_INT.c ****     #endif /* PUERTO_CAN_1_ISR_INTERRUPT_CALLBACK */
ARM GAS  C:\Users\HENRYA~1\AppData\Local\Temp\cc8DOJUR.s 			page 12


 472:Generated_Source\PSoC5/PUERTO_CAN_1_INT.c ****     
 473:Generated_Source\PSoC5/PUERTO_CAN_1_INT.c ****     /* Place your Interrupt code here. */
 474:Generated_Source\PSoC5/PUERTO_CAN_1_INT.c ****     /* `#START CAN_ISR` */
 475:Generated_Source\PSoC5/PUERTO_CAN_1_INT.c **** 
 476:Generated_Source\PSoC5/PUERTO_CAN_1_INT.c ****     /* `#END` */
 477:Generated_Source\PSoC5/PUERTO_CAN_1_INT.c ****     
 478:Generated_Source\PSoC5/PUERTO_CAN_1_INT.c ****     /* Arbitration */
 479:Generated_Source\PSoC5/PUERTO_CAN_1_INT.c ****     #if (PUERTO_CAN_1_ARB_LOST && (PUERTO_CAN_1_ARB_LOST_USE_HELPER || \
 480:Generated_Source\PSoC5/PUERTO_CAN_1_INT.c ****         (!PUERTO_CAN_1_ADVANCED_INTERRUPT_CFG)))
 481:Generated_Source\PSoC5/PUERTO_CAN_1_INT.c ****         if ((PUERTO_CAN_1_INT_SR_REG.byte[0u] & PUERTO_CAN_1_ARBITRATION_LOST_MASK) != 0u)
 482:Generated_Source\PSoC5/PUERTO_CAN_1_INT.c ****         {
 483:Generated_Source\PSoC5/PUERTO_CAN_1_INT.c ****             PUERTO_CAN_1_ArbLostIsr();
 484:Generated_Source\PSoC5/PUERTO_CAN_1_INT.c ****         }
 485:Generated_Source\PSoC5/PUERTO_CAN_1_INT.c ****     #endif /* PUERTO_CAN_1_ARB_LOST && PUERTO_CAN_1_ARB_LOST_USE_HELPER */
 486:Generated_Source\PSoC5/PUERTO_CAN_1_INT.c **** 
 487:Generated_Source\PSoC5/PUERTO_CAN_1_INT.c ****     /* Overload Error */
 488:Generated_Source\PSoC5/PUERTO_CAN_1_INT.c ****     #if (PUERTO_CAN_1_OVERLOAD && (PUERTO_CAN_1_OVERLOAD_USE_HELPER || \
 489:Generated_Source\PSoC5/PUERTO_CAN_1_INT.c ****         (!PUERTO_CAN_1_ADVANCED_INTERRUPT_CFG)))
 490:Generated_Source\PSoC5/PUERTO_CAN_1_INT.c ****         if ((PUERTO_CAN_1_INT_SR_REG.byte[0u] & PUERTO_CAN_1_OVERLOAD_ERROR_MASK) != 0u)
 491:Generated_Source\PSoC5/PUERTO_CAN_1_INT.c ****         {
 492:Generated_Source\PSoC5/PUERTO_CAN_1_INT.c ****             PUERTO_CAN_1_OvrLdErrorIsr();
 493:Generated_Source\PSoC5/PUERTO_CAN_1_INT.c ****         }
 494:Generated_Source\PSoC5/PUERTO_CAN_1_INT.c ****     #endif /* PUERTO_CAN_1_OVERLOAD && PUERTO_CAN_1_OVERLOAD_USE_HELPER */
 495:Generated_Source\PSoC5/PUERTO_CAN_1_INT.c **** 
 496:Generated_Source\PSoC5/PUERTO_CAN_1_INT.c ****     /* Bit Error */
 497:Generated_Source\PSoC5/PUERTO_CAN_1_INT.c ****     #if (PUERTO_CAN_1_BIT_ERR && (PUERTO_CAN_1_BIT_ERR_USE_HELPER || \
 498:Generated_Source\PSoC5/PUERTO_CAN_1_INT.c ****         (!PUERTO_CAN_1_ADVANCED_INTERRUPT_CFG)))
 499:Generated_Source\PSoC5/PUERTO_CAN_1_INT.c ****         if ((PUERTO_CAN_1_INT_SR_REG.byte[0u] & PUERTO_CAN_1_BIT_ERROR_MASK) != 0u)
 500:Generated_Source\PSoC5/PUERTO_CAN_1_INT.c ****         {
 501:Generated_Source\PSoC5/PUERTO_CAN_1_INT.c ****             PUERTO_CAN_1_BitErrorIsr();
 502:Generated_Source\PSoC5/PUERTO_CAN_1_INT.c ****         }
 503:Generated_Source\PSoC5/PUERTO_CAN_1_INT.c ****     #endif /* PUERTO_CAN_1_BIT_ERR && PUERTO_CAN_1_BIT_ERR_USE_HELPER */
 504:Generated_Source\PSoC5/PUERTO_CAN_1_INT.c **** 
 505:Generated_Source\PSoC5/PUERTO_CAN_1_INT.c ****     /* Bit Staff Error */
 506:Generated_Source\PSoC5/PUERTO_CAN_1_INT.c ****     #if (PUERTO_CAN_1_STUFF_ERR && (PUERTO_CAN_1_STUFF_ERR_USE_HELPER || \
 507:Generated_Source\PSoC5/PUERTO_CAN_1_INT.c ****         (!PUERTO_CAN_1_ADVANCED_INTERRUPT_CFG)))
 508:Generated_Source\PSoC5/PUERTO_CAN_1_INT.c ****         if ((PUERTO_CAN_1_INT_SR_REG.byte[0u] & PUERTO_CAN_1_STUFF_ERROR_MASK) != 0u)
 509:Generated_Source\PSoC5/PUERTO_CAN_1_INT.c ****         {
 510:Generated_Source\PSoC5/PUERTO_CAN_1_INT.c ****             PUERTO_CAN_1_BitStuffErrorIsr();
 511:Generated_Source\PSoC5/PUERTO_CAN_1_INT.c ****         }
 512:Generated_Source\PSoC5/PUERTO_CAN_1_INT.c ****     #endif /* PUERTO_CAN_1_STUFF_ERR && PUERTO_CAN_1_STUFF_ERR_USE_HELPER */
 513:Generated_Source\PSoC5/PUERTO_CAN_1_INT.c **** 
 514:Generated_Source\PSoC5/PUERTO_CAN_1_INT.c ****     /* ACK Error */
 515:Generated_Source\PSoC5/PUERTO_CAN_1_INT.c ****     #if (PUERTO_CAN_1_ACK_ERR && (PUERTO_CAN_1_ACK_ERR_USE_HELPER || \
 516:Generated_Source\PSoC5/PUERTO_CAN_1_INT.c ****         (!PUERTO_CAN_1_ADVANCED_INTERRUPT_CFG)))
 517:Generated_Source\PSoC5/PUERTO_CAN_1_INT.c ****         if ((PUERTO_CAN_1_INT_SR_REG.byte[0u] & PUERTO_CAN_1_ACK_ERROR_MASK) != 0u)
 518:Generated_Source\PSoC5/PUERTO_CAN_1_INT.c ****         {
 519:Generated_Source\PSoC5/PUERTO_CAN_1_INT.c ****             PUERTO_CAN_1_AckErrorIsr();
 520:Generated_Source\PSoC5/PUERTO_CAN_1_INT.c ****         }
 521:Generated_Source\PSoC5/PUERTO_CAN_1_INT.c ****     #endif /* PUERTO_CAN_1_ACK_ERR && PUERTO_CAN_1_ACK_ERR_USE_HELPER */
 522:Generated_Source\PSoC5/PUERTO_CAN_1_INT.c **** 
 523:Generated_Source\PSoC5/PUERTO_CAN_1_INT.c ****     /* Form(msg) Error */
 524:Generated_Source\PSoC5/PUERTO_CAN_1_INT.c ****     #if (PUERTO_CAN_1_FORM_ERR && (PUERTO_CAN_1_FORM_ERR_USE_HELPER || \
 525:Generated_Source\PSoC5/PUERTO_CAN_1_INT.c ****         (!PUERTO_CAN_1_ADVANCED_INTERRUPT_CFG)))
 526:Generated_Source\PSoC5/PUERTO_CAN_1_INT.c ****         if ((PUERTO_CAN_1_INT_SR_REG.byte[0u] & PUERTO_CAN_1_FORM_ERROR_MASK) != 0u)
 527:Generated_Source\PSoC5/PUERTO_CAN_1_INT.c ****         {
 528:Generated_Source\PSoC5/PUERTO_CAN_1_INT.c ****             PUERTO_CAN_1_MsgErrorIsr();
ARM GAS  C:\Users\HENRYA~1\AppData\Local\Temp\cc8DOJUR.s 			page 13


 529:Generated_Source\PSoC5/PUERTO_CAN_1_INT.c ****         }
 530:Generated_Source\PSoC5/PUERTO_CAN_1_INT.c ****     #endif /* PUERTO_CAN_1_FORM_ERR && PUERTO_CAN_1_FORM_ERR_USE_HELPER */
 531:Generated_Source\PSoC5/PUERTO_CAN_1_INT.c **** 
 532:Generated_Source\PSoC5/PUERTO_CAN_1_INT.c ****     /* CRC Error */
 533:Generated_Source\PSoC5/PUERTO_CAN_1_INT.c ****     #if (PUERTO_CAN_1_CRC_ERR && (PUERTO_CAN_1_CRC_ERR_USE_HELPER || \
 534:Generated_Source\PSoC5/PUERTO_CAN_1_INT.c ****         (!PUERTO_CAN_1_ADVANCED_INTERRUPT_CFG)))
 535:Generated_Source\PSoC5/PUERTO_CAN_1_INT.c ****         if ((PUERTO_CAN_1_INT_SR_REG.byte[1u] & PUERTO_CAN_1_CRC_ERROR_MASK) != 0u)
 536:Generated_Source\PSoC5/PUERTO_CAN_1_INT.c ****         {
 537:Generated_Source\PSoC5/PUERTO_CAN_1_INT.c ****             PUERTO_CAN_1_CrcErrorIsr();
 538:Generated_Source\PSoC5/PUERTO_CAN_1_INT.c ****         }
 539:Generated_Source\PSoC5/PUERTO_CAN_1_INT.c ****     #endif /* PUERTO_CAN_1_CRC_ERR && PUERTO_CAN_1_CRC_ERR_USE_HELPER */
 540:Generated_Source\PSoC5/PUERTO_CAN_1_INT.c **** 
 541:Generated_Source\PSoC5/PUERTO_CAN_1_INT.c ****     /* Bus Off state */
 542:Generated_Source\PSoC5/PUERTO_CAN_1_INT.c ****     #if (PUERTO_CAN_1_BUS_OFF && (PUERTO_CAN_1_BUS_OFF_USE_HELPER || \
 543:Generated_Source\PSoC5/PUERTO_CAN_1_INT.c ****         (!PUERTO_CAN_1_ADVANCED_INTERRUPT_CFG)))
 544:Generated_Source\PSoC5/PUERTO_CAN_1_INT.c ****         if ((PUERTO_CAN_1_INT_SR_REG.byte[1u] & PUERTO_CAN_1_BUS_OFF_MASK) != 0u)
 154              		.loc 1 544 0
 155 0002 074B     		ldr	r3, .L18
 156 0004 5B78     		ldrb	r3, [r3, #1]	@ zero_extendqisi2
 157 0006 13F0020F 		tst	r3, #2
 158 000a 01D0     		beq	.L15
 545:Generated_Source\PSoC5/PUERTO_CAN_1_INT.c ****         {
 546:Generated_Source\PSoC5/PUERTO_CAN_1_INT.c ****             PUERTO_CAN_1_BusOffIsr();
 159              		.loc 1 546 0
 160 000c FFF7FEFF 		bl	PUERTO_CAN_1_BusOffIsr
 161              	.LVL12:
 162              	.L15:
 547:Generated_Source\PSoC5/PUERTO_CAN_1_INT.c ****         }
 548:Generated_Source\PSoC5/PUERTO_CAN_1_INT.c ****     #endif /* PUERTO_CAN_1_BUS_OFF && PUERTO_CAN_1_BUS_OFF_USE_HELPER */
 549:Generated_Source\PSoC5/PUERTO_CAN_1_INT.c **** 
 550:Generated_Source\PSoC5/PUERTO_CAN_1_INT.c ****     /* Message Lost */
 551:Generated_Source\PSoC5/PUERTO_CAN_1_INT.c ****     #if (PUERTO_CAN_1_RX_MSG_LOST && (PUERTO_CAN_1_RX_MSG_LOST_USE_HELPER || \
 552:Generated_Source\PSoC5/PUERTO_CAN_1_INT.c ****         (!PUERTO_CAN_1_ADVANCED_INTERRUPT_CFG)))
 553:Generated_Source\PSoC5/PUERTO_CAN_1_INT.c ****         if ((PUERTO_CAN_1_INT_SR_REG.byte[1u] & PUERTO_CAN_1_RX_MSG_LOST_MASK) != 0u)
 554:Generated_Source\PSoC5/PUERTO_CAN_1_INT.c ****         {
 555:Generated_Source\PSoC5/PUERTO_CAN_1_INT.c ****             PUERTO_CAN_1_MsgLostIsr();
 556:Generated_Source\PSoC5/PUERTO_CAN_1_INT.c ****         }
 557:Generated_Source\PSoC5/PUERTO_CAN_1_INT.c ****     #endif /* PUERTO_CAN_1_RX_MSG_LOST && PUERTO_CAN_1_RX_MSG_LOST_USE_HELPER */
 558:Generated_Source\PSoC5/PUERTO_CAN_1_INT.c **** 
 559:Generated_Source\PSoC5/PUERTO_CAN_1_INT.c ****     /* TX Message Send */
 560:Generated_Source\PSoC5/PUERTO_CAN_1_INT.c ****     #if (PUERTO_CAN_1_TX_MESSAGE && (PUERTO_CAN_1_TX_MESSAGE_USE_HELPER || \
 561:Generated_Source\PSoC5/PUERTO_CAN_1_INT.c ****         (!PUERTO_CAN_1_ADVANCED_INTERRUPT_CFG)))
 562:Generated_Source\PSoC5/PUERTO_CAN_1_INT.c ****         if ((PUERTO_CAN_1_INT_SR_REG.byte[1u] & PUERTO_CAN_1_TX_MESSAGE_MASK) != 0u)
 563:Generated_Source\PSoC5/PUERTO_CAN_1_INT.c ****         {
 564:Generated_Source\PSoC5/PUERTO_CAN_1_INT.c ****             PUERTO_CAN_1_MsgTXIsr();
 565:Generated_Source\PSoC5/PUERTO_CAN_1_INT.c ****         }
 566:Generated_Source\PSoC5/PUERTO_CAN_1_INT.c ****     #endif /* PUERTO_CAN_1_TX_MESSAGE && PUERTO_CAN_1_TX_MESSAGE_USE_HELPER */
 567:Generated_Source\PSoC5/PUERTO_CAN_1_INT.c **** 
 568:Generated_Source\PSoC5/PUERTO_CAN_1_INT.c ****     /* RX Message Available */
 569:Generated_Source\PSoC5/PUERTO_CAN_1_INT.c ****     #if (PUERTO_CAN_1_RX_MESSAGE && (PUERTO_CAN_1_RX_MESSAGE_USE_HELPER || \
 570:Generated_Source\PSoC5/PUERTO_CAN_1_INT.c ****         (!PUERTO_CAN_1_ADVANCED_INTERRUPT_CFG)))
 571:Generated_Source\PSoC5/PUERTO_CAN_1_INT.c ****         if ((PUERTO_CAN_1_INT_SR_REG.byte[1u] & PUERTO_CAN_1_RX_MESSAGE_MASK) != 0u)
 163              		.loc 1 571 0
 164 0010 034B     		ldr	r3, .L18
 165 0012 5B78     		ldrb	r3, [r3, #1]	@ zero_extendqisi2
 166 0014 13F0100F 		tst	r3, #16
 167 0018 01D0     		beq	.L14
ARM GAS  C:\Users\HENRYA~1\AppData\Local\Temp\cc8DOJUR.s 			page 14


 572:Generated_Source\PSoC5/PUERTO_CAN_1_INT.c ****         {
 573:Generated_Source\PSoC5/PUERTO_CAN_1_INT.c ****             PUERTO_CAN_1_MsgRXIsr();
 168              		.loc 1 573 0
 169 001a FFF7FEFF 		bl	PUERTO_CAN_1_MsgRXIsr
 170              	.LVL13:
 171              	.L14:
 172 001e 08BD     		pop	{r3, pc}
 173              	.L19:
 174              		.align	2
 175              	.L18:
 176 0020 00A00040 		.word	1073782784
 177              		.cfi_endproc
 178              	.LFE2:
 179              		.size	PUERTO_CAN_1_ISR, .-PUERTO_CAN_1_ISR
 180              		.text
 181              	.Letext0:
 182              		.file 2 "Generated_Source\\PSoC5\\cytypes.h"
 183              		.file 3 "Generated_Source\\PSoC5\\PUERTO_CAN_1.h"