ARM GAS  C:\Users\HENRYH~1\AppData\Local\Temp\ccMT0gCo.s 			page 1


   1              		.syntax unified
   2              		.cpu cortex-m3
   3              		.fpu softvfp
   4              		.eabi_attribute 20, 1
   5              		.eabi_attribute 21, 1
   6              		.eabi_attribute 23, 3
   7              		.eabi_attribute 24, 1
   8              		.eabi_attribute 25, 1
   9              		.eabi_attribute 26, 1
  10              		.eabi_attribute 30, 1
  11              		.eabi_attribute 34, 1
  12              		.eabi_attribute 18, 4
  13              		.thumb
  14              		.syntax unified
  15              		.file	"CAN.c"
  16              		.text
  17              	.Ltext0:
  18              		.cfi_sections	.debug_frame
  19              		.section	.text.CAN_Stop,"ax",%progbits
  20              		.align	2
  21              		.global	CAN_Stop
  22              		.thumb
  23              		.thumb_func
  24              		.type	CAN_Stop, %function
  25              	CAN_Stop:
  26              	.LFB4:
  27              		.file 1 "Generated_Source\\PSoC5\\CAN.c"
   1:Generated_Source\PSoC5/CAN.c **** /*******************************************************************************
   2:Generated_Source\PSoC5/CAN.c **** * File Name: CAN.c
   3:Generated_Source\PSoC5/CAN.c **** * Version 3.0
   4:Generated_Source\PSoC5/CAN.c **** *
   5:Generated_Source\PSoC5/CAN.c **** * Description:
   6:Generated_Source\PSoC5/CAN.c **** *  The CAN Component provides functionality of Control Area Network.
   7:Generated_Source\PSoC5/CAN.c **** *  The two types of mailbox configuration available are "Full" and "Basic".
   8:Generated_Source\PSoC5/CAN.c **** *
   9:Generated_Source\PSoC5/CAN.c **** * Note:
  10:Generated_Source\PSoC5/CAN.c **** *  The CAN configuration is put as constant to ROM and can be changed
  11:Generated_Source\PSoC5/CAN.c **** *  only directly by the registers written by the user.
  12:Generated_Source\PSoC5/CAN.c **** *
  13:Generated_Source\PSoC5/CAN.c **** ********************************************************************************
  14:Generated_Source\PSoC5/CAN.c **** * Copyright 2008-2015, Cypress Semiconductor Corporation.  All rights reserved.
  15:Generated_Source\PSoC5/CAN.c **** * You may use this file only in accordance with the license, terms, conditions,
  16:Generated_Source\PSoC5/CAN.c **** * disclaimers, and limitations in the end user license agreement accompanying
  17:Generated_Source\PSoC5/CAN.c **** * the software package with which this file was provided.
  18:Generated_Source\PSoC5/CAN.c **** *******************************************************************************/
  19:Generated_Source\PSoC5/CAN.c **** 
  20:Generated_Source\PSoC5/CAN.c **** #include "CAN.h"
  21:Generated_Source\PSoC5/CAN.c **** 
  22:Generated_Source\PSoC5/CAN.c **** uint8 CAN_initVar = 0u;
  23:Generated_Source\PSoC5/CAN.c **** 
  24:Generated_Source\PSoC5/CAN.c **** 
  25:Generated_Source\PSoC5/CAN.c **** /*******************************************************************************
  26:Generated_Source\PSoC5/CAN.c **** * FUNCTION NAME:   CAN_RxTxBuffersConfig
  27:Generated_Source\PSoC5/CAN.c **** ********************************************************************************
  28:Generated_Source\PSoC5/CAN.c **** *
  29:Generated_Source\PSoC5/CAN.c **** * Summary:
  30:Generated_Source\PSoC5/CAN.c **** *  Inits/Restores default CAN Rx and Tx Buffers control registers configuration
ARM GAS  C:\Users\HENRYH~1\AppData\Local\Temp\ccMT0gCo.s 			page 2


  31:Generated_Source\PSoC5/CAN.c **** *  provided by the customizer.
  32:Generated_Source\PSoC5/CAN.c **** *
  33:Generated_Source\PSoC5/CAN.c **** * Parameters:
  34:Generated_Source\PSoC5/CAN.c **** *  None.
  35:Generated_Source\PSoC5/CAN.c **** *
  36:Generated_Source\PSoC5/CAN.c **** * Return:
  37:Generated_Source\PSoC5/CAN.c **** *  The indication whether the configuration has been accepted or rejected.
  38:Generated_Source\PSoC5/CAN.c **** *   Define                             Description
  39:Generated_Source\PSoC5/CAN.c **** *    CYRET_SUCCESS                      The function passed successfully
  40:Generated_Source\PSoC5/CAN.c **** *    CAN_FAIL              The function failed
  41:Generated_Source\PSoC5/CAN.c **** *
  42:Generated_Source\PSoC5/CAN.c **** * Side Effects:
  43:Generated_Source\PSoC5/CAN.c **** *  All the Rx and Tx Buffers control registers will be reset to their initial
  44:Generated_Source\PSoC5/CAN.c **** *  values.
  45:Generated_Source\PSoC5/CAN.c **** *
  46:Generated_Source\PSoC5/CAN.c **** *******************************************************************************/
  47:Generated_Source\PSoC5/CAN.c **** uint8 CAN_RxTxBuffersConfig(void) 
  48:Generated_Source\PSoC5/CAN.c **** {
  49:Generated_Source\PSoC5/CAN.c ****     /* Initial values of CAN RX and TX registers */
  50:Generated_Source\PSoC5/CAN.c ****     static const CAN_RX_CFG CYCODE CAN_RXConfigStruct[] =
  51:Generated_Source\PSoC5/CAN.c ****     {
  52:Generated_Source\PSoC5/CAN.c ****         { 0u, 0x28u, 0x1FFFF9u, 0x400000u },
  53:Generated_Source\PSoC5/CAN.c ****         { 1u, 0x0u, 0x0u, 0x0u },
  54:Generated_Source\PSoC5/CAN.c ****         { 2u, 0x0u, 0x0u, 0x0u },
  55:Generated_Source\PSoC5/CAN.c ****         { 3u, 0x0u, 0x0u, 0x0u },
  56:Generated_Source\PSoC5/CAN.c ****         { 4u, 0x0u, 0x0u, 0x0u },
  57:Generated_Source\PSoC5/CAN.c ****         { 5u, 0x0u, 0x0u, 0x0u },
  58:Generated_Source\PSoC5/CAN.c ****         { 6u, 0x0u, 0x0u, 0x0u },
  59:Generated_Source\PSoC5/CAN.c ****         { 7u, 0x0u, 0x0u, 0x0u },
  60:Generated_Source\PSoC5/CAN.c ****         { 8u, 0x0u, 0x0u, 0x0u },
  61:Generated_Source\PSoC5/CAN.c ****         { 9u, 0x0u, 0x0u, 0x0u },
  62:Generated_Source\PSoC5/CAN.c ****         { 10u, 0x0u, 0x0u, 0x0u },
  63:Generated_Source\PSoC5/CAN.c ****         { 11u, 0x0u, 0x0u, 0x0u },
  64:Generated_Source\PSoC5/CAN.c ****         { 12u, 0x0u, 0x0u, 0x0u },
  65:Generated_Source\PSoC5/CAN.c ****         { 13u, 0x0u, 0x0u, 0x0u },
  66:Generated_Source\PSoC5/CAN.c ****         { 14u, 0x0u, 0x0u, 0x0u },
  67:Generated_Source\PSoC5/CAN.c ****         { 15u, 0x0u, 0x0u, 0x0u }
  68:Generated_Source\PSoC5/CAN.c ****     };
  69:Generated_Source\PSoC5/CAN.c **** 
  70:Generated_Source\PSoC5/CAN.c ****     static const CAN_TX_CFG CYCODE CAN_TXConfigStruct[] =
  71:Generated_Source\PSoC5/CAN.c ****     {
  72:Generated_Source\PSoC5/CAN.c ****         { 0u, 0x80000u, 0x200000u },
  73:Generated_Source\PSoC5/CAN.c ****         { 1u, 0x880008u, 0x0u },
  74:Generated_Source\PSoC5/CAN.c ****         { 2u, 0x880008u, 0x0u },
  75:Generated_Source\PSoC5/CAN.c ****         { 3u, 0x880008u, 0x0u },
  76:Generated_Source\PSoC5/CAN.c ****         { 4u, 0x880008u, 0x0u },
  77:Generated_Source\PSoC5/CAN.c ****         { 5u, 0x880008u, 0x0u },
  78:Generated_Source\PSoC5/CAN.c ****         { 6u, 0x880008u, 0x0u },
  79:Generated_Source\PSoC5/CAN.c ****         { 7u, 0x880008u, 0x0u }
  80:Generated_Source\PSoC5/CAN.c ****     };
  81:Generated_Source\PSoC5/CAN.c **** 
  82:Generated_Source\PSoC5/CAN.c ****     uint8 result = CYRET_SUCCESS;
  83:Generated_Source\PSoC5/CAN.c ****     uint8 i;
  84:Generated_Source\PSoC5/CAN.c **** 
  85:Generated_Source\PSoC5/CAN.c ****     /* Initialize TX mailboxes */
  86:Generated_Source\PSoC5/CAN.c ****     for (i = 0u; i < CAN_NUMBER_OF_TX_MAILBOXES; i++)
  87:Generated_Source\PSoC5/CAN.c ****     {
ARM GAS  C:\Users\HENRYH~1\AppData\Local\Temp\ccMT0gCo.s 			page 3


  88:Generated_Source\PSoC5/CAN.c ****         if (CAN_TxBufConfig((const CAN_TX_CFG *)
  89:Generated_Source\PSoC5/CAN.c ****             (&CAN_TXConfigStruct[i])) != CYRET_SUCCESS)
  90:Generated_Source\PSoC5/CAN.c ****         {
  91:Generated_Source\PSoC5/CAN.c ****             result = CAN_FAIL;
  92:Generated_Source\PSoC5/CAN.c ****             break;
  93:Generated_Source\PSoC5/CAN.c ****         }
  94:Generated_Source\PSoC5/CAN.c ****     }
  95:Generated_Source\PSoC5/CAN.c **** 
  96:Generated_Source\PSoC5/CAN.c ****     if (result == CYRET_SUCCESS)
  97:Generated_Source\PSoC5/CAN.c ****     {
  98:Generated_Source\PSoC5/CAN.c ****         /* Initialize RX mailboxes */
  99:Generated_Source\PSoC5/CAN.c ****         for (i = 0u; i < CAN_NUMBER_OF_RX_MAILBOXES; i++)
 100:Generated_Source\PSoC5/CAN.c ****         {
 101:Generated_Source\PSoC5/CAN.c ****             if (CAN_RxBufConfig((const CAN_RX_CFG *)
 102:Generated_Source\PSoC5/CAN.c ****                 (&CAN_RXConfigStruct[i])) != CYRET_SUCCESS)
 103:Generated_Source\PSoC5/CAN.c ****             {
 104:Generated_Source\PSoC5/CAN.c ****                 result = CAN_FAIL;
 105:Generated_Source\PSoC5/CAN.c ****                 break;
 106:Generated_Source\PSoC5/CAN.c ****             }
 107:Generated_Source\PSoC5/CAN.c ****         }
 108:Generated_Source\PSoC5/CAN.c ****     }
 109:Generated_Source\PSoC5/CAN.c **** 
 110:Generated_Source\PSoC5/CAN.c ****     return (result);
 111:Generated_Source\PSoC5/CAN.c **** }
 112:Generated_Source\PSoC5/CAN.c **** 
 113:Generated_Source\PSoC5/CAN.c **** 
 114:Generated_Source\PSoC5/CAN.c **** /*******************************************************************************
 115:Generated_Source\PSoC5/CAN.c **** * FUNCTION NAME:   CAN_Init
 116:Generated_Source\PSoC5/CAN.c **** ********************************************************************************
 117:Generated_Source\PSoC5/CAN.c **** *
 118:Generated_Source\PSoC5/CAN.c **** * Summary:
 119:Generated_Source\PSoC5/CAN.c **** *  Inits/Restores default CAN configuration provided by the customizer.
 120:Generated_Source\PSoC5/CAN.c **** *
 121:Generated_Source\PSoC5/CAN.c **** * Parameters:
 122:Generated_Source\PSoC5/CAN.c **** *  None.
 123:Generated_Source\PSoC5/CAN.c **** *
 124:Generated_Source\PSoC5/CAN.c **** * Return:
 125:Generated_Source\PSoC5/CAN.c **** *  The indication whether the configuration has been accepted or rejected.
 126:Generated_Source\PSoC5/CAN.c **** *   Define                             Description
 127:Generated_Source\PSoC5/CAN.c **** *    CYRET_SUCCESS                      The function passed successfully
 128:Generated_Source\PSoC5/CAN.c **** *    CAN_FAIL              The function failed
 129:Generated_Source\PSoC5/CAN.c **** *
 130:Generated_Source\PSoC5/CAN.c **** * Side Effects:
 131:Generated_Source\PSoC5/CAN.c **** *  All the registers will be reset to their initial values. This will
 132:Generated_Source\PSoC5/CAN.c **** *  re-initialize the component with the following exceptions - it will not clear
 133:Generated_Source\PSoC5/CAN.c **** *  data from the mailboxes.
 134:Generated_Source\PSoC5/CAN.c **** *  Enable power to the CAN Core.
 135:Generated_Source\PSoC5/CAN.c **** *
 136:Generated_Source\PSoC5/CAN.c **** *******************************************************************************/
 137:Generated_Source\PSoC5/CAN.c **** uint8 CAN_Init(void) 
 138:Generated_Source\PSoC5/CAN.c **** {
 139:Generated_Source\PSoC5/CAN.c ****     uint32 timeout = CAN_MODE_STATE_STOP_TIMEOUT;
 140:Generated_Source\PSoC5/CAN.c ****     uint8 result = CAN_FAIL;
 141:Generated_Source\PSoC5/CAN.c ****     uint8 localResult = CAN_FAIL;
 142:Generated_Source\PSoC5/CAN.c **** 
 143:Generated_Source\PSoC5/CAN.c ****     #if (CY_PSOC3 || CY_PSOC5)
 144:Generated_Source\PSoC5/CAN.c ****         uint8 enableInterrupts;
ARM GAS  C:\Users\HENRYH~1\AppData\Local\Temp\ccMT0gCo.s 			page 4


 145:Generated_Source\PSoC5/CAN.c **** 
 146:Generated_Source\PSoC5/CAN.c ****         enableInterrupts = CyEnterCriticalSection();
 147:Generated_Source\PSoC5/CAN.c ****         /* Enable CAN block in Active mode */
 148:Generated_Source\PSoC5/CAN.c ****         CAN_PM_ACT_CFG_REG |= CAN_ACT_PWR_EN;
 149:Generated_Source\PSoC5/CAN.c ****         /* Enable CAN block in Alternate Active (Standby) mode */
 150:Generated_Source\PSoC5/CAN.c ****         CAN_PM_STBY_CFG_REG |= CAN_STBY_PWR_EN;
 151:Generated_Source\PSoC5/CAN.c ****         CyExitCriticalSection(enableInterrupts);
 152:Generated_Source\PSoC5/CAN.c **** 
 153:Generated_Source\PSoC5/CAN.c ****         /* Sets CAN controller to stop mode */
 154:Generated_Source\PSoC5/CAN.c ****         CAN_CMD_REG.byte[0u] &= (uint8) (~CAN_MODE_MASK);
 155:Generated_Source\PSoC5/CAN.c **** 
 156:Generated_Source\PSoC5/CAN.c ****         /* Timeout for CAN state machine to switch mode to Stop */
 157:Generated_Source\PSoC5/CAN.c ****         while ((timeout != 0u) && ((CAN_CMD_REG.byte[0u] & CAN_MODE_MASK) != 0u))
 158:Generated_Source\PSoC5/CAN.c ****         {
 159:Generated_Source\PSoC5/CAN.c ****             timeout--;
 160:Generated_Source\PSoC5/CAN.c ****         }
 161:Generated_Source\PSoC5/CAN.c ****     #else  /* CY_PSOC4 */
 162:Generated_Source\PSoC5/CAN.c ****         /* Enable CAN IP Block */
 163:Generated_Source\PSoC5/CAN.c ****         CAN_CNTL_REG = CAN_IP_ENABLE;
 164:Generated_Source\PSoC5/CAN.c **** 
 165:Generated_Source\PSoC5/CAN.c ****         /* Sets CAN controller to stop mode */
 166:Generated_Source\PSoC5/CAN.c ****         CAN_CMD_REG &= (uint32) (~((uint32) CAN_MODE_MASK));
 167:Generated_Source\PSoC5/CAN.c **** 
 168:Generated_Source\PSoC5/CAN.c ****         /* Timeout for CAN state machine to switch mode to Stop */
 169:Generated_Source\PSoC5/CAN.c ****         while ((timeout != 0u) && ((CAN_CMD_REG & CAN_MODE_MASK) != 0u))
 170:Generated_Source\PSoC5/CAN.c ****         {
 171:Generated_Source\PSoC5/CAN.c ****             timeout--;
 172:Generated_Source\PSoC5/CAN.c ****         }
 173:Generated_Source\PSoC5/CAN.c ****     #endif /* CY_PSOC3 || CY_PSOC5 */
 174:Generated_Source\PSoC5/CAN.c ****         if (timeout != 0u)
 175:Generated_Source\PSoC5/CAN.c ****         {
 176:Generated_Source\PSoC5/CAN.c ****             /* Disable Interrupt. */
 177:Generated_Source\PSoC5/CAN.c ****         CyIntDisable(CAN_ISR_NUMBER);
 178:Generated_Source\PSoC5/CAN.c **** 
 179:Generated_Source\PSoC5/CAN.c ****         /* Set the ISR to point to the CAN_ISR Interrupt. */
 180:Generated_Source\PSoC5/CAN.c ****         (void) CyIntSetVector(CAN_ISR_NUMBER, & CAN_ISR);
 181:Generated_Source\PSoC5/CAN.c **** 
 182:Generated_Source\PSoC5/CAN.c ****         /* Set the priority. */
 183:Generated_Source\PSoC5/CAN.c ****         CyIntSetPriority(CAN_ISR_NUMBER, CAN_ISR_PRIORITY);
 184:Generated_Source\PSoC5/CAN.c **** 
 185:Generated_Source\PSoC5/CAN.c ****             if (CAN_SetPreScaler(CAN_BITRATE) == CYRET_SUCCESS)
 186:Generated_Source\PSoC5/CAN.c ****             {
 187:Generated_Source\PSoC5/CAN.c ****                 if (CAN_SetArbiter(CAN_ARBITER) == CYRET_SUCCESS)
 188:Generated_Source\PSoC5/CAN.c ****                 {
 189:Generated_Source\PSoC5/CAN.c ****                     #if (!(CY_PSOC3 || CY_PSOC5))
 190:Generated_Source\PSoC5/CAN.c ****                         if (CAN_SetSwapDataEndianness(CAN_SWAP_DATA_END) == CYRET_SUCCESS)
 191:Generated_Source\PSoC5/CAN.c ****                     #endif /* (!(CY_PSOC3 || CY_PSOC5)) */
 192:Generated_Source\PSoC5/CAN.c ****                         {
 193:Generated_Source\PSoC5/CAN.c ****                             if (CAN_SetTsegSample(CAN_CFG_REG_TSEG1,
 194:Generated_Source\PSoC5/CAN.c ****                                 CAN_CFG_REG_TSEG2, CAN_CFG_REG_SJW,
 195:Generated_Source\PSoC5/CAN.c ****                                 CAN_SAMPLING_MODE) == CYRET_SUCCESS)
 196:Generated_Source\PSoC5/CAN.c ****                             {
 197:Generated_Source\PSoC5/CAN.c ****                                 if (CAN_SetRestartType(CAN_RESET_TYPE) == CYRET_SUCCESS)
 198:Generated_Source\PSoC5/CAN.c ****                                 {
 199:Generated_Source\PSoC5/CAN.c ****                                     if (CAN_SetEdgeMode(CAN_SYNC_EDGE) == CYRET_SUCCESS)
 200:Generated_Source\PSoC5/CAN.c ****                                     {
 201:Generated_Source\PSoC5/CAN.c ****                                         localResult = CYRET_SUCCESS;
ARM GAS  C:\Users\HENRYH~1\AppData\Local\Temp\ccMT0gCo.s 			page 5


 202:Generated_Source\PSoC5/CAN.c ****                                     }
 203:Generated_Source\PSoC5/CAN.c ****                                 }
 204:Generated_Source\PSoC5/CAN.c ****                             }
 205:Generated_Source\PSoC5/CAN.c ****                         }
 206:Generated_Source\PSoC5/CAN.c ****                 }
 207:Generated_Source\PSoC5/CAN.c ****             }
 208:Generated_Source\PSoC5/CAN.c **** 
 209:Generated_Source\PSoC5/CAN.c ****             if (localResult == CYRET_SUCCESS)
 210:Generated_Source\PSoC5/CAN.c ****             {
 211:Generated_Source\PSoC5/CAN.c ****                 if (CAN_RxTxBuffersConfig() == CYRET_SUCCESS)
 212:Generated_Source\PSoC5/CAN.c ****                 {
 213:Generated_Source\PSoC5/CAN.c ****                     /* Write IRQ Mask */
 214:Generated_Source\PSoC5/CAN.c ****                     if (CAN_SetIrqMask(CAN_INIT_INTERRUPT_MASK) ==
 215:Generated_Source\PSoC5/CAN.c ****                         CYRET_SUCCESS)
 216:Generated_Source\PSoC5/CAN.c ****                     {
 217:Generated_Source\PSoC5/CAN.c ****                         /* Set CAN Operation Mode to Active mode always */
 218:Generated_Source\PSoC5/CAN.c ****                         #if (CY_PSOC3 || CY_PSOC5)
 219:Generated_Source\PSoC5/CAN.c ****                             CAN_CMD_REG.byte[0u] = CAN_INITIAL_MODE;
 220:Generated_Source\PSoC5/CAN.c ****                             if ((CAN_CMD_REG.byte[0u] & CAN_MODE_MASK) == 0u)
 221:Generated_Source\PSoC5/CAN.c ****                         #else  /* CY_PSOC4 */
 222:Generated_Source\PSoC5/CAN.c ****                             CAN_CMD_REG &= (uint32) (~((uint32) CAN_OPMODE_FIELD_MASK));
 223:Generated_Source\PSoC5/CAN.c ****                             if ((CAN_CMD_REG & CAN_OPMODE_FIELD_MASK) == 0u)
 224:Generated_Source\PSoC5/CAN.c ****                         #endif /* CY_PSOC3 || CY_PSOC5 */
 225:Generated_Source\PSoC5/CAN.c ****                             {
 226:Generated_Source\PSoC5/CAN.c ****                                 result = CYRET_SUCCESS;
 227:Generated_Source\PSoC5/CAN.c ****                             }
 228:Generated_Source\PSoC5/CAN.c ****                     }
 229:Generated_Source\PSoC5/CAN.c ****                 }
 230:Generated_Source\PSoC5/CAN.c ****             }
 231:Generated_Source\PSoC5/CAN.c ****         }
 232:Generated_Source\PSoC5/CAN.c **** 
 233:Generated_Source\PSoC5/CAN.c ****     return (result);
 234:Generated_Source\PSoC5/CAN.c **** }
 235:Generated_Source\PSoC5/CAN.c **** 
 236:Generated_Source\PSoC5/CAN.c **** 
 237:Generated_Source\PSoC5/CAN.c **** /*******************************************************************************
 238:Generated_Source\PSoC5/CAN.c **** * Function Name: CAN_Enable
 239:Generated_Source\PSoC5/CAN.c **** ********************************************************************************
 240:Generated_Source\PSoC5/CAN.c **** *
 241:Generated_Source\PSoC5/CAN.c **** * Summary:
 242:Generated_Source\PSoC5/CAN.c **** *  This function enables the CAN Component and ISR of CAN Component.
 243:Generated_Source\PSoC5/CAN.c **** *
 244:Generated_Source\PSoC5/CAN.c **** * Parameters:
 245:Generated_Source\PSoC5/CAN.c **** *  None.
 246:Generated_Source\PSoC5/CAN.c **** *
 247:Generated_Source\PSoC5/CAN.c **** * Return:
 248:Generated_Source\PSoC5/CAN.c **** *  The indication whether the register is written and verified.
 249:Generated_Source\PSoC5/CAN.c **** *   Define                             Description
 250:Generated_Source\PSoC5/CAN.c **** *    CYRET_SUCCESS                      The function passed successfully
 251:Generated_Source\PSoC5/CAN.c **** *    CAN_FAIL              The function failed
 252:Generated_Source\PSoC5/CAN.c **** *
 253:Generated_Source\PSoC5/CAN.c **** *******************************************************************************/
 254:Generated_Source\PSoC5/CAN.c **** uint8 CAN_Enable(void) 
 255:Generated_Source\PSoC5/CAN.c **** {
 256:Generated_Source\PSoC5/CAN.c ****     uint32 timeout = CAN_MODE_STATE_RUN_TIMEOUT;
 257:Generated_Source\PSoC5/CAN.c ****     uint8 result = CAN_FAIL;
 258:Generated_Source\PSoC5/CAN.c **** 
ARM GAS  C:\Users\HENRYH~1\AppData\Local\Temp\ccMT0gCo.s 			page 6


 259:Generated_Source\PSoC5/CAN.c ****     #if (CY_PSOC3 || CY_PSOC5)
 260:Generated_Source\PSoC5/CAN.c ****         uint8 enableInterrupts;
 261:Generated_Source\PSoC5/CAN.c **** 
 262:Generated_Source\PSoC5/CAN.c ****         enableInterrupts = CyEnterCriticalSection();
 263:Generated_Source\PSoC5/CAN.c **** 
 264:Generated_Source\PSoC5/CAN.c ****         /* Enable CAN block in Active mode */
 265:Generated_Source\PSoC5/CAN.c ****         CAN_PM_ACT_CFG_REG |= CAN_ACT_PWR_EN;
 266:Generated_Source\PSoC5/CAN.c **** 
 267:Generated_Source\PSoC5/CAN.c ****         /* Enable CAN block in Alternate Active (Standby) mode */
 268:Generated_Source\PSoC5/CAN.c ****         CAN_PM_STBY_CFG_REG |= CAN_STBY_PWR_EN;
 269:Generated_Source\PSoC5/CAN.c **** 
 270:Generated_Source\PSoC5/CAN.c ****         CyExitCriticalSection(enableInterrupts);
 271:Generated_Source\PSoC5/CAN.c ****     #endif /* CY_PSOC3 || CY_PSOC5 */
 272:Generated_Source\PSoC5/CAN.c **** 
 273:Generated_Source\PSoC5/CAN.c ****     /* Clear interrupts status */
 274:Generated_Source\PSoC5/CAN.c ****     CY_SET_REG32(CAN_INT_SR_PTR, CAN_INIT_INTERRUPT_MASK);
 275:Generated_Source\PSoC5/CAN.c ****     (void) CAN_GlobalIntEnable();
 276:Generated_Source\PSoC5/CAN.c **** 
 277:Generated_Source\PSoC5/CAN.c ****     /* Enable isr */
 278:Generated_Source\PSoC5/CAN.c ****     CyIntEnable(CAN_ISR_NUMBER);
 279:Generated_Source\PSoC5/CAN.c **** 
 280:Generated_Source\PSoC5/CAN.c ****     /* Sets CAN controller to run mode */
 281:Generated_Source\PSoC5/CAN.c ****     CY_SET_REG32(CAN_CMD_PTR, CY_GET_REG32(CAN_CMD_PTR) | CAN_MODE_MASK);
 282:Generated_Source\PSoC5/CAN.c **** 
 283:Generated_Source\PSoC5/CAN.c ****     /* Timeout for CAN state machine to switch mode to Run */
 284:Generated_Source\PSoC5/CAN.c ****     while ((timeout != 0u) && ((CY_GET_REG32(CAN_CMD_PTR) & CAN_MODE_MASK) == 0u))
 285:Generated_Source\PSoC5/CAN.c ****     {
 286:Generated_Source\PSoC5/CAN.c ****         timeout--;
 287:Generated_Source\PSoC5/CAN.c ****     }
 288:Generated_Source\PSoC5/CAN.c **** 
 289:Generated_Source\PSoC5/CAN.c ****     if (timeout != 0u)
 290:Generated_Source\PSoC5/CAN.c ****     {
 291:Generated_Source\PSoC5/CAN.c ****         result = CYRET_SUCCESS;
 292:Generated_Source\PSoC5/CAN.c ****     }
 293:Generated_Source\PSoC5/CAN.c **** 
 294:Generated_Source\PSoC5/CAN.c ****     return (result);
 295:Generated_Source\PSoC5/CAN.c **** }
 296:Generated_Source\PSoC5/CAN.c **** 
 297:Generated_Source\PSoC5/CAN.c **** 
 298:Generated_Source\PSoC5/CAN.c **** /*******************************************************************************
 299:Generated_Source\PSoC5/CAN.c **** * FUNCTION NAME:   CAN_Start
 300:Generated_Source\PSoC5/CAN.c **** ********************************************************************************
 301:Generated_Source\PSoC5/CAN.c **** *
 302:Generated_Source\PSoC5/CAN.c **** * Summary:
 303:Generated_Source\PSoC5/CAN.c **** *  This function sets CAN Component into the Run mode. Starts Rate Counter if
 304:Generated_Source\PSoC5/CAN.c **** *  polling mailboxes are available.
 305:Generated_Source\PSoC5/CAN.c **** *
 306:Generated_Source\PSoC5/CAN.c **** * Parameters:
 307:Generated_Source\PSoC5/CAN.c **** *  None.
 308:Generated_Source\PSoC5/CAN.c **** *
 309:Generated_Source\PSoC5/CAN.c **** * Return:
 310:Generated_Source\PSoC5/CAN.c **** *  The indication whether the register is written and verified.
 311:Generated_Source\PSoC5/CAN.c **** *   Define                             Description
 312:Generated_Source\PSoC5/CAN.c **** *    CYRET_SUCCESS                      The function passed successfully
 313:Generated_Source\PSoC5/CAN.c **** *    CAN_FAIL              The function failed
 314:Generated_Source\PSoC5/CAN.c **** *
 315:Generated_Source\PSoC5/CAN.c **** * Global variables:
ARM GAS  C:\Users\HENRYH~1\AppData\Local\Temp\ccMT0gCo.s 			page 7


 316:Generated_Source\PSoC5/CAN.c **** *  CAN_initVar - used to check the initial configuration, modified
 317:Generated_Source\PSoC5/CAN.c **** *  on the first function call.
 318:Generated_Source\PSoC5/CAN.c **** *
 319:Generated_Source\PSoC5/CAN.c **** * Reentrant:
 320:Generated_Source\PSoC5/CAN.c **** *  No.
 321:Generated_Source\PSoC5/CAN.c **** *
 322:Generated_Source\PSoC5/CAN.c **** *******************************************************************************/
 323:Generated_Source\PSoC5/CAN.c **** uint8 CAN_Start(void) 
 324:Generated_Source\PSoC5/CAN.c **** {
 325:Generated_Source\PSoC5/CAN.c ****     uint8 result = CYRET_SUCCESS;
 326:Generated_Source\PSoC5/CAN.c **** 
 327:Generated_Source\PSoC5/CAN.c ****     if (CAN_initVar == 0u)
 328:Generated_Source\PSoC5/CAN.c ****     {
 329:Generated_Source\PSoC5/CAN.c ****         result = CAN_Init();
 330:Generated_Source\PSoC5/CAN.c ****     }
 331:Generated_Source\PSoC5/CAN.c **** 
 332:Generated_Source\PSoC5/CAN.c ****     if (result == CYRET_SUCCESS)
 333:Generated_Source\PSoC5/CAN.c ****     {
 334:Generated_Source\PSoC5/CAN.c ****         CAN_initVar = 1u;
 335:Generated_Source\PSoC5/CAN.c ****         result = CAN_Enable();
 336:Generated_Source\PSoC5/CAN.c ****     }
 337:Generated_Source\PSoC5/CAN.c **** 
 338:Generated_Source\PSoC5/CAN.c ****     return (result);
 339:Generated_Source\PSoC5/CAN.c **** }
 340:Generated_Source\PSoC5/CAN.c **** 
 341:Generated_Source\PSoC5/CAN.c **** 
 342:Generated_Source\PSoC5/CAN.c **** /*******************************************************************************
 343:Generated_Source\PSoC5/CAN.c **** * FUNCTION NAME:   CAN_Stop
 344:Generated_Source\PSoC5/CAN.c **** ********************************************************************************
 345:Generated_Source\PSoC5/CAN.c **** *
 346:Generated_Source\PSoC5/CAN.c **** * Summary:
 347:Generated_Source\PSoC5/CAN.c **** *  This function sets CAN Component into the Stop mode.
 348:Generated_Source\PSoC5/CAN.c **** *
 349:Generated_Source\PSoC5/CAN.c **** * Parameters:
 350:Generated_Source\PSoC5/CAN.c **** *  None.
 351:Generated_Source\PSoC5/CAN.c **** *
 352:Generated_Source\PSoC5/CAN.c **** * Return:
 353:Generated_Source\PSoC5/CAN.c **** *  The indication whether the register is written and verified.
 354:Generated_Source\PSoC5/CAN.c **** *   Define                             Description
 355:Generated_Source\PSoC5/CAN.c **** *    CYRET_SUCCESS                      The function passed successfully
 356:Generated_Source\PSoC5/CAN.c **** *    CAN_FAIL              The function failed
 357:Generated_Source\PSoC5/CAN.c **** *
 358:Generated_Source\PSoC5/CAN.c **** * Side Effects:
 359:Generated_Source\PSoC5/CAN.c **** *  Disable power to CAN Core in case of PSoC 3/5.
 360:Generated_Source\PSoC5/CAN.c **** *  Pending message in the Tx buffer of PSoC 3/5 will not be aborted on calling
 361:Generated_Source\PSoC5/CAN.c **** *  the CAN_Stop() API. User has to abort all pending messages
 362:Generated_Source\PSoC5/CAN.c **** *  before calling the CAN_Stop() function to make sure that the
 363:Generated_Source\PSoC5/CAN.c **** *  block stops all the message transmission immediately.
 364:Generated_Source\PSoC5/CAN.c **** *
 365:Generated_Source\PSoC5/CAN.c **** *******************************************************************************/
 366:Generated_Source\PSoC5/CAN.c **** uint8 CAN_Stop(void) 
 367:Generated_Source\PSoC5/CAN.c **** {
  28              		.loc 1 367 0
  29              		.cfi_startproc
  30              		@ args = 0, pretend = 0, frame = 0
  31              		@ frame_needed = 0, uses_anonymous_args = 0
  32 0000 08B5     		push	{r3, lr}
ARM GAS  C:\Users\HENRYH~1\AppData\Local\Temp\ccMT0gCo.s 			page 8


  33              		.cfi_def_cfa_offset 8
  34              		.cfi_offset 3, -8
  35              		.cfi_offset 14, -4
  36              	.LVL0:
 368:Generated_Source\PSoC5/CAN.c ****     uint32 timeout = CAN_MODE_STATE_STOP_TIMEOUT;
 369:Generated_Source\PSoC5/CAN.c ****     uint8 result = CAN_FAIL;
 370:Generated_Source\PSoC5/CAN.c **** 
 371:Generated_Source\PSoC5/CAN.c ****     #if (CY_PSOC3 || CY_PSOC5)
 372:Generated_Source\PSoC5/CAN.c ****         uint8 enableInterrupts;
 373:Generated_Source\PSoC5/CAN.c ****     #endif /* CY_PSOC3 || CY_PSOC5 */
 374:Generated_Source\PSoC5/CAN.c **** 
 375:Generated_Source\PSoC5/CAN.c ****     /* Set CAN controller to stop mode */
 376:Generated_Source\PSoC5/CAN.c ****     CY_SET_REG32(CAN_CMD_PTR, (CY_GET_REG32(CAN_CMD_PTR) &
  37              		.loc 1 376 0
  38 0002 134A     		ldr	r2, .L8
  39 0004 1368     		ldr	r3, [r2]
  40 0006 23F00103 		bic	r3, r3, #1
  41 000a 1360     		str	r3, [r2]
 368:Generated_Source\PSoC5/CAN.c ****     uint32 timeout = CAN_MODE_STATE_STOP_TIMEOUT;
  42              		.loc 1 368 0
  43 000c 4FF47063 		mov	r3, #3840
 377:Generated_Source\PSoC5/CAN.c ****                                             ((uint32) (~((uint32)CAN_MODE_MASK)))));
 378:Generated_Source\PSoC5/CAN.c **** 
 379:Generated_Source\PSoC5/CAN.c ****     /* Timeout for CAN state machine to switch mode to Stop */
 380:Generated_Source\PSoC5/CAN.c ****     while ((timeout != 0u) && ((CY_GET_REG32(CAN_CMD_PTR) & CAN_MODE_MASK) != 0u))
  44              		.loc 1 380 0
  45 0010 00E0     		b	.L2
  46              	.LVL1:
  47              	.L4:
 381:Generated_Source\PSoC5/CAN.c ****     {
 382:Generated_Source\PSoC5/CAN.c ****         timeout--;
  48              		.loc 1 382 0
  49 0012 013B     		subs	r3, r3, #1
  50              	.LVL2:
  51              	.L2:
 380:Generated_Source\PSoC5/CAN.c ****     {
  52              		.loc 1 380 0
  53 0014 23B1     		cbz	r3, .L3
 380:Generated_Source\PSoC5/CAN.c ****     {
  54              		.loc 1 380 0 is_stmt 0 discriminator 1
  55 0016 0E4A     		ldr	r2, .L8
  56 0018 1268     		ldr	r2, [r2]
  57 001a 12F0010F 		tst	r2, #1
  58 001e F8D1     		bne	.L4
  59              	.L3:
 383:Generated_Source\PSoC5/CAN.c ****     }
 384:Generated_Source\PSoC5/CAN.c **** 
 385:Generated_Source\PSoC5/CAN.c ****     /* Verify that bit is cleared */
 386:Generated_Source\PSoC5/CAN.c ****     if (timeout != 0u)
  60              		.loc 1 386 0 is_stmt 1
  61 0020 9BB1     		cbz	r3, .L6
  62              	.LVL3:
 387:Generated_Source\PSoC5/CAN.c ****     {
 388:Generated_Source\PSoC5/CAN.c ****         result = CYRET_SUCCESS;
 389:Generated_Source\PSoC5/CAN.c **** 
 390:Generated_Source\PSoC5/CAN.c ****         /* Disable isr */
 391:Generated_Source\PSoC5/CAN.c ****     CyIntDisable(CAN_ISR_NUMBER);
ARM GAS  C:\Users\HENRYH~1\AppData\Local\Temp\ccMT0gCo.s 			page 9


  63              		.loc 1 391 0
  64 0022 4FF48032 		mov	r2, #65536
  65 0026 0B4B     		ldr	r3, .L8+4
  66              	.LVL4:
  67 0028 1A60     		str	r2, [r3]
 392:Generated_Source\PSoC5/CAN.c **** 
 393:Generated_Source\PSoC5/CAN.c ****         #if (CY_PSOC3 || CY_PSOC5)
 394:Generated_Source\PSoC5/CAN.c ****             enableInterrupts = CyEnterCriticalSection();
  68              		.loc 1 394 0
  69 002a FFF7FEFF 		bl	CyEnterCriticalSection
  70              	.LVL5:
 395:Generated_Source\PSoC5/CAN.c **** 
 396:Generated_Source\PSoC5/CAN.c ****             /* Disable CAN block in Active mode */
 397:Generated_Source\PSoC5/CAN.c ****             CAN_PM_ACT_CFG_REG &= (uint8) (~CAN_ACT_PWR_EN);
  71              		.loc 1 397 0
  72 002e 0A4A     		ldr	r2, .L8+8
  73 0030 1378     		ldrb	r3, [r2]	@ zero_extendqisi2
  74 0032 03F0FE03 		and	r3, r3, #254
  75 0036 1370     		strb	r3, [r2]
 398:Generated_Source\PSoC5/CAN.c **** 
 399:Generated_Source\PSoC5/CAN.c ****             /* Disable CAN block in Alternate Active (Standby) mode template */
 400:Generated_Source\PSoC5/CAN.c ****             CAN_PM_STBY_CFG_REG &= (uint8) (~CAN_STBY_PWR_EN);
  76              		.loc 1 400 0
  77 0038 1032     		adds	r2, r2, #16
  78 003a 1378     		ldrb	r3, [r2]	@ zero_extendqisi2
  79 003c 03F0FE03 		and	r3, r3, #254
  80 0040 1370     		strb	r3, [r2]
 401:Generated_Source\PSoC5/CAN.c **** 
 402:Generated_Source\PSoC5/CAN.c ****             CyExitCriticalSection(enableInterrupts);
  81              		.loc 1 402 0
  82 0042 FFF7FEFF 		bl	CyExitCriticalSection
  83              	.LVL6:
 388:Generated_Source\PSoC5/CAN.c **** 
  84              		.loc 1 388 0
  85 0046 0020     		movs	r0, #0
  86 0048 08BD     		pop	{r3, pc}
  87              	.LVL7:
  88              	.L6:
 369:Generated_Source\PSoC5/CAN.c **** 
  89              		.loc 1 369 0
  90 004a 0120     		movs	r0, #1
  91              	.LVL8:
 403:Generated_Source\PSoC5/CAN.c ****         #endif /* CY_PSOC3 || CY_PSOC5 */
 404:Generated_Source\PSoC5/CAN.c ****     }
 405:Generated_Source\PSoC5/CAN.c **** 
 406:Generated_Source\PSoC5/CAN.c ****     return (result);
 407:Generated_Source\PSoC5/CAN.c **** }
  92              		.loc 1 407 0
  93 004c 08BD     		pop	{r3, pc}
  94              	.LVL9:
  95              	.L9:
  96 004e 00BF     		.align	2
  97              	.L8:
  98 0050 10A00040 		.word	1073782800
  99 0054 80E100E0 		.word	-536813184
 100 0058 A6430040 		.word	1073759142
 101              		.cfi_endproc
ARM GAS  C:\Users\HENRYH~1\AppData\Local\Temp\ccMT0gCo.s 			page 10


 102              	.LFE4:
 103              		.size	CAN_Stop, .-CAN_Stop
 104              		.section	.text.CAN_GlobalIntEnable,"ax",%progbits
 105              		.align	2
 106              		.global	CAN_GlobalIntEnable
 107              		.thumb
 108              		.thumb_func
 109              		.type	CAN_GlobalIntEnable, %function
 110              	CAN_GlobalIntEnable:
 111              	.LFB5:
 408:Generated_Source\PSoC5/CAN.c **** 
 409:Generated_Source\PSoC5/CAN.c **** 
 410:Generated_Source\PSoC5/CAN.c **** /*******************************************************************************
 411:Generated_Source\PSoC5/CAN.c **** * FUNCTION NAME:   CAN_GlobalIntEnable
 412:Generated_Source\PSoC5/CAN.c **** ********************************************************************************
 413:Generated_Source\PSoC5/CAN.c **** *
 414:Generated_Source\PSoC5/CAN.c **** * Summary:
 415:Generated_Source\PSoC5/CAN.c **** *  This function enables Global Interrupts from CAN Core.
 416:Generated_Source\PSoC5/CAN.c **** *
 417:Generated_Source\PSoC5/CAN.c **** * Parameters:
 418:Generated_Source\PSoC5/CAN.c **** *  None.
 419:Generated_Source\PSoC5/CAN.c **** *
 420:Generated_Source\PSoC5/CAN.c **** * Return:
 421:Generated_Source\PSoC5/CAN.c **** *  The indication whether the register is written and verified.
 422:Generated_Source\PSoC5/CAN.c **** *   Define                             Description
 423:Generated_Source\PSoC5/CAN.c **** *    CYRET_SUCCESS                      The function passed successfully
 424:Generated_Source\PSoC5/CAN.c **** *    CAN_FAIL              The function failed
 425:Generated_Source\PSoC5/CAN.c **** *
 426:Generated_Source\PSoC5/CAN.c **** *******************************************************************************/
 427:Generated_Source\PSoC5/CAN.c **** uint8 CAN_GlobalIntEnable(void) 
 428:Generated_Source\PSoC5/CAN.c **** {
 112              		.loc 1 428 0
 113              		.cfi_startproc
 114              		@ args = 0, pretend = 0, frame = 0
 115              		@ frame_needed = 0, uses_anonymous_args = 0
 116              		@ link register save eliminated.
 117              	.LVL10:
 429:Generated_Source\PSoC5/CAN.c ****     uint8 result = CAN_FAIL;
 430:Generated_Source\PSoC5/CAN.c **** 
 431:Generated_Source\PSoC5/CAN.c ****     #if (CY_PSOC3 || CY_PSOC5)
 432:Generated_Source\PSoC5/CAN.c ****         CAN_INT_EN_REG.byte[0u] |= CAN_GLOBAL_INT_MASK;
 118              		.loc 1 432 0
 119 0000 064B     		ldr	r3, .L13
 120 0002 1A78     		ldrb	r2, [r3]	@ zero_extendqisi2
 121 0004 42F00102 		orr	r2, r2, #1
 122 0008 1A70     		strb	r2, [r3]
 433:Generated_Source\PSoC5/CAN.c **** 
 434:Generated_Source\PSoC5/CAN.c ****         /* Verify that bit is set */
 435:Generated_Source\PSoC5/CAN.c ****         if ((CAN_INT_EN_REG.byte[0u] & CAN_GLOBAL_INT_MASK) != 0u)
 123              		.loc 1 435 0
 124 000a 1B78     		ldrb	r3, [r3]	@ zero_extendqisi2
 125 000c 13F0010F 		tst	r3, #1
 126 0010 01D1     		bne	.L12
 429:Generated_Source\PSoC5/CAN.c ****     uint8 result = CAN_FAIL;
 127              		.loc 1 429 0
 128 0012 0120     		movs	r0, #1
 129 0014 7047     		bx	lr
ARM GAS  C:\Users\HENRYH~1\AppData\Local\Temp\ccMT0gCo.s 			page 11


 130              	.L12:
 436:Generated_Source\PSoC5/CAN.c ****         {
 437:Generated_Source\PSoC5/CAN.c ****             result = CYRET_SUCCESS;
 131              		.loc 1 437 0
 132 0016 0020     		movs	r0, #0
 133              	.LVL11:
 438:Generated_Source\PSoC5/CAN.c ****         }
 439:Generated_Source\PSoC5/CAN.c ****     #else  /* CY_PSOC4 */
 440:Generated_Source\PSoC5/CAN.c ****         CAN_INT_EN_REG |= CAN_GLOBAL_INT_MASK;
 441:Generated_Source\PSoC5/CAN.c ****         /* Verify that bit is set */
 442:Generated_Source\PSoC5/CAN.c ****         if ((CAN_INT_EN_REG & CAN_GLOBAL_INT_MASK) != 0u)
 443:Generated_Source\PSoC5/CAN.c ****         {
 444:Generated_Source\PSoC5/CAN.c ****             result = CYRET_SUCCESS;
 445:Generated_Source\PSoC5/CAN.c ****         }
 446:Generated_Source\PSoC5/CAN.c ****     #endif /* CY_PSOC3 || CY_PSOC5 */
 447:Generated_Source\PSoC5/CAN.c **** 
 448:Generated_Source\PSoC5/CAN.c ****     return (result);
 449:Generated_Source\PSoC5/CAN.c **** }
 134              		.loc 1 449 0
 135 0018 7047     		bx	lr
 136              	.L14:
 137 001a 00BF     		.align	2
 138              	.L13:
 139 001c 04A00040 		.word	1073782788
 140              		.cfi_endproc
 141              	.LFE5:
 142              		.size	CAN_GlobalIntEnable, .-CAN_GlobalIntEnable
 143              		.section	.text.CAN_Enable,"ax",%progbits
 144              		.align	2
 145              		.global	CAN_Enable
 146              		.thumb
 147              		.thumb_func
 148              		.type	CAN_Enable, %function
 149              	CAN_Enable:
 150              	.LFB2:
 255:Generated_Source\PSoC5/CAN.c ****     uint32 timeout = CAN_MODE_STATE_RUN_TIMEOUT;
 151              		.loc 1 255 0
 152              		.cfi_startproc
 153              		@ args = 0, pretend = 0, frame = 0
 154              		@ frame_needed = 0, uses_anonymous_args = 0
 155 0000 08B5     		push	{r3, lr}
 156              		.cfi_def_cfa_offset 8
 157              		.cfi_offset 3, -8
 158              		.cfi_offset 14, -4
 159              	.LVL12:
 262:Generated_Source\PSoC5/CAN.c **** 
 160              		.loc 1 262 0
 161 0002 FFF7FEFF 		bl	CyEnterCriticalSection
 162              	.LVL13:
 265:Generated_Source\PSoC5/CAN.c **** 
 163              		.loc 1 265 0
 164 0006 154A     		ldr	r2, .L22
 165 0008 1378     		ldrb	r3, [r2]	@ zero_extendqisi2
 166 000a 43F00103 		orr	r3, r3, #1
 167 000e 1370     		strb	r3, [r2]
 268:Generated_Source\PSoC5/CAN.c **** 
 168              		.loc 1 268 0
ARM GAS  C:\Users\HENRYH~1\AppData\Local\Temp\ccMT0gCo.s 			page 12


 169 0010 1032     		adds	r2, r2, #16
 170 0012 1378     		ldrb	r3, [r2]	@ zero_extendqisi2
 171 0014 43F00103 		orr	r3, r3, #1
 172 0018 1370     		strb	r3, [r2]
 270:Generated_Source\PSoC5/CAN.c ****     #endif /* CY_PSOC3 || CY_PSOC5 */
 173              		.loc 1 270 0
 174 001a FFF7FEFF 		bl	CyExitCriticalSection
 175              	.LVL14:
 274:Generated_Source\PSoC5/CAN.c ****     (void) CAN_GlobalIntEnable();
 176              		.loc 1 274 0
 177 001e 41F20122 		movw	r2, #4609
 178 0022 0F4B     		ldr	r3, .L22+4
 179 0024 1A60     		str	r2, [r3]
 275:Generated_Source\PSoC5/CAN.c **** 
 180              		.loc 1 275 0
 181 0026 FFF7FEFF 		bl	CAN_GlobalIntEnable
 182              	.LVL15:
 278:Generated_Source\PSoC5/CAN.c **** 
 183              		.loc 1 278 0
 184 002a 4FF48032 		mov	r2, #65536
 185 002e 0D4B     		ldr	r3, .L22+8
 186 0030 1A60     		str	r2, [r3]
 281:Generated_Source\PSoC5/CAN.c **** 
 187              		.loc 1 281 0
 188 0032 0D4A     		ldr	r2, .L22+12
 189 0034 1368     		ldr	r3, [r2]
 190 0036 43F00103 		orr	r3, r3, #1
 191 003a 1360     		str	r3, [r2]
 256:Generated_Source\PSoC5/CAN.c ****     uint8 result = CAN_FAIL;
 192              		.loc 1 256 0
 193 003c 4FF49073 		mov	r3, #288
 284:Generated_Source\PSoC5/CAN.c ****     {
 194              		.loc 1 284 0
 195 0040 00E0     		b	.L16
 196              	.LVL16:
 197              	.L18:
 286:Generated_Source\PSoC5/CAN.c ****     }
 198              		.loc 1 286 0
 199 0042 013B     		subs	r3, r3, #1
 200              	.LVL17:
 201              	.L16:
 284:Generated_Source\PSoC5/CAN.c ****     {
 202              		.loc 1 284 0
 203 0044 23B1     		cbz	r3, .L17
 284:Generated_Source\PSoC5/CAN.c ****     {
 204              		.loc 1 284 0 is_stmt 0 discriminator 1
 205 0046 084A     		ldr	r2, .L22+12
 206 0048 1268     		ldr	r2, [r2]
 207 004a 12F0010F 		tst	r2, #1
 208 004e F8D0     		beq	.L18
 209              	.L17:
 289:Generated_Source\PSoC5/CAN.c ****     {
 210              		.loc 1 289 0 is_stmt 1
 211 0050 0BB9     		cbnz	r3, .L20
 257:Generated_Source\PSoC5/CAN.c **** 
 212              		.loc 1 257 0
 213 0052 0120     		movs	r0, #1
ARM GAS  C:\Users\HENRYH~1\AppData\Local\Temp\ccMT0gCo.s 			page 13


 214 0054 08BD     		pop	{r3, pc}
 215              	.LVL18:
 216              	.L20:
 291:Generated_Source\PSoC5/CAN.c ****     }
 217              		.loc 1 291 0
 218 0056 0020     		movs	r0, #0
 219              	.LVL19:
 295:Generated_Source\PSoC5/CAN.c **** 
 220              		.loc 1 295 0
 221 0058 08BD     		pop	{r3, pc}
 222              	.LVL20:
 223              	.L23:
 224 005a 00BF     		.align	2
 225              	.L22:
 226 005c A6430040 		.word	1073759142
 227 0060 00A00040 		.word	1073782784
 228 0064 00E100E0 		.word	-536813312
 229 0068 10A00040 		.word	1073782800
 230              		.cfi_endproc
 231              	.LFE2:
 232              		.size	CAN_Enable, .-CAN_Enable
 233              		.section	.text.CAN_GlobalIntDisable,"ax",%progbits
 234              		.align	2
 235              		.global	CAN_GlobalIntDisable
 236              		.thumb
 237              		.thumb_func
 238              		.type	CAN_GlobalIntDisable, %function
 239              	CAN_GlobalIntDisable:
 240              	.LFB6:
 450:Generated_Source\PSoC5/CAN.c **** 
 451:Generated_Source\PSoC5/CAN.c **** 
 452:Generated_Source\PSoC5/CAN.c **** /*******************************************************************************
 453:Generated_Source\PSoC5/CAN.c **** * FUNCTION NAME:   CAN_GlobalIntDisable
 454:Generated_Source\PSoC5/CAN.c **** ********************************************************************************
 455:Generated_Source\PSoC5/CAN.c **** *
 456:Generated_Source\PSoC5/CAN.c **** * Summary:
 457:Generated_Source\PSoC5/CAN.c **** *  This function disables Global Interrupts from CAN Core.
 458:Generated_Source\PSoC5/CAN.c **** *
 459:Generated_Source\PSoC5/CAN.c **** * Parameters:
 460:Generated_Source\PSoC5/CAN.c **** *  None.
 461:Generated_Source\PSoC5/CAN.c **** *
 462:Generated_Source\PSoC5/CAN.c **** * Return:
 463:Generated_Source\PSoC5/CAN.c **** *  The indication whether the register is written and verified.
 464:Generated_Source\PSoC5/CAN.c **** *   Define                             Description
 465:Generated_Source\PSoC5/CAN.c **** *    CYRET_SUCCESS                      The function passed successfully
 466:Generated_Source\PSoC5/CAN.c **** *    CAN_FAIL              The function failed
 467:Generated_Source\PSoC5/CAN.c **** *
 468:Generated_Source\PSoC5/CAN.c **** *******************************************************************************/
 469:Generated_Source\PSoC5/CAN.c **** uint8 CAN_GlobalIntDisable(void) 
 470:Generated_Source\PSoC5/CAN.c **** {
 241              		.loc 1 470 0
 242              		.cfi_startproc
 243              		@ args = 0, pretend = 0, frame = 0
 244              		@ frame_needed = 0, uses_anonymous_args = 0
 245              		@ link register save eliminated.
 246              	.LVL21:
 471:Generated_Source\PSoC5/CAN.c ****     uint8 result = CAN_FAIL;
ARM GAS  C:\Users\HENRYH~1\AppData\Local\Temp\ccMT0gCo.s 			page 14


 472:Generated_Source\PSoC5/CAN.c **** 
 473:Generated_Source\PSoC5/CAN.c ****     #if (CY_PSOC3 || CY_PSOC5)
 474:Generated_Source\PSoC5/CAN.c ****         CAN_INT_EN_REG.byte[0u] &= (uint8) (~CAN_GLOBAL_INT_MASK);
 247              		.loc 1 474 0
 248 0000 064B     		ldr	r3, .L27
 249 0002 1A78     		ldrb	r2, [r3]	@ zero_extendqisi2
 250 0004 02F0FE02 		and	r2, r2, #254
 251 0008 1A70     		strb	r2, [r3]
 475:Generated_Source\PSoC5/CAN.c **** 
 476:Generated_Source\PSoC5/CAN.c ****         /* Verify that bit is cleared */
 477:Generated_Source\PSoC5/CAN.c ****         if ((CAN_INT_EN_REG.byte[0u] & CAN_GLOBAL_INT_MASK) == 0u)
 252              		.loc 1 477 0
 253 000a 1B78     		ldrb	r3, [r3]	@ zero_extendqisi2
 254 000c 13F0010F 		tst	r3, #1
 255 0010 01D0     		beq	.L26
 471:Generated_Source\PSoC5/CAN.c ****     uint8 result = CAN_FAIL;
 256              		.loc 1 471 0
 257 0012 0120     		movs	r0, #1
 258 0014 7047     		bx	lr
 259              	.L26:
 478:Generated_Source\PSoC5/CAN.c ****         {
 479:Generated_Source\PSoC5/CAN.c ****             result = CYRET_SUCCESS;
 260              		.loc 1 479 0
 261 0016 0020     		movs	r0, #0
 262              	.LVL22:
 480:Generated_Source\PSoC5/CAN.c ****         }
 481:Generated_Source\PSoC5/CAN.c ****     #else  /* CY_PSOC4 */
 482:Generated_Source\PSoC5/CAN.c ****         CAN_INT_EN_REG &= (uint32) (~((uint32) CAN_GLOBAL_INT_MASK));
 483:Generated_Source\PSoC5/CAN.c **** 
 484:Generated_Source\PSoC5/CAN.c ****         /* Verify that bit is cleared */
 485:Generated_Source\PSoC5/CAN.c ****         if ((CAN_INT_EN_REG & CAN_GLOBAL_INT_MASK) == 0u)
 486:Generated_Source\PSoC5/CAN.c ****         {
 487:Generated_Source\PSoC5/CAN.c ****             result = CYRET_SUCCESS;
 488:Generated_Source\PSoC5/CAN.c ****         }
 489:Generated_Source\PSoC5/CAN.c ****     #endif /* CY_PSOC3 || CY_PSOC5 */
 490:Generated_Source\PSoC5/CAN.c **** 
 491:Generated_Source\PSoC5/CAN.c ****     return (result);
 492:Generated_Source\PSoC5/CAN.c **** }
 263              		.loc 1 492 0
 264 0018 7047     		bx	lr
 265              	.L28:
 266 001a 00BF     		.align	2
 267              	.L27:
 268 001c 04A00040 		.word	1073782788
 269              		.cfi_endproc
 270              	.LFE6:
 271              		.size	CAN_GlobalIntDisable, .-CAN_GlobalIntDisable
 272              		.section	.text.CAN_SetPreScaler,"ax",%progbits
 273              		.align	2
 274              		.global	CAN_SetPreScaler
 275              		.thumb
 276              		.thumb_func
 277              		.type	CAN_SetPreScaler, %function
 278              	CAN_SetPreScaler:
 279              	.LFB7:
 493:Generated_Source\PSoC5/CAN.c **** 
 494:Generated_Source\PSoC5/CAN.c **** 
ARM GAS  C:\Users\HENRYH~1\AppData\Local\Temp\ccMT0gCo.s 			page 15


 495:Generated_Source\PSoC5/CAN.c **** /*******************************************************************************
 496:Generated_Source\PSoC5/CAN.c **** * FUNCTION NAME:   CAN_SetPreScaler
 497:Generated_Source\PSoC5/CAN.c **** ********************************************************************************
 498:Generated_Source\PSoC5/CAN.c **** *
 499:Generated_Source\PSoC5/CAN.c **** * Summary:
 500:Generated_Source\PSoC5/CAN.c **** *  This function sets PreScaler for generating the time quantum which defines
 501:Generated_Source\PSoC5/CAN.c **** *  the time quanta. The values between 0x0 and 0x7FFF are valid.
 502:Generated_Source\PSoC5/CAN.c **** *
 503:Generated_Source\PSoC5/CAN.c **** * Parameters:
 504:Generated_Source\PSoC5/CAN.c **** *  bitrate: PreScaler value.
 505:Generated_Source\PSoC5/CAN.c **** *   Value           Description
 506:Generated_Source\PSoC5/CAN.c **** *    0               One time quantum equals 1 clock cycle
 507:Generated_Source\PSoC5/CAN.c **** *    1               One time quantum equals 2 clock cycles
 508:Generated_Source\PSoC5/CAN.c **** *    ...             ...
 509:Generated_Source\PSoC5/CAN.c **** *    32767           One time quantum equals 32768 clock cycles
 510:Generated_Source\PSoC5/CAN.c **** *
 511:Generated_Source\PSoC5/CAN.c **** * Return:
 512:Generated_Source\PSoC5/CAN.c **** *  The indication whether the register is written and verified.
 513:Generated_Source\PSoC5/CAN.c **** *   Define                             Description
 514:Generated_Source\PSoC5/CAN.c **** *    CYRET_SUCCESS                      The function passed successfully
 515:Generated_Source\PSoC5/CAN.c **** *    CAN_FAIL              The function failed
 516:Generated_Source\PSoC5/CAN.c **** *    CAN_OUT_OF_RANGE      The function parameter is out of range
 517:Generated_Source\PSoC5/CAN.c **** *
 518:Generated_Source\PSoC5/CAN.c **** *******************************************************************************/
 519:Generated_Source\PSoC5/CAN.c **** uint8 CAN_SetPreScaler(uint16 bitrate) 
 520:Generated_Source\PSoC5/CAN.c **** {
 280              		.loc 1 520 0
 281              		.cfi_startproc
 282              		@ args = 0, pretend = 0, frame = 0
 283              		@ frame_needed = 0, uses_anonymous_args = 0
 284              		@ link register save eliminated.
 285              	.LVL23:
 521:Generated_Source\PSoC5/CAN.c ****     uint8 result = CAN_OUT_OF_RANGE;
 522:Generated_Source\PSoC5/CAN.c **** 
 523:Generated_Source\PSoC5/CAN.c ****     if (bitrate <= CAN_BITRATE_MASK)
 286              		.loc 1 523 0
 287 0000 10F4004F 		tst	r0, #32768
 288 0004 07D1     		bne	.L31
 289              	.LVL24:
 524:Generated_Source\PSoC5/CAN.c ****     {
 525:Generated_Source\PSoC5/CAN.c ****         result = CAN_FAIL;
 526:Generated_Source\PSoC5/CAN.c **** 
 527:Generated_Source\PSoC5/CAN.c ****         #if (CY_PSOC3 || CY_PSOC5)
 528:Generated_Source\PSoC5/CAN.c ****             /* Set prescaler */
 529:Generated_Source\PSoC5/CAN.c ****             CY_SET_REG16((reg16 *) (&CAN_CFG_REG.byte[2u]), bitrate);
 290              		.loc 1 529 0
 291 0006 064B     		ldr	r3, .L33
 292 0008 1880     		strh	r0, [r3]	@ movhi
 530:Generated_Source\PSoC5/CAN.c **** 
 531:Generated_Source\PSoC5/CAN.c ****             /* Verify that prescaler is set */
 532:Generated_Source\PSoC5/CAN.c ****             if (CY_GET_REG16((reg16 *) (&CAN_CFG_REG.byte[2u])) == bitrate)
 293              		.loc 1 532 0
 294 000a 1B88     		ldrh	r3, [r3]
 295 000c 9BB2     		uxth	r3, r3
 296 000e 9842     		cmp	r0, r3
 297 0010 03D0     		beq	.L32
 525:Generated_Source\PSoC5/CAN.c **** 
ARM GAS  C:\Users\HENRYH~1\AppData\Local\Temp\ccMT0gCo.s 			page 16


 298              		.loc 1 525 0
 299 0012 0120     		movs	r0, #1
 300              	.LVL25:
 301 0014 7047     		bx	lr
 302              	.LVL26:
 303              	.L31:
 521:Generated_Source\PSoC5/CAN.c **** 
 304              		.loc 1 521 0
 305 0016 0220     		movs	r0, #2
 306              	.LVL27:
 307 0018 7047     		bx	lr
 308              	.LVL28:
 309              	.L32:
 533:Generated_Source\PSoC5/CAN.c ****             {
 534:Generated_Source\PSoC5/CAN.c ****                 result = CYRET_SUCCESS;
 310              		.loc 1 534 0
 311 001a 0020     		movs	r0, #0
 312              	.LVL29:
 535:Generated_Source\PSoC5/CAN.c ****             }
 536:Generated_Source\PSoC5/CAN.c ****         #else  /* CY_PSOC4 */
 537:Generated_Source\PSoC5/CAN.c ****             /* Set prescaler */
 538:Generated_Source\PSoC5/CAN.c ****             CAN_CFG_REG = (CAN_CFG_REG & (uint32) (~CAN_BITRATE_MASK_SHIFTED)) |
 539:Generated_Source\PSoC5/CAN.c ****             (uint32) ((uint32) bitrate << CAN_BITRATE_SHIFT);
 540:Generated_Source\PSoC5/CAN.c **** 
 541:Generated_Source\PSoC5/CAN.c ****             /* Verify that prescaler is set */
 542:Generated_Source\PSoC5/CAN.c ****             if ((CAN_CFG_REG & CAN_BITRATE_MASK_SHIFTED) ==
 543:Generated_Source\PSoC5/CAN.c ****                ((uint32) ((uint32) bitrate << CAN_BITRATE_SHIFT)))
 544:Generated_Source\PSoC5/CAN.c ****             {
 545:Generated_Source\PSoC5/CAN.c ****                 result = CYRET_SUCCESS;
 546:Generated_Source\PSoC5/CAN.c ****             }
 547:Generated_Source\PSoC5/CAN.c ****         #endif /* CY_PSOC3 || CY_PSOC5 */
 548:Generated_Source\PSoC5/CAN.c ****     }
 549:Generated_Source\PSoC5/CAN.c **** 
 550:Generated_Source\PSoC5/CAN.c ****     return (result);
 551:Generated_Source\PSoC5/CAN.c **** }
 313              		.loc 1 551 0
 314 001c 7047     		bx	lr
 315              	.L34:
 316 001e 00BF     		.align	2
 317              	.L33:
 318 0020 16A00040 		.word	1073782806
 319              		.cfi_endproc
 320              	.LFE7:
 321              		.size	CAN_SetPreScaler, .-CAN_SetPreScaler
 322              		.section	.text.CAN_SetArbiter,"ax",%progbits
 323              		.align	2
 324              		.global	CAN_SetArbiter
 325              		.thumb
 326              		.thumb_func
 327              		.type	CAN_SetArbiter, %function
 328              	CAN_SetArbiter:
 329              	.LFB8:
 552:Generated_Source\PSoC5/CAN.c **** 
 553:Generated_Source\PSoC5/CAN.c **** 
 554:Generated_Source\PSoC5/CAN.c **** /*******************************************************************************
 555:Generated_Source\PSoC5/CAN.c **** * FUNCTION NAME:   CAN_SetArbiter
 556:Generated_Source\PSoC5/CAN.c **** ********************************************************************************
ARM GAS  C:\Users\HENRYH~1\AppData\Local\Temp\ccMT0gCo.s 			page 17


 557:Generated_Source\PSoC5/CAN.c **** *
 558:Generated_Source\PSoC5/CAN.c **** * Summary:
 559:Generated_Source\PSoC5/CAN.c **** *  This function sets the arbitration type for transmit mailboxes. The types of
 560:Generated_Source\PSoC5/CAN.c **** *  the arbiters are Round Robin and Fixed Priority. Values 0 and 1 are valid.
 561:Generated_Source\PSoC5/CAN.c **** *
 562:Generated_Source\PSoC5/CAN.c **** * Parameters:
 563:Generated_Source\PSoC5/CAN.c **** *  arbiter: The arbitration type for transmit mailboxes.
 564:Generated_Source\PSoC5/CAN.c **** *   Value                              Description
 565:Generated_Source\PSoC5/CAN.c **** *    CAN_ROUND_ROBIN       The Round Robin arbitration
 566:Generated_Source\PSoC5/CAN.c **** *    CAN_FIXED_PRIORITY    The Fixed Priority arbitration.
 567:Generated_Source\PSoC5/CAN.c **** *
 568:Generated_Source\PSoC5/CAN.c **** * Return:
 569:Generated_Source\PSoC5/CAN.c **** *  The indication whether the register is written and verified.
 570:Generated_Source\PSoC5/CAN.c **** *   Define                             Description
 571:Generated_Source\PSoC5/CAN.c **** *    CYRET_SUCCESS                      The function passed successfully
 572:Generated_Source\PSoC5/CAN.c **** *    CAN_FAIL              The function failed
 573:Generated_Source\PSoC5/CAN.c **** *
 574:Generated_Source\PSoC5/CAN.c **** *******************************************************************************/
 575:Generated_Source\PSoC5/CAN.c **** uint8 CAN_SetArbiter(uint8 arbiter) 
 576:Generated_Source\PSoC5/CAN.c **** {
 330              		.loc 1 576 0
 331              		.cfi_startproc
 332              		@ args = 0, pretend = 0, frame = 0
 333              		@ frame_needed = 0, uses_anonymous_args = 0
 334              		@ link register save eliminated.
 335              	.LVL30:
 577:Generated_Source\PSoC5/CAN.c ****     uint8 result = CAN_FAIL;
 578:Generated_Source\PSoC5/CAN.c **** 
 579:Generated_Source\PSoC5/CAN.c ****     #if (CY_PSOC3 || CY_PSOC5)
 580:Generated_Source\PSoC5/CAN.c ****         if (arbiter == CAN_ROUND_ROBIN)
 336              		.loc 1 580 0
 337 0000 50B9     		cbnz	r0, .L36
 581:Generated_Source\PSoC5/CAN.c ****         {
 582:Generated_Source\PSoC5/CAN.c ****             CAN_CFG_REG.byte[1u] &= (uint8) (~CAN_ARBITRATION_MASK);
 338              		.loc 1 582 0
 339 0002 0D4B     		ldr	r3, .L40
 340 0004 5A78     		ldrb	r2, [r3, #1]	@ zero_extendqisi2
 341 0006 02F0EF02 		and	r2, r2, #239
 342 000a 5A70     		strb	r2, [r3, #1]
 583:Generated_Source\PSoC5/CAN.c **** 
 584:Generated_Source\PSoC5/CAN.c ****             /* Verify that bit is cleared */
 585:Generated_Source\PSoC5/CAN.c ****             if ((CAN_CFG_REG.byte[1u] & CAN_ARBITRATION_MASK) == 0u)
 343              		.loc 1 585 0
 344 000c 5B78     		ldrb	r3, [r3, #1]	@ zero_extendqisi2
 345 000e 13F0100F 		tst	r3, #16
 346 0012 0CD0     		beq	.L38
 577:Generated_Source\PSoC5/CAN.c **** 
 347              		.loc 1 577 0
 348 0014 0120     		movs	r0, #1
 349              	.LVL31:
 350 0016 7047     		bx	lr
 351              	.LVL32:
 352              	.L36:
 586:Generated_Source\PSoC5/CAN.c ****             {
 587:Generated_Source\PSoC5/CAN.c ****                 result = CYRET_SUCCESS;
 588:Generated_Source\PSoC5/CAN.c ****             }
 589:Generated_Source\PSoC5/CAN.c ****         }
ARM GAS  C:\Users\HENRYH~1\AppData\Local\Temp\ccMT0gCo.s 			page 18


 590:Generated_Source\PSoC5/CAN.c ****         else    /* Fixed Priority */
 591:Generated_Source\PSoC5/CAN.c ****         {
 592:Generated_Source\PSoC5/CAN.c ****             CAN_CFG_REG.byte[1u] |= CAN_ARBITRATION_MASK;
 353              		.loc 1 592 0
 354 0018 074B     		ldr	r3, .L40
 355 001a 5A78     		ldrb	r2, [r3, #1]	@ zero_extendqisi2
 356 001c 42F01002 		orr	r2, r2, #16
 357 0020 5A70     		strb	r2, [r3, #1]
 593:Generated_Source\PSoC5/CAN.c **** 
 594:Generated_Source\PSoC5/CAN.c ****             /* Verify that bit is set */
 595:Generated_Source\PSoC5/CAN.c ****             if ((CAN_CFG_REG.byte[1u] & CAN_ARBITRATION_MASK) != 0u)
 358              		.loc 1 595 0
 359 0022 5B78     		ldrb	r3, [r3, #1]	@ zero_extendqisi2
 360 0024 13F0100F 		tst	r3, #16
 361 0028 03D1     		bne	.L39
 577:Generated_Source\PSoC5/CAN.c **** 
 362              		.loc 1 577 0
 363 002a 0120     		movs	r0, #1
 364              	.LVL33:
 365 002c 7047     		bx	lr
 366              	.LVL34:
 367              	.L38:
 587:Generated_Source\PSoC5/CAN.c ****             }
 368              		.loc 1 587 0
 369 002e 0020     		movs	r0, #0
 370              	.LVL35:
 371 0030 7047     		bx	lr
 372              	.LVL36:
 373              	.L39:
 596:Generated_Source\PSoC5/CAN.c ****             {
 597:Generated_Source\PSoC5/CAN.c ****                 result = CYRET_SUCCESS;
 374              		.loc 1 597 0
 375 0032 0020     		movs	r0, #0
 376              	.LVL37:
 598:Generated_Source\PSoC5/CAN.c ****             }
 599:Generated_Source\PSoC5/CAN.c ****         }
 600:Generated_Source\PSoC5/CAN.c ****     #else  /* CY_PSOC4 */
 601:Generated_Source\PSoC5/CAN.c ****         if (arbiter == CAN_ROUND_ROBIN)
 602:Generated_Source\PSoC5/CAN.c ****         {
 603:Generated_Source\PSoC5/CAN.c ****             CAN_CFG_REG &= (uint32) (~CAN_ARBITRATION_MASK);
 604:Generated_Source\PSoC5/CAN.c **** 
 605:Generated_Source\PSoC5/CAN.c ****             /* Verify that bit is cleared */
 606:Generated_Source\PSoC5/CAN.c ****             if ((CAN_CFG_REG & CAN_ARBITRATION_MASK) == 0u)
 607:Generated_Source\PSoC5/CAN.c ****             {
 608:Generated_Source\PSoC5/CAN.c ****                 result = CYRET_SUCCESS;
 609:Generated_Source\PSoC5/CAN.c ****             }
 610:Generated_Source\PSoC5/CAN.c ****         }
 611:Generated_Source\PSoC5/CAN.c ****         else    /* Fixed priority */
 612:Generated_Source\PSoC5/CAN.c ****         {
 613:Generated_Source\PSoC5/CAN.c ****             CAN_CFG_REG |= CAN_ARBITRATION_MASK;
 614:Generated_Source\PSoC5/CAN.c **** 
 615:Generated_Source\PSoC5/CAN.c ****             /* Verify that bit is set */
 616:Generated_Source\PSoC5/CAN.c ****             if ((CAN_CFG_REG & CAN_ARBITRATION_MASK) != 0u)
 617:Generated_Source\PSoC5/CAN.c ****             {
 618:Generated_Source\PSoC5/CAN.c ****                 result = CYRET_SUCCESS;
 619:Generated_Source\PSoC5/CAN.c ****             }
 620:Generated_Source\PSoC5/CAN.c ****         }
ARM GAS  C:\Users\HENRYH~1\AppData\Local\Temp\ccMT0gCo.s 			page 19


 621:Generated_Source\PSoC5/CAN.c ****     #endif /* CY_PSOC3 || CY_PSOC5 */
 622:Generated_Source\PSoC5/CAN.c **** 
 623:Generated_Source\PSoC5/CAN.c ****     return (result);
 624:Generated_Source\PSoC5/CAN.c **** }
 377              		.loc 1 624 0
 378 0034 7047     		bx	lr
 379              	.L41:
 380 0036 00BF     		.align	2
 381              	.L40:
 382 0038 14A00040 		.word	1073782804
 383              		.cfi_endproc
 384              	.LFE8:
 385              		.size	CAN_SetArbiter, .-CAN_SetArbiter
 386              		.section	.text.CAN_SetTsegSample,"ax",%progbits
 387              		.align	2
 388              		.global	CAN_SetTsegSample
 389              		.thumb
 390              		.thumb_func
 391              		.type	CAN_SetTsegSample, %function
 392              	CAN_SetTsegSample:
 393              	.LFB9:
 625:Generated_Source\PSoC5/CAN.c **** 
 626:Generated_Source\PSoC5/CAN.c **** 
 627:Generated_Source\PSoC5/CAN.c **** /*******************************************************************************
 628:Generated_Source\PSoC5/CAN.c **** * FUNCTION NAME: CAN_SetTsegSample
 629:Generated_Source\PSoC5/CAN.c **** ********************************************************************************
 630:Generated_Source\PSoC5/CAN.c **** *
 631:Generated_Source\PSoC5/CAN.c **** * Summary:
 632:Generated_Source\PSoC5/CAN.c **** *  This function configures: Time segment 1, Time segment 2, Sampling Mode
 633:Generated_Source\PSoC5/CAN.c **** *  and Synchronization Jump Width.
 634:Generated_Source\PSoC5/CAN.c **** *
 635:Generated_Source\PSoC5/CAN.c **** * Parameters:
 636:Generated_Source\PSoC5/CAN.c **** *  cfgTseg1: The length of time segment 1, values between 0x2 and 0xF are valid;
 637:Generated_Source\PSoC5/CAN.c **** *  cfgTseg2: The length of time segment 2, values between 0x1 and 0x7 are valid;
 638:Generated_Source\PSoC5/CAN.c **** *  sjw: Synchronization Jump Width, value between 0x0 and 0x3 are valid;
 639:Generated_Source\PSoC5/CAN.c **** *  sm: Sampling Mode.
 640:Generated_Source\PSoC5/CAN.c **** *   Define                               Description
 641:Generated_Source\PSoC5/CAN.c **** *   CAN_ONE_SAMPLE_POINT     One sampling point is used
 642:Generated_Source\PSoC5/CAN.c **** *   CAN_THREE_SAMPLE_POINTS  Three sampling points are used
 643:Generated_Source\PSoC5/CAN.c **** *
 644:Generated_Source\PSoC5/CAN.c **** * Return:
 645:Generated_Source\PSoC5/CAN.c **** *  The indication whether the register is written and verified.
 646:Generated_Source\PSoC5/CAN.c **** *   Define                             Description
 647:Generated_Source\PSoC5/CAN.c **** *    CYRET_SUCCESS                      The function passed successfully
 648:Generated_Source\PSoC5/CAN.c **** *    CAN_FAIL              The function failed
 649:Generated_Source\PSoC5/CAN.c **** *    CAN_OUT_OF_RANGE      The function parameter is out of range
 650:Generated_Source\PSoC5/CAN.c **** *
 651:Generated_Source\PSoC5/CAN.c **** *******************************************************************************/
 652:Generated_Source\PSoC5/CAN.c **** uint8 CAN_SetTsegSample(uint8 cfgTseg1, uint8 cfgTseg2, uint8 sjw, uint8 sm)
 653:Generated_Source\PSoC5/CAN.c ****                                      
 654:Generated_Source\PSoC5/CAN.c **** {
 394              		.loc 1 654 0
 395              		.cfi_startproc
 396              		@ args = 0, pretend = 0, frame = 0
 397              		@ frame_needed = 0, uses_anonymous_args = 0
 398              		@ link register save eliminated.
 399              	.LVL38:
ARM GAS  C:\Users\HENRYH~1\AppData\Local\Temp\ccMT0gCo.s 			page 20


 400 0000 30B4     		push	{r4, r5}
 401              		.cfi_def_cfa_offset 8
 402              		.cfi_offset 4, -8
 403              		.cfi_offset 5, -4
 404              	.LVL39:
 655:Generated_Source\PSoC5/CAN.c ****     uint8 result = CAN_OUT_OF_RANGE;
 656:Generated_Source\PSoC5/CAN.c ****     uint8 cfgTemp;
 657:Generated_Source\PSoC5/CAN.c **** 
 658:Generated_Source\PSoC5/CAN.c ****     if ((cfgTseg1 >= CAN_CFG_REG_TSEG1_LOWER_LIMIT) && (cfgTseg1 <=
 405              		.loc 1 658 0
 406 0002 841E     		subs	r4, r0, #2
 407 0004 E4B2     		uxtb	r4, r4
 408 0006 0D2C     		cmp	r4, #13
 409 0008 28D8     		bhi	.L46
 659:Generated_Source\PSoC5/CAN.c ****          CAN_CFG_REG_TSEG1_UPPER_LIMIT))
 660:Generated_Source\PSoC5/CAN.c ****     {
 661:Generated_Source\PSoC5/CAN.c ****         if (((cfgTseg2 >= CAN_CFG_REG_TSEG2_LOWER_LIMIT) &&
 410              		.loc 1 661 0
 411 000a 8C1E     		subs	r4, r1, #2
 412 000c E4B2     		uxtb	r4, r4
 413 000e 052C     		cmp	r4, #5
 414 0010 02D9     		bls	.L44
 662:Generated_Source\PSoC5/CAN.c ****              (cfgTseg2 <= CAN_CFG_REG_TSEG2_UPPER_LIMIT)) || ((sm == CAN_ONE_SAMPLE_POINT) &&
 415              		.loc 1 662 0
 416 0012 2BBB     		cbnz	r3, .L47
 417              		.loc 1 662 0 is_stmt 0 discriminator 1
 418 0014 0129     		cmp	r1, #1
 419 0016 25D1     		bne	.L48
 420              	.L44:
 663:Generated_Source\PSoC5/CAN.c ****              (cfgTseg2 == CAN_CFG_REG_TSEG2_EXCEPTION)))
 664:Generated_Source\PSoC5/CAN.c ****         {
 665:Generated_Source\PSoC5/CAN.c ****             if ((sjw <= CAN_CFG_REG_SJW_LOWER_LIMIT) && (sjw <= cfgTseg1) && (sjw <= cfgTseg2))
 421              		.loc 1 665 0 is_stmt 1
 422 0018 032A     		cmp	r2, #3
 423 001a 25D8     		bhi	.L49
 424              		.loc 1 665 0 is_stmt 0 discriminator 1
 425 001c 9042     		cmp	r0, r2
 426 001e 25D3     		bcc	.L50
 427              		.loc 1 665 0 discriminator 2
 428 0020 9142     		cmp	r1, r2
 429 0022 25D3     		bcc	.L51
 430              	.LVL40:
 666:Generated_Source\PSoC5/CAN.c ****             {
 667:Generated_Source\PSoC5/CAN.c ****                 result = CAN_FAIL;
 668:Generated_Source\PSoC5/CAN.c **** 
 669:Generated_Source\PSoC5/CAN.c ****                 #if (CY_PSOC3 || CY_PSOC5)
 670:Generated_Source\PSoC5/CAN.c ****                     cfgTemp = CAN_CFG_REG.byte[1];
 431              		.loc 1 670 0 is_stmt 1
 432 0024 164D     		ldr	r5, .L56
 433 0026 6C78     		ldrb	r4, [r5, #1]	@ zero_extendqisi2
 434              	.LVL41:
 671:Generated_Source\PSoC5/CAN.c ****                     cfgTemp &= (uint8) (~CAN_CFG_REG_TSEG1_MASK);
 435              		.loc 1 671 0
 436 0028 04F0F004 		and	r4, r4, #240
 437              	.LVL42:
 672:Generated_Source\PSoC5/CAN.c ****                     cfgTemp |= cfgTseg1;
 438              		.loc 1 672 0
ARM GAS  C:\Users\HENRYH~1\AppData\Local\Temp\ccMT0gCo.s 			page 21


 439 002c 2043     		orrs	r0, r0, r4
 440              	.LVL43:
 673:Generated_Source\PSoC5/CAN.c **** 
 674:Generated_Source\PSoC5/CAN.c ****                     /* Write register byte 1 */
 675:Generated_Source\PSoC5/CAN.c ****                     CAN_CFG_REG.byte[1u] = cfgTemp;
 441              		.loc 1 675 0
 442 002e 6870     		strb	r0, [r5, #1]
 676:Generated_Source\PSoC5/CAN.c **** 
 677:Generated_Source\PSoC5/CAN.c ****                     /* Verify 1st byte of CAN_CFG_REG register */
 678:Generated_Source\PSoC5/CAN.c ****                     if (CAN_CFG_REG.byte[1u] == cfgTemp)
 443              		.loc 1 678 0
 444 0030 6C78     		ldrb	r4, [r5, #1]	@ zero_extendqisi2
 445 0032 E4B2     		uxtb	r4, r4
 446 0034 A042     		cmp	r0, r4
 447 0036 1DD1     		bne	.L52
 448              	.LVL44:
 679:Generated_Source\PSoC5/CAN.c ****                     {
 680:Generated_Source\PSoC5/CAN.c ****                         cfgTemp = 0u;
 681:Generated_Source\PSoC5/CAN.c ****                         /* Set appropriate bits */
 682:Generated_Source\PSoC5/CAN.c ****                         if (sm != CAN_ONE_SAMPLE_POINT)
 449              		.loc 1 682 0
 450 0038 0BB9     		cbnz	r3, .L53
 680:Generated_Source\PSoC5/CAN.c ****                         /* Set appropriate bits */
 451              		.loc 1 680 0
 452 003a 0020     		movs	r0, #0
 453 003c 00E0     		b	.L45
 454              	.L53:
 683:Generated_Source\PSoC5/CAN.c ****                         {
 684:Generated_Source\PSoC5/CAN.c ****                             cfgTemp = CAN_SAMPLE_MODE_MASK;
 455              		.loc 1 684 0
 456 003e 0220     		movs	r0, #2
 457              	.L45:
 458              	.LVL45:
 685:Generated_Source\PSoC5/CAN.c ****                         }
 686:Generated_Source\PSoC5/CAN.c ****                         cfgTemp |= ((uint8) (cfgTseg2 << CAN_CFG_REG_TSEG2_SHIFT)) |
 459              		.loc 1 686 0
 460 0040 4B01     		lsls	r3, r1, #5
 461              	.LVL46:
 462 0042 DBB2     		uxtb	r3, r3
 687:Generated_Source\PSoC5/CAN.c ****                                    ((uint8) (sjw << CAN_CFG_REG_SJW_SHIFT));
 463              		.loc 1 687 0
 464 0044 9200     		lsls	r2, r2, #2
 465              	.LVL47:
 466 0046 D2B2     		uxtb	r2, r2
 686:Generated_Source\PSoC5/CAN.c ****                                    ((uint8) (sjw << CAN_CFG_REG_SJW_SHIFT));
 467              		.loc 1 686 0
 468 0048 1343     		orrs	r3, r3, r2
 469 004a 0343     		orrs	r3, r3, r0
 470              	.LVL48:
 688:Generated_Source\PSoC5/CAN.c **** 
 689:Generated_Source\PSoC5/CAN.c ****                         /* Write register byte 0 */
 690:Generated_Source\PSoC5/CAN.c ****                         CAN_CFG_REG.byte[0u] = cfgTemp;
 471              		.loc 1 690 0
 472 004c 0C4A     		ldr	r2, .L56
 473 004e 1370     		strb	r3, [r2]
 691:Generated_Source\PSoC5/CAN.c **** 
 692:Generated_Source\PSoC5/CAN.c ****                         /* Verify 1st byte of CAN_CFG_REG register */
ARM GAS  C:\Users\HENRYH~1\AppData\Local\Temp\ccMT0gCo.s 			page 22


 693:Generated_Source\PSoC5/CAN.c ****                         if (CAN_CFG_REG.byte[0u] == cfgTemp)
 474              		.loc 1 693 0
 475 0050 1278     		ldrb	r2, [r2]	@ zero_extendqisi2
 476 0052 D2B2     		uxtb	r2, r2
 477 0054 9342     		cmp	r3, r2
 478 0056 0FD0     		beq	.L54
 667:Generated_Source\PSoC5/CAN.c **** 
 479              		.loc 1 667 0
 480 0058 0120     		movs	r0, #1
 481 005a 0EE0     		b	.L43
 482              	.LVL49:
 483              	.L46:
 655:Generated_Source\PSoC5/CAN.c ****     uint8 cfgTemp;
 484              		.loc 1 655 0
 485 005c 0220     		movs	r0, #2
 486              	.LVL50:
 487 005e 0CE0     		b	.L43
 488              	.LVL51:
 489              	.L47:
 490 0060 0220     		movs	r0, #2
 491              	.LVL52:
 492 0062 0AE0     		b	.L43
 493              	.LVL53:
 494              	.L48:
 495 0064 0220     		movs	r0, #2
 496              	.LVL54:
 497 0066 08E0     		b	.L43
 498              	.LVL55:
 499              	.L49:
 500 0068 0220     		movs	r0, #2
 501              	.LVL56:
 502 006a 06E0     		b	.L43
 503              	.LVL57:
 504              	.L50:
 505 006c 0220     		movs	r0, #2
 506              	.LVL58:
 507 006e 04E0     		b	.L43
 508              	.LVL59:
 509              	.L51:
 510 0070 0220     		movs	r0, #2
 511              	.LVL60:
 512 0072 02E0     		b	.L43
 513              	.LVL61:
 514              	.L52:
 667:Generated_Source\PSoC5/CAN.c **** 
 515              		.loc 1 667 0
 516 0074 0120     		movs	r0, #1
 517              	.LVL62:
 518 0076 00E0     		b	.L43
 519              	.LVL63:
 520              	.L54:
 694:Generated_Source\PSoC5/CAN.c ****                         {
 695:Generated_Source\PSoC5/CAN.c ****                             result = CYRET_SUCCESS;
 521              		.loc 1 695 0
 522 0078 0020     		movs	r0, #0
 523              	.LVL64:
 524              	.L43:
ARM GAS  C:\Users\HENRYH~1\AppData\Local\Temp\ccMT0gCo.s 			page 23


 696:Generated_Source\PSoC5/CAN.c ****                         }
 697:Generated_Source\PSoC5/CAN.c ****                     }
 698:Generated_Source\PSoC5/CAN.c ****                 #else  /* CY_PSOC4 */
 699:Generated_Source\PSoC5/CAN.c ****                     cfgTemp = (uint8) (CAN_CFG_REG >> CAN_CFG_REG_TSEG1_SHIFT);
 700:Generated_Source\PSoC5/CAN.c ****                     cfgTemp &= (uint8) (~CAN_CFG_REG_TSEG1_MASK);
 701:Generated_Source\PSoC5/CAN.c ****                     cfgTemp |= cfgTseg1;
 702:Generated_Source\PSoC5/CAN.c **** 
 703:Generated_Source\PSoC5/CAN.c ****                     /* Write register byte 1 */
 704:Generated_Source\PSoC5/CAN.c ****                     CAN_CFG_REG =
 705:Generated_Source\PSoC5/CAN.c ****                     (CAN_CFG_REG & (uint32) (~((uint32) ((uint32) CAN_CFG_REG_TSEG1_MASK <<
 706:Generated_Source\PSoC5/CAN.c ****                     CAN_CFG_REG_TSEG1_SHIFT)))) |
 707:Generated_Source\PSoC5/CAN.c ****                     (uint32) ((uint32) cfgTemp << CAN_CFG_REG_TSEG1_SHIFT);
 708:Generated_Source\PSoC5/CAN.c **** 
 709:Generated_Source\PSoC5/CAN.c ****                     /* Verify 1st byte of CAN_CFG_REG register */
 710:Generated_Source\PSoC5/CAN.c ****                     if ((CAN_CFG_REG & (uint32) ((uint32) CAN_CFG_REG_TSEG1_MASK <<
 711:Generated_Source\PSoC5/CAN.c ****                        CAN_CFG_REG_TSEG1_SHIFT)) == (uint32) ((uint32) ((uint32) cfgTemp &
 712:Generated_Source\PSoC5/CAN.c ****                        CAN_CFG_REG_TSEG1_MASK) << CAN_CFG_REG_TSEG1_SHIFT))
 713:Generated_Source\PSoC5/CAN.c ****                     {
 714:Generated_Source\PSoC5/CAN.c ****                         cfgTemp = 0u;
 715:Generated_Source\PSoC5/CAN.c ****                         /* Set appropriate bits */
 716:Generated_Source\PSoC5/CAN.c ****                         if (sm != CAN_ONE_SAMPLE_POINT)
 717:Generated_Source\PSoC5/CAN.c ****                         {
 718:Generated_Source\PSoC5/CAN.c ****                             cfgTemp = CAN_SAMPLE_MODE_MASK;
 719:Generated_Source\PSoC5/CAN.c ****                         }
 720:Generated_Source\PSoC5/CAN.c ****                         cfgTemp |= ((uint8) (cfgTseg2 << CAN_CFG_REG_TSEG2_SHIFT)) |
 721:Generated_Source\PSoC5/CAN.c ****                                    ((uint8) (sjw << CAN_CFG_REG_SJW_SHIFT));
 722:Generated_Source\PSoC5/CAN.c **** 
 723:Generated_Source\PSoC5/CAN.c ****                         /* Write register byte 0 */
 724:Generated_Source\PSoC5/CAN.c ****                         CAN_CFG_REG = (CAN_CFG_REG &
 725:Generated_Source\PSoC5/CAN.c ****                         (uint32) (~((uint32) (CAN_CFG_REG_TSEG2_MASK | CAN_CFG_REG_SJW_MASK |
 726:Generated_Source\PSoC5/CAN.c ****                         CAN_SAMPLE_MODE_MASK)))) | cfgTemp;
 727:Generated_Source\PSoC5/CAN.c **** 
 728:Generated_Source\PSoC5/CAN.c ****                         /* Verify 1st byte of CAN_CFG_REG register */
 729:Generated_Source\PSoC5/CAN.c ****                         if ((CAN_CFG_REG & (CAN_CFG_REG_TSEG2_MASK |
 730:Generated_Source\PSoC5/CAN.c ****                            CAN_CFG_REG_SJW_MASK | CAN_SAMPLE_MODE_MASK)) == cfgTemp)
 731:Generated_Source\PSoC5/CAN.c ****                         {
 732:Generated_Source\PSoC5/CAN.c ****                             result = CYRET_SUCCESS;
 733:Generated_Source\PSoC5/CAN.c ****                         }
 734:Generated_Source\PSoC5/CAN.c ****                     }
 735:Generated_Source\PSoC5/CAN.c ****                 #endif /* CY_PSOC3 || CY_PSOC5 */
 736:Generated_Source\PSoC5/CAN.c ****             }
 737:Generated_Source\PSoC5/CAN.c ****         }
 738:Generated_Source\PSoC5/CAN.c ****     }
 739:Generated_Source\PSoC5/CAN.c **** 
 740:Generated_Source\PSoC5/CAN.c ****     return (result);
 741:Generated_Source\PSoC5/CAN.c **** }
 525              		.loc 1 741 0
 526 007a 30BC     		pop	{r4, r5}
 527              		.cfi_restore 5
 528              		.cfi_restore 4
 529              		.cfi_def_cfa_offset 0
 530 007c 7047     		bx	lr
 531              	.L57:
 532 007e 00BF     		.align	2
 533              	.L56:
 534 0080 14A00040 		.word	1073782804
 535              		.cfi_endproc
ARM GAS  C:\Users\HENRYH~1\AppData\Local\Temp\ccMT0gCo.s 			page 24


 536              	.LFE9:
 537              		.size	CAN_SetTsegSample, .-CAN_SetTsegSample
 538              		.section	.text.CAN_SetRestartType,"ax",%progbits
 539              		.align	2
 540              		.global	CAN_SetRestartType
 541              		.thumb
 542              		.thumb_func
 543              		.type	CAN_SetRestartType, %function
 544              	CAN_SetRestartType:
 545              	.LFB10:
 742:Generated_Source\PSoC5/CAN.c **** 
 743:Generated_Source\PSoC5/CAN.c **** 
 744:Generated_Source\PSoC5/CAN.c **** /*******************************************************************************
 745:Generated_Source\PSoC5/CAN.c **** * FUNCTION NAME:   CAN_SetRestartType
 746:Generated_Source\PSoC5/CAN.c **** ********************************************************************************
 747:Generated_Source\PSoC5/CAN.c **** *
 748:Generated_Source\PSoC5/CAN.c **** * Summary:
 749:Generated_Source\PSoC5/CAN.c **** *  This function sets the Reset type. The types of Reset are Automatic and
 750:Generated_Source\PSoC5/CAN.c **** *  Manual. Manual Reset is the recommended setting.
 751:Generated_Source\PSoC5/CAN.c **** *
 752:Generated_Source\PSoC5/CAN.c **** * Parameters:
 753:Generated_Source\PSoC5/CAN.c **** *  reset: Reset Type.
 754:Generated_Source\PSoC5/CAN.c **** *   Define                             Description
 755:Generated_Source\PSoC5/CAN.c **** *    CAN_MANUAL_RESTART    After Bus-Off, CAN must be restarted
 756:Generated_Source\PSoC5/CAN.c **** *                                       manually. This is the recommended
 757:Generated_Source\PSoC5/CAN.c **** *                                       setting.
 758:Generated_Source\PSoC5/CAN.c **** *    CAN_AUTO_RESTART      After Bus-Off, CAN restarts
 759:Generated_Source\PSoC5/CAN.c **** *                                       automatically after 128 groups of 11
 760:Generated_Source\PSoC5/CAN.c **** *                                       recessive bits.
 761:Generated_Source\PSoC5/CAN.c **** *
 762:Generated_Source\PSoC5/CAN.c **** * Return:
 763:Generated_Source\PSoC5/CAN.c **** *  The indication whether the register is written and verified.
 764:Generated_Source\PSoC5/CAN.c **** *   Define                             Description
 765:Generated_Source\PSoC5/CAN.c **** *    CYRET_SUCCESS                      The function passed successfully
 766:Generated_Source\PSoC5/CAN.c **** *    CAN_FAIL              The function failed
 767:Generated_Source\PSoC5/CAN.c **** *
 768:Generated_Source\PSoC5/CAN.c **** *******************************************************************************/
 769:Generated_Source\PSoC5/CAN.c **** uint8 CAN_SetRestartType(uint8 reset) 
 770:Generated_Source\PSoC5/CAN.c **** {
 546              		.loc 1 770 0
 547              		.cfi_startproc
 548              		@ args = 0, pretend = 0, frame = 0
 549              		@ frame_needed = 0, uses_anonymous_args = 0
 550              		@ link register save eliminated.
 551              	.LVL65:
 771:Generated_Source\PSoC5/CAN.c ****     uint8 result = CAN_FAIL;
 772:Generated_Source\PSoC5/CAN.c **** 
 773:Generated_Source\PSoC5/CAN.c ****     #if (CY_PSOC3 || CY_PSOC5)
 774:Generated_Source\PSoC5/CAN.c ****         if (reset == CAN_MANUAL_RESTART)
 552              		.loc 1 774 0
 553 0000 50B9     		cbnz	r0, .L59
 775:Generated_Source\PSoC5/CAN.c ****         {
 776:Generated_Source\PSoC5/CAN.c ****             CAN_CFG_REG.byte[0u] &= (uint8) (~CAN_RESET_MASK);
 554              		.loc 1 776 0
 555 0002 0D4B     		ldr	r3, .L63
 556 0004 1A78     		ldrb	r2, [r3]	@ zero_extendqisi2
 557 0006 02F0EF02 		and	r2, r2, #239
ARM GAS  C:\Users\HENRYH~1\AppData\Local\Temp\ccMT0gCo.s 			page 25


 558 000a 1A70     		strb	r2, [r3]
 777:Generated_Source\PSoC5/CAN.c **** 
 778:Generated_Source\PSoC5/CAN.c ****             /* Verify that bit is cleared */
 779:Generated_Source\PSoC5/CAN.c ****             if ((CAN_CFG_REG.byte[0u] & CAN_RESET_MASK) == 0u)
 559              		.loc 1 779 0
 560 000c 1B78     		ldrb	r3, [r3]	@ zero_extendqisi2
 561 000e 13F0100F 		tst	r3, #16
 562 0012 0CD0     		beq	.L61
 771:Generated_Source\PSoC5/CAN.c **** 
 563              		.loc 1 771 0
 564 0014 0120     		movs	r0, #1
 565              	.LVL66:
 566 0016 7047     		bx	lr
 567              	.LVL67:
 568              	.L59:
 780:Generated_Source\PSoC5/CAN.c ****             {
 781:Generated_Source\PSoC5/CAN.c ****                 result = CYRET_SUCCESS;
 782:Generated_Source\PSoC5/CAN.c ****             }
 783:Generated_Source\PSoC5/CAN.c ****         }
 784:Generated_Source\PSoC5/CAN.c ****         else    /* Automatic restart */
 785:Generated_Source\PSoC5/CAN.c ****         {
 786:Generated_Source\PSoC5/CAN.c ****             CAN_CFG_REG.byte[0u] |= CAN_RESET_MASK;
 569              		.loc 1 786 0
 570 0018 074B     		ldr	r3, .L63
 571 001a 1A78     		ldrb	r2, [r3]	@ zero_extendqisi2
 572 001c 42F01002 		orr	r2, r2, #16
 573 0020 1A70     		strb	r2, [r3]
 787:Generated_Source\PSoC5/CAN.c **** 
 788:Generated_Source\PSoC5/CAN.c ****             /* Verify that bit is set */
 789:Generated_Source\PSoC5/CAN.c ****             if ((CAN_CFG_REG.byte[0u] & CAN_RESET_MASK) != 0u)
 574              		.loc 1 789 0
 575 0022 1B78     		ldrb	r3, [r3]	@ zero_extendqisi2
 576 0024 13F0100F 		tst	r3, #16
 577 0028 03D1     		bne	.L62
 771:Generated_Source\PSoC5/CAN.c **** 
 578              		.loc 1 771 0
 579 002a 0120     		movs	r0, #1
 580              	.LVL68:
 581 002c 7047     		bx	lr
 582              	.LVL69:
 583              	.L61:
 781:Generated_Source\PSoC5/CAN.c ****             }
 584              		.loc 1 781 0
 585 002e 0020     		movs	r0, #0
 586              	.LVL70:
 587 0030 7047     		bx	lr
 588              	.LVL71:
 589              	.L62:
 790:Generated_Source\PSoC5/CAN.c ****             {
 791:Generated_Source\PSoC5/CAN.c ****                 result = CYRET_SUCCESS;
 590              		.loc 1 791 0
 591 0032 0020     		movs	r0, #0
 592              	.LVL72:
 792:Generated_Source\PSoC5/CAN.c ****             }
 793:Generated_Source\PSoC5/CAN.c ****         }
 794:Generated_Source\PSoC5/CAN.c ****     #else  /* CY_PSOC4 */
 795:Generated_Source\PSoC5/CAN.c ****         if (reset == CAN_MANUAL_RESTART)
ARM GAS  C:\Users\HENRYH~1\AppData\Local\Temp\ccMT0gCo.s 			page 26


 796:Generated_Source\PSoC5/CAN.c ****         {
 797:Generated_Source\PSoC5/CAN.c ****             CAN_CFG_REG &= (uint32) (~((uint32) CAN_RESET_MASK));
 798:Generated_Source\PSoC5/CAN.c **** 
 799:Generated_Source\PSoC5/CAN.c ****             /* Verify that bit is cleared */
 800:Generated_Source\PSoC5/CAN.c ****             if ((CAN_CFG_REG & CAN_RESET_MASK) == 0u)
 801:Generated_Source\PSoC5/CAN.c ****             {
 802:Generated_Source\PSoC5/CAN.c ****                 result = CYRET_SUCCESS;
 803:Generated_Source\PSoC5/CAN.c ****             }
 804:Generated_Source\PSoC5/CAN.c ****         }
 805:Generated_Source\PSoC5/CAN.c ****         else    /* Automatic restart */
 806:Generated_Source\PSoC5/CAN.c ****         {
 807:Generated_Source\PSoC5/CAN.c ****             CAN_CFG_REG |= CAN_RESET_MASK;
 808:Generated_Source\PSoC5/CAN.c **** 
 809:Generated_Source\PSoC5/CAN.c ****             /* Verify that bit is set */
 810:Generated_Source\PSoC5/CAN.c ****             if ((CAN_CFG_REG & CAN_RESET_MASK) != 0u)
 811:Generated_Source\PSoC5/CAN.c ****             {
 812:Generated_Source\PSoC5/CAN.c ****                 result = CYRET_SUCCESS;
 813:Generated_Source\PSoC5/CAN.c ****             }
 814:Generated_Source\PSoC5/CAN.c ****         }
 815:Generated_Source\PSoC5/CAN.c ****     #endif /* CY_PSOC3 || CY_PSOC5 */
 816:Generated_Source\PSoC5/CAN.c **** 
 817:Generated_Source\PSoC5/CAN.c ****     return (result);
 818:Generated_Source\PSoC5/CAN.c **** }
 593              		.loc 1 818 0
 594 0034 7047     		bx	lr
 595              	.L64:
 596 0036 00BF     		.align	2
 597              	.L63:
 598 0038 14A00040 		.word	1073782804
 599              		.cfi_endproc
 600              	.LFE10:
 601              		.size	CAN_SetRestartType, .-CAN_SetRestartType
 602              		.section	.text.CAN_SetEdgeMode,"ax",%progbits
 603              		.align	2
 604              		.global	CAN_SetEdgeMode
 605              		.thumb
 606              		.thumb_func
 607              		.type	CAN_SetEdgeMode, %function
 608              	CAN_SetEdgeMode:
 609              	.LFB11:
 819:Generated_Source\PSoC5/CAN.c **** 
 820:Generated_Source\PSoC5/CAN.c **** 
 821:Generated_Source\PSoC5/CAN.c **** /*******************************************************************************
 822:Generated_Source\PSoC5/CAN.c **** * FUNCTION NAME:   CAN_SetEdgeMode
 823:Generated_Source\PSoC5/CAN.c **** ********************************************************************************
 824:Generated_Source\PSoC5/CAN.c **** *
 825:Generated_Source\PSoC5/CAN.c **** * Summary:
 826:Generated_Source\PSoC5/CAN.c **** *  This function sets Edge Mode. The modes are 'R' to 'D'(Recessive to Dominant)
 827:Generated_Source\PSoC5/CAN.c **** *  and Both edges are used.
 828:Generated_Source\PSoC5/CAN.c **** *
 829:Generated_Source\PSoC5/CAN.c **** * Parameters:
 830:Generated_Source\PSoC5/CAN.c **** *  edge: Edge Mode.
 831:Generated_Source\PSoC5/CAN.c **** *   Define                             Description
 832:Generated_Source\PSoC5/CAN.c **** *    CAN_EDGE_R_TO_D       The edge from R to D is used for
 833:Generated_Source\PSoC5/CAN.c **** *                                       synchronization
 834:Generated_Source\PSoC5/CAN.c **** *    CAN_BOTH_EDGES        Both edges are used
 835:Generated_Source\PSoC5/CAN.c **** *
ARM GAS  C:\Users\HENRYH~1\AppData\Local\Temp\ccMT0gCo.s 			page 27


 836:Generated_Source\PSoC5/CAN.c **** * Return:
 837:Generated_Source\PSoC5/CAN.c **** *  The indication whether the register is written and verified.
 838:Generated_Source\PSoC5/CAN.c **** *   Define                             Description
 839:Generated_Source\PSoC5/CAN.c **** *    CYRET_SUCCESS                      The function passed successfully
 840:Generated_Source\PSoC5/CAN.c **** *    CAN_FAIL              The function failed
 841:Generated_Source\PSoC5/CAN.c **** *
 842:Generated_Source\PSoC5/CAN.c **** *******************************************************************************/
 843:Generated_Source\PSoC5/CAN.c **** uint8 CAN_SetEdgeMode(uint8 edge) 
 844:Generated_Source\PSoC5/CAN.c **** {
 610              		.loc 1 844 0
 611              		.cfi_startproc
 612              		@ args = 0, pretend = 0, frame = 0
 613              		@ frame_needed = 0, uses_anonymous_args = 0
 614              		@ link register save eliminated.
 615              	.LVL73:
 845:Generated_Source\PSoC5/CAN.c ****     uint8 result = CAN_FAIL;
 846:Generated_Source\PSoC5/CAN.c **** 
 847:Generated_Source\PSoC5/CAN.c ****     #if (CY_PSOC3 || CY_PSOC5)
 848:Generated_Source\PSoC5/CAN.c ****         if (edge == CAN_EDGE_R_TO_D)
 616              		.loc 1 848 0
 617 0000 50B9     		cbnz	r0, .L66
 849:Generated_Source\PSoC5/CAN.c ****         {
 850:Generated_Source\PSoC5/CAN.c ****             /* Recessive to Dominant is used for synchronization */
 851:Generated_Source\PSoC5/CAN.c ****             CAN_CFG_REG.byte[0u] &= (uint8) (~CAN_EDGE_MODE_MASK);
 618              		.loc 1 851 0
 619 0002 0D4B     		ldr	r3, .L70
 620 0004 1A78     		ldrb	r2, [r3]	@ zero_extendqisi2
 621 0006 02F0FE02 		and	r2, r2, #254
 622 000a 1A70     		strb	r2, [r3]
 852:Generated_Source\PSoC5/CAN.c **** 
 853:Generated_Source\PSoC5/CAN.c ****             /* Verify that bit is cleared */
 854:Generated_Source\PSoC5/CAN.c ****             if ((CAN_CFG_REG.byte[0u] & CAN_EDGE_MODE_MASK) == 0u)
 623              		.loc 1 854 0
 624 000c 1B78     		ldrb	r3, [r3]	@ zero_extendqisi2
 625 000e 13F0010F 		tst	r3, #1
 626 0012 0CD0     		beq	.L68
 845:Generated_Source\PSoC5/CAN.c **** 
 627              		.loc 1 845 0
 628 0014 0120     		movs	r0, #1
 629              	.LVL74:
 630 0016 7047     		bx	lr
 631              	.LVL75:
 632              	.L66:
 855:Generated_Source\PSoC5/CAN.c ****             {
 856:Generated_Source\PSoC5/CAN.c ****                 result = CYRET_SUCCESS;
 857:Generated_Source\PSoC5/CAN.c ****             }
 858:Generated_Source\PSoC5/CAN.c ****         }
 859:Generated_Source\PSoC5/CAN.c ****         else
 860:Generated_Source\PSoC5/CAN.c ****         {
 861:Generated_Source\PSoC5/CAN.c ****             /* Both edges to be used */
 862:Generated_Source\PSoC5/CAN.c ****             CAN_CFG_REG.byte[0u] |= CAN_EDGE_MODE_MASK;
 633              		.loc 1 862 0
 634 0018 074B     		ldr	r3, .L70
 635 001a 1A78     		ldrb	r2, [r3]	@ zero_extendqisi2
 636 001c 42F00102 		orr	r2, r2, #1
 637 0020 1A70     		strb	r2, [r3]
 863:Generated_Source\PSoC5/CAN.c **** 
ARM GAS  C:\Users\HENRYH~1\AppData\Local\Temp\ccMT0gCo.s 			page 28


 864:Generated_Source\PSoC5/CAN.c ****             /* Verify that bit is set */
 865:Generated_Source\PSoC5/CAN.c ****             if ((CAN_CFG_REG.byte[0u] & CAN_EDGE_MODE_MASK) != 0u)
 638              		.loc 1 865 0
 639 0022 1B78     		ldrb	r3, [r3]	@ zero_extendqisi2
 640 0024 13F0010F 		tst	r3, #1
 641 0028 03D1     		bne	.L69
 845:Generated_Source\PSoC5/CAN.c **** 
 642              		.loc 1 845 0
 643 002a 0120     		movs	r0, #1
 644              	.LVL76:
 645 002c 7047     		bx	lr
 646              	.LVL77:
 647              	.L68:
 856:Generated_Source\PSoC5/CAN.c ****             }
 648              		.loc 1 856 0
 649 002e 0020     		movs	r0, #0
 650              	.LVL78:
 651 0030 7047     		bx	lr
 652              	.LVL79:
 653              	.L69:
 866:Generated_Source\PSoC5/CAN.c ****             {
 867:Generated_Source\PSoC5/CAN.c ****                 result = CYRET_SUCCESS;
 654              		.loc 1 867 0
 655 0032 0020     		movs	r0, #0
 656              	.LVL80:
 868:Generated_Source\PSoC5/CAN.c ****             }
 869:Generated_Source\PSoC5/CAN.c ****         }
 870:Generated_Source\PSoC5/CAN.c ****     #else  /* CY_PSOC4 */
 871:Generated_Source\PSoC5/CAN.c ****         if (edge == CAN_EDGE_R_TO_D)
 872:Generated_Source\PSoC5/CAN.c ****         {
 873:Generated_Source\PSoC5/CAN.c ****             /* Recessive to Dominant is used for synchronization */
 874:Generated_Source\PSoC5/CAN.c ****             CAN_CFG_REG &= (uint32) (~((uint32) CAN_EDGE_MODE_MASK));
 875:Generated_Source\PSoC5/CAN.c **** 
 876:Generated_Source\PSoC5/CAN.c ****             /* Verify that bit is cleared */
 877:Generated_Source\PSoC5/CAN.c ****             if ((CAN_CFG_REG & CAN_EDGE_MODE_MASK) == 0u)
 878:Generated_Source\PSoC5/CAN.c ****             {
 879:Generated_Source\PSoC5/CAN.c ****                 result = CYRET_SUCCESS;
 880:Generated_Source\PSoC5/CAN.c ****             }
 881:Generated_Source\PSoC5/CAN.c ****         }
 882:Generated_Source\PSoC5/CAN.c ****         else
 883:Generated_Source\PSoC5/CAN.c ****         {
 884:Generated_Source\PSoC5/CAN.c ****             /* Both edges to be used */
 885:Generated_Source\PSoC5/CAN.c ****             CAN_CFG_REG |= CAN_EDGE_MODE_MASK;
 886:Generated_Source\PSoC5/CAN.c **** 
 887:Generated_Source\PSoC5/CAN.c ****             /* Verify that bit is set */
 888:Generated_Source\PSoC5/CAN.c ****             if ((CAN_CFG_REG & CAN_EDGE_MODE_MASK) != 0u)
 889:Generated_Source\PSoC5/CAN.c ****             {
 890:Generated_Source\PSoC5/CAN.c ****                 result = CYRET_SUCCESS;
 891:Generated_Source\PSoC5/CAN.c ****             }
 892:Generated_Source\PSoC5/CAN.c ****         }
 893:Generated_Source\PSoC5/CAN.c ****     #endif /* CY_PSOC3 || CY_PSOC5 */
 894:Generated_Source\PSoC5/CAN.c **** 
 895:Generated_Source\PSoC5/CAN.c ****     return (result);
 896:Generated_Source\PSoC5/CAN.c **** }
 657              		.loc 1 896 0
 658 0034 7047     		bx	lr
 659              	.L71:
ARM GAS  C:\Users\HENRYH~1\AppData\Local\Temp\ccMT0gCo.s 			page 29


 660 0036 00BF     		.align	2
 661              	.L70:
 662 0038 14A00040 		.word	1073782804
 663              		.cfi_endproc
 664              	.LFE11:
 665              		.size	CAN_SetEdgeMode, .-CAN_SetEdgeMode
 666              		.section	.text.CAN_SetOpMode,"ax",%progbits
 667              		.align	2
 668              		.global	CAN_SetOpMode
 669              		.thumb
 670              		.thumb_func
 671              		.type	CAN_SetOpMode, %function
 672              	CAN_SetOpMode:
 673              	.LFB12:
 897:Generated_Source\PSoC5/CAN.c **** 
 898:Generated_Source\PSoC5/CAN.c **** 
 899:Generated_Source\PSoC5/CAN.c **** /*******************************************************************************
 900:Generated_Source\PSoC5/CAN.c **** * FUNCTION NAME:   CAN_SetOpMode
 901:Generated_Source\PSoC5/CAN.c **** ********************************************************************************
 902:Generated_Source\PSoC5/CAN.c **** *
 903:Generated_Source\PSoC5/CAN.c **** * Summary:
 904:Generated_Source\PSoC5/CAN.c **** *  This function sets Operation Mode.
 905:Generated_Source\PSoC5/CAN.c **** *
 906:Generated_Source\PSoC5/CAN.c **** * Parameters:
 907:Generated_Source\PSoC5/CAN.c **** *  opMode: Operation Mode value.
 908:Generated_Source\PSoC5/CAN.c **** *   Define                              Description
 909:Generated_Source\PSoC5/CAN.c **** *    CAN_STOP_MODE          The CAN controller is in the Stop mode
 910:Generated_Source\PSoC5/CAN.c **** *    CAN_ACTIVE_RUN_MODE    The CAN controller is in the Active
 911:Generated_Source\PSoC5/CAN.c **** *                                        mode
 912:Generated_Source\PSoC5/CAN.c **** *    CAN_LISTEN_ONLY_MODE   The CAN controller is in the Listen
 913:Generated_Source\PSoC5/CAN.c **** *                                        Only mode: The output is held at the
 914:Generated_Source\PSoC5/CAN.c **** *                                        'R' level.
 915:Generated_Source\PSoC5/CAN.c **** *    CAN_INTERNAL_LOOP_BACK The CAN controller is in the Internal
 916:Generated_Source\PSoC5/CAN.c **** *                                        Loopback mode. This mode is used for
 917:Generated_Source\PSoC5/CAN.c **** *                                        the testing purpose and the transmitted
 918:Generated_Source\PSoC5/CAN.c **** *                                        transactions are internally routed
 919:Generated_Source\PSoC5/CAN.c **** *                                        back to the receiver logic and
 920:Generated_Source\PSoC5/CAN.c **** *                                        processed by the controller in this
 921:Generated_Source\PSoC5/CAN.c **** *                                        mode. Not available for PSoC3/5.
 922:Generated_Source\PSoC5/CAN.c **** *    CAN_EXTERNAL_LOOP_BACK This mode is used for the testing
 923:Generated_Source\PSoC5/CAN.c **** *                                        purpose by connecting Tx and Rx lines
 924:Generated_Source\PSoC5/CAN.c **** *                                        externally. The transmitted messages
 925:Generated_Source\PSoC5/CAN.c **** *                                        are received back and processed by the
 926:Generated_Source\PSoC5/CAN.c **** *                                        CAN controller in this mode.
 927:Generated_Source\PSoC5/CAN.c **** *                                        Not available for PSoC3/5.
 928:Generated_Source\PSoC5/CAN.c **** * Return:
 929:Generated_Source\PSoC5/CAN.c **** *  The indication whether the register is written and verified.
 930:Generated_Source\PSoC5/CAN.c **** *   Define                             Description
 931:Generated_Source\PSoC5/CAN.c **** *    CYRET_SUCCESS                      The function passed successfully
 932:Generated_Source\PSoC5/CAN.c **** *    CAN_FAIL              The function failed
 933:Generated_Source\PSoC5/CAN.c **** *
 934:Generated_Source\PSoC5/CAN.c **** * Side Effects:
 935:Generated_Source\PSoC5/CAN.c **** *  For PSoC 4 device family the function re-initializes the CAN registers.
 936:Generated_Source\PSoC5/CAN.c **** *
 937:Generated_Source\PSoC5/CAN.c **** *******************************************************************************/
 938:Generated_Source\PSoC5/CAN.c **** uint8 CAN_SetOpMode(uint8 opMode) 
 939:Generated_Source\PSoC5/CAN.c **** {
ARM GAS  C:\Users\HENRYH~1\AppData\Local\Temp\ccMT0gCo.s 			page 30


 674              		.loc 1 939 0
 675              		.cfi_startproc
 676              		@ args = 0, pretend = 0, frame = 0
 677              		@ frame_needed = 0, uses_anonymous_args = 0
 678              		@ link register save eliminated.
 679              	.LVL81:
 680 0000 10B4     		push	{r4}
 681              		.cfi_def_cfa_offset 4
 682              		.cfi_offset 4, -4
 683              	.LVL82:
 940:Generated_Source\PSoC5/CAN.c ****     #if (CY_PSOC3 || CY_PSOC5)
 941:Generated_Source\PSoC5/CAN.c ****         uint32 timeout;
 942:Generated_Source\PSoC5/CAN.c ****     #endif /* CY_PSOC3 || CY_PSOC5 */
 943:Generated_Source\PSoC5/CAN.c ****     uint8 result = CAN_FAIL;
 944:Generated_Source\PSoC5/CAN.c ****     uint8 runState = CAN_STOP_MODE;
 945:Generated_Source\PSoC5/CAN.c **** 
 946:Generated_Source\PSoC5/CAN.c ****     #if (CY_PSOC3 || CY_PSOC5)
 947:Generated_Source\PSoC5/CAN.c ****         if (((CAN_CMD_REG.byte[0u] & CAN_ACTIVE_RUN_MODE) != 0u) ||
 684              		.loc 1 947 0
 685 0002 1C4B     		ldr	r3, .L88
 686 0004 1B78     		ldrb	r3, [r3]	@ zero_extendqisi2
 687 0006 13F0010F 		tst	r3, #1
 688 000a 03D1     		bne	.L83
 689              		.loc 1 947 0 is_stmt 0 discriminator 1
 690 000c 0128     		cmp	r0, #1
 691 000e 03D0     		beq	.L84
 944:Generated_Source\PSoC5/CAN.c **** 
 692              		.loc 1 944 0 is_stmt 1
 693 0010 0024     		movs	r4, #0
 694 0012 02E0     		b	.L73
 695              	.L83:
 948:Generated_Source\PSoC5/CAN.c ****             (opMode == CAN_ACTIVE_RUN_MODE))
 949:Generated_Source\PSoC5/CAN.c ****         {
 950:Generated_Source\PSoC5/CAN.c ****             runState = CAN_ACTIVE_RUN_MODE;
 696              		.loc 1 950 0
 697 0014 0124     		movs	r4, #1
 698 0016 00E0     		b	.L73
 699              	.L84:
 700 0018 0124     		movs	r4, #1
 701              	.L73:
 702              	.LVL83:
 951:Generated_Source\PSoC5/CAN.c ****         }
 952:Generated_Source\PSoC5/CAN.c **** 
 953:Generated_Source\PSoC5/CAN.c ****         /* Set CAN to the Stop Mode */
 954:Generated_Source\PSoC5/CAN.c ****         CAN_CMD_REG.byte[0u] = CAN_STOP_MODE;
 703              		.loc 1 954 0
 704 001a 0022     		movs	r2, #0
 705 001c 154B     		ldr	r3, .L88
 706 001e 1A70     		strb	r2, [r3]
 707              	.LVL84:
 955:Generated_Source\PSoC5/CAN.c **** 
 956:Generated_Source\PSoC5/CAN.c ****         /* Timeout for CAN state machine to switch mode to Stop */
 957:Generated_Source\PSoC5/CAN.c ****         for (timeout = CAN_MODE_STATE_STOP_TIMEOUT;
 708              		.loc 1 957 0
 709 0020 4FF47063 		mov	r3, #3840
 710 0024 00E0     		b	.L74
 711              	.LVL85:
ARM GAS  C:\Users\HENRYH~1\AppData\Local\Temp\ccMT0gCo.s 			page 31


 712              	.L76:
 958:Generated_Source\PSoC5/CAN.c ****             (timeout != 0u) && ((CAN_CMD_REG.byte[0u] & CAN_ACTIVE_RUN_MODE) != 0u);
 959:Generated_Source\PSoC5/CAN.c ****              timeout--)
 713              		.loc 1 959 0
 714 0026 013B     		subs	r3, r3, #1
 715              	.LVL86:
 716              	.L74:
 957:Generated_Source\PSoC5/CAN.c ****             (timeout != 0u) && ((CAN_CMD_REG.byte[0u] & CAN_ACTIVE_RUN_MODE) != 0u);
 717              		.loc 1 957 0 discriminator 1
 718 0028 23B1     		cbz	r3, .L75
 958:Generated_Source\PSoC5/CAN.c ****             (timeout != 0u) && ((CAN_CMD_REG.byte[0u] & CAN_ACTIVE_RUN_MODE) != 0u);
 719              		.loc 1 958 0
 720 002a 124A     		ldr	r2, .L88
 721 002c 1278     		ldrb	r2, [r2]	@ zero_extendqisi2
 722 002e 12F0010F 		tst	r2, #1
 723 0032 F8D1     		bne	.L76
 724              	.L75:
 960:Generated_Source\PSoC5/CAN.c ****         {
 961:Generated_Source\PSoC5/CAN.c ****         }
 962:Generated_Source\PSoC5/CAN.c **** 
 963:Generated_Source\PSoC5/CAN.c ****         if (timeout != 0u)
 725              		.loc 1 963 0
 726 0034 0BB9     		cbnz	r3, .L85
 943:Generated_Source\PSoC5/CAN.c ****     uint8 runState = CAN_STOP_MODE;
 727              		.loc 1 943 0
 728 0036 0121     		movs	r1, #1
 729 0038 00E0     		b	.L77
 730              	.L85:
 964:Generated_Source\PSoC5/CAN.c ****         {
 965:Generated_Source\PSoC5/CAN.c ****             result = CYRET_SUCCESS;
 731              		.loc 1 965 0
 732 003a 0021     		movs	r1, #0
 733              	.L77:
 734              	.LVL87:
 966:Generated_Source\PSoC5/CAN.c ****         }
 967:Generated_Source\PSoC5/CAN.c **** 
 968:Generated_Source\PSoC5/CAN.c ****         if ((result == CYRET_SUCCESS) && (opMode != CAN_STOP_MODE))
 735              		.loc 1 968 0
 736 003c B9B9     		cbnz	r1, .L78
 737              		.loc 1 968 0 is_stmt 0 discriminator 1
 738 003e B0B1     		cbz	r0, .L78
 969:Generated_Source\PSoC5/CAN.c ****         {
 970:Generated_Source\PSoC5/CAN.c ****             if (opMode == CAN_LISTEN_ONLY_MODE)
 739              		.loc 1 970 0 is_stmt 1
 740 0040 0228     		cmp	r0, #2
 741 0042 02D1     		bne	.L79
 971:Generated_Source\PSoC5/CAN.c ****             {
 972:Generated_Source\PSoC5/CAN.c ****                 CAN_CMD_REG.byte[0u] = CAN_LISTEN_ONLY_MODE;
 742              		.loc 1 972 0
 743 0044 0222     		movs	r2, #2
 744 0046 0B4B     		ldr	r3, .L88
 745              	.LVL88:
 746 0048 1A70     		strb	r2, [r3]
 747              	.L79:
 973:Generated_Source\PSoC5/CAN.c ****             }
 974:Generated_Source\PSoC5/CAN.c **** 
 975:Generated_Source\PSoC5/CAN.c ****             if (runState == CAN_ACTIVE_RUN_MODE)
ARM GAS  C:\Users\HENRYH~1\AppData\Local\Temp\ccMT0gCo.s 			page 32


 748              		.loc 1 975 0
 749 004a 84B1     		cbz	r4, .L78
 976:Generated_Source\PSoC5/CAN.c ****             {
 977:Generated_Source\PSoC5/CAN.c ****                 CAN_CMD_REG.byte[0u] |= CAN_ACTIVE_RUN_MODE;
 750              		.loc 1 977 0
 751 004c 094A     		ldr	r2, .L88
 752 004e 1378     		ldrb	r3, [r2]	@ zero_extendqisi2
 753 0050 43F00103 		orr	r3, r3, #1
 754 0054 1370     		strb	r3, [r2]
 755              	.LVL89:
 978:Generated_Source\PSoC5/CAN.c **** 
 979:Generated_Source\PSoC5/CAN.c ****                 /* Timeout for CAN state machine to switch mode to Run */
 980:Generated_Source\PSoC5/CAN.c ****                 for (timeout = CAN_MODE_STATE_RUN_TIMEOUT;
 756              		.loc 1 980 0
 757 0056 4FF49073 		mov	r3, #288
 758 005a 00E0     		b	.L80
 759              	.LVL90:
 760              	.L82:
 981:Generated_Source\PSoC5/CAN.c ****                     (timeout != 0u) && ((CAN_CMD_REG.byte[0u] & CAN_MODE_MASK) == 0u);
 982:Generated_Source\PSoC5/CAN.c ****                      timeout--)
 761              		.loc 1 982 0
 762 005c 013B     		subs	r3, r3, #1
 763              	.LVL91:
 764              	.L80:
 980:Generated_Source\PSoC5/CAN.c ****                     (timeout != 0u) && ((CAN_CMD_REG.byte[0u] & CAN_MODE_MASK) == 0u);
 765              		.loc 1 980 0 discriminator 1
 766 005e 23B1     		cbz	r3, .L81
 981:Generated_Source\PSoC5/CAN.c ****                     (timeout != 0u) && ((CAN_CMD_REG.byte[0u] & CAN_MODE_MASK) == 0u);
 767              		.loc 1 981 0
 768 0060 044A     		ldr	r2, .L88
 769 0062 1278     		ldrb	r2, [r2]	@ zero_extendqisi2
 770 0064 12F0010F 		tst	r2, #1
 771 0068 F8D0     		beq	.L82
 772              	.L81:
 983:Generated_Source\PSoC5/CAN.c ****                 {
 984:Generated_Source\PSoC5/CAN.c ****                 }
 985:Generated_Source\PSoC5/CAN.c **** 
 986:Generated_Source\PSoC5/CAN.c ****                 if (timeout == 0u)
 773              		.loc 1 986 0
 774 006a 03B9     		cbnz	r3, .L78
 987:Generated_Source\PSoC5/CAN.c ****                 {
 988:Generated_Source\PSoC5/CAN.c ****                     result = CAN_FAIL;
 775              		.loc 1 988 0
 776 006c 0121     		movs	r1, #1
 777              	.LVL92:
 778              	.L78:
 989:Generated_Source\PSoC5/CAN.c ****                 }
 990:Generated_Source\PSoC5/CAN.c ****             }
 991:Generated_Source\PSoC5/CAN.c ****         }
 992:Generated_Source\PSoC5/CAN.c ****     #else  /* CY_PSOC4 */
 993:Generated_Source\PSoC5/CAN.c ****         if (((CAN_CMD_REG & CAN_MODE_MASK) != 0u) ||
 994:Generated_Source\PSoC5/CAN.c ****             (opMode == CAN_ACTIVE_RUN_MODE))
 995:Generated_Source\PSoC5/CAN.c ****         {
 996:Generated_Source\PSoC5/CAN.c ****             runState = CAN_ACTIVE_RUN_MODE;
 997:Generated_Source\PSoC5/CAN.c ****         }
 998:Generated_Source\PSoC5/CAN.c **** 
 999:Generated_Source\PSoC5/CAN.c ****         /* Sets CAN Component into the Stop mode */
ARM GAS  C:\Users\HENRYH~1\AppData\Local\Temp\ccMT0gCo.s 			page 33


1000:Generated_Source\PSoC5/CAN.c ****         if (CAN_Stop() == CYRET_SUCCESS)
1001:Generated_Source\PSoC5/CAN.c ****         {
1002:Generated_Source\PSoC5/CAN.c ****             /* Disable CAN IP Block to reset configuration before sets Operation Mode */
1003:Generated_Source\PSoC5/CAN.c ****             CAN_CNTL_REG = (uint32) (~CAN_IP_ENABLE);
1004:Generated_Source\PSoC5/CAN.c **** 
1005:Generated_Source\PSoC5/CAN.c ****             /* Enable CAN IP Block */
1006:Generated_Source\PSoC5/CAN.c ****             CAN_CNTL_REG = CAN_IP_ENABLE;
1007:Generated_Source\PSoC5/CAN.c **** 
1008:Generated_Source\PSoC5/CAN.c ****             result = CAN_Init();
1009:Generated_Source\PSoC5/CAN.c **** 
1010:Generated_Source\PSoC5/CAN.c ****             if ((result == CYRET_SUCCESS) && (opMode != CAN_STOP_MODE))
1011:Generated_Source\PSoC5/CAN.c ****             {
1012:Generated_Source\PSoC5/CAN.c ****                 if (opMode != CAN_ACTIVE_RUN_MODE)
1013:Generated_Source\PSoC5/CAN.c ****                 {
1014:Generated_Source\PSoC5/CAN.c ****                     /* Set CAN Operation Mode */
1015:Generated_Source\PSoC5/CAN.c ****                     CAN_CMD_REG |= opMode;
1016:Generated_Source\PSoC5/CAN.c ****                 }
1017:Generated_Source\PSoC5/CAN.c **** 
1018:Generated_Source\PSoC5/CAN.c ****                 if (runState == CAN_ACTIVE_RUN_MODE)
1019:Generated_Source\PSoC5/CAN.c ****                 {
1020:Generated_Source\PSoC5/CAN.c ****                     /* Enable component's operation */
1021:Generated_Source\PSoC5/CAN.c ****                     result = CAN_Enable();
1022:Generated_Source\PSoC5/CAN.c ****                 }
1023:Generated_Source\PSoC5/CAN.c ****             }
1024:Generated_Source\PSoC5/CAN.c ****         }
1025:Generated_Source\PSoC5/CAN.c ****     #endif /* CY_PSOC3 || CY_PSOC5 */
1026:Generated_Source\PSoC5/CAN.c **** 
1027:Generated_Source\PSoC5/CAN.c ****     return (result);
1028:Generated_Source\PSoC5/CAN.c **** }
 779              		.loc 1 1028 0
 780 006e 0846     		mov	r0, r1
 781              	.LVL93:
 782 0070 10BC     		pop	{r4}
 783              		.cfi_restore 4
 784              		.cfi_def_cfa_offset 0
 785              	.LVL94:
 786 0072 7047     		bx	lr
 787              	.L89:
 788              		.align	2
 789              	.L88:
 790 0074 10A00040 		.word	1073782800
 791              		.cfi_endproc
 792              	.LFE12:
 793              		.size	CAN_SetOpMode, .-CAN_SetOpMode
 794              		.section	.text.CAN_RXRegisterInit,"ax",%progbits
 795              		.align	2
 796              		.global	CAN_RXRegisterInit
 797              		.thumb
 798              		.thumb_func
 799              		.type	CAN_RXRegisterInit, %function
 800              	CAN_RXRegisterInit:
 801              	.LFB13:
1029:Generated_Source\PSoC5/CAN.c **** 
1030:Generated_Source\PSoC5/CAN.c **** 
1031:Generated_Source\PSoC5/CAN.c **** /*******************************************************************************
1032:Generated_Source\PSoC5/CAN.c **** * FUNCTION NAME:   CAN_RXRegisterInit
1033:Generated_Source\PSoC5/CAN.c **** ********************************************************************************
ARM GAS  C:\Users\HENRYH~1\AppData\Local\Temp\ccMT0gCo.s 			page 34


1034:Generated_Source\PSoC5/CAN.c **** *
1035:Generated_Source\PSoC5/CAN.c **** * Summary:
1036:Generated_Source\PSoC5/CAN.c **** *  This function writes only receive CAN registers.
1037:Generated_Source\PSoC5/CAN.c **** *
1038:Generated_Source\PSoC5/CAN.c **** * Parameters:
1039:Generated_Source\PSoC5/CAN.c **** *  regAddr: The pointer to a CAN receive register;
1040:Generated_Source\PSoC5/CAN.c **** *  config:  The value that will be written in the register.
1041:Generated_Source\PSoC5/CAN.c **** *
1042:Generated_Source\PSoC5/CAN.c **** * Return:
1043:Generated_Source\PSoC5/CAN.c **** *  The indication whether the register is written and verified.
1044:Generated_Source\PSoC5/CAN.c **** *   Define                             Description
1045:Generated_Source\PSoC5/CAN.c **** *    CYRET_SUCCESS                      The function passed successfully
1046:Generated_Source\PSoC5/CAN.c **** *    CAN_FAIL              The function failed
1047:Generated_Source\PSoC5/CAN.c **** *    CAN_OUT_OF_RANGE      The function parameter is out of range
1048:Generated_Source\PSoC5/CAN.c **** *
1049:Generated_Source\PSoC5/CAN.c **** *******************************************************************************/
1050:Generated_Source\PSoC5/CAN.c **** uint8 CAN_RXRegisterInit(reg32 *regAddr, uint32 config)
1051:Generated_Source\PSoC5/CAN.c ****                                       
1052:Generated_Source\PSoC5/CAN.c **** {
 802              		.loc 1 1052 0
 803              		.cfi_startproc
 804              		@ args = 0, pretend = 0, frame = 0
 805              		@ frame_needed = 0, uses_anonymous_args = 0
 806              		@ link register save eliminated.
 807              	.LVL95:
1053:Generated_Source\PSoC5/CAN.c ****     uint8 result = CAN_OUT_OF_RANGE;
1054:Generated_Source\PSoC5/CAN.c **** 
1055:Generated_Source\PSoC5/CAN.c ****     if ((((uint32) regAddr & CAN_REG_ADDR_MASK) >=
 808              		.loc 1 1055 0
 809 0000 83B2     		uxth	r3, r0
1056:Generated_Source\PSoC5/CAN.c ****         ((uint32) CAN_RX_FIRST_REGISTER_PTR & CAN_REG_ADDR_MASK)) &&
 810              		.loc 1 1056 0
 811 0002 A3F52043 		sub	r3, r3, #40960
 812 0006 A03B     		subs	r3, r3, #160
1055:Generated_Source\PSoC5/CAN.c ****         ((uint32) CAN_RX_FIRST_REGISTER_PTR & CAN_REG_ADDR_MASK)) &&
 813              		.loc 1 1055 0
 814 0008 B3F5FE7F 		cmp	r3, #508
 815 000c 1ED8     		bhi	.L93
 816              	.LVL96:
1057:Generated_Source\PSoC5/CAN.c ****         ((((uint32) regAddr & CAN_REG_ADDR_MASK)) <=
1058:Generated_Source\PSoC5/CAN.c ****         ((uint32) CAN_RX_LAST_REGISTER_PTR & CAN_REG_ADDR_MASK)))
1059:Generated_Source\PSoC5/CAN.c ****     {
1060:Generated_Source\PSoC5/CAN.c ****         result = CAN_FAIL;
1061:Generated_Source\PSoC5/CAN.c **** 
1062:Generated_Source\PSoC5/CAN.c ****         if ((((uint32) regAddr & CAN_REG_ADDR_MASK) % CAN_RX_CMD_REG_WIDTH) == 0u)
 817              		.loc 1 1062 0
 818 000e 10F01F0F 		tst	r0, #31
 819 0012 0FD1     		bne	.L92
1063:Generated_Source\PSoC5/CAN.c ****         {
1064:Generated_Source\PSoC5/CAN.c ****             config |= CAN_RX_WPN_SET;
 820              		.loc 1 1064 0
 821 0014 41F08011 		orr	r1, r1, #8388736
 822              	.LVL97:
1065:Generated_Source\PSoC5/CAN.c **** 
1066:Generated_Source\PSoC5/CAN.c ****     /* Disable isr */
1067:Generated_Source\PSoC5/CAN.c ****     CyIntDisable(CAN_ISR_NUMBER);
 823              		.loc 1 1067 0
ARM GAS  C:\Users\HENRYH~1\AppData\Local\Temp\ccMT0gCo.s 			page 35


 824 0018 4FF48033 		mov	r3, #65536
 825 001c 0E4A     		ldr	r2, .L96
 826 001e 1360     		str	r3, [r2]
1068:Generated_Source\PSoC5/CAN.c **** 
1069:Generated_Source\PSoC5/CAN.c ****             /* Write defined RX CMD registers */
1070:Generated_Source\PSoC5/CAN.c ****             CY_SET_REG32(regAddr, config);
 827              		.loc 1 1070 0
 828 0020 0160     		str	r1, [r0]
1071:Generated_Source\PSoC5/CAN.c **** 
1072:Generated_Source\PSoC5/CAN.c ****     /* Enable isr */
1073:Generated_Source\PSoC5/CAN.c ****     CyIntEnable(CAN_ISR_NUMBER);
 829              		.loc 1 1073 0
 830 0022 803A     		subs	r2, r2, #128
 831 0024 1360     		str	r3, [r2]
1074:Generated_Source\PSoC5/CAN.c **** 
1075:Generated_Source\PSoC5/CAN.c ****             /* Verify register */
1076:Generated_Source\PSoC5/CAN.c ****             if ((CY_GET_REG32(regAddr) & CAN_RX_READ_BACK_MASK) ==
 832              		.loc 1 1076 0
 833 0026 0368     		ldr	r3, [r0]
 834 0028 5940     		eors	r1, r1, r3
 835              	.LVL98:
 836 002a 11F07F1F 		tst	r1, #8323199
 837 002e 0FD0     		beq	.L94
1060:Generated_Source\PSoC5/CAN.c **** 
 838              		.loc 1 1060 0
 839 0030 0120     		movs	r0, #1
 840              	.LVL99:
 841 0032 7047     		bx	lr
 842              	.LVL100:
 843              	.L92:
1077:Generated_Source\PSoC5/CAN.c ****                 (config & CAN_RX_READ_BACK_MASK))
1078:Generated_Source\PSoC5/CAN.c ****             {
1079:Generated_Source\PSoC5/CAN.c ****                 result = CYRET_SUCCESS;
1080:Generated_Source\PSoC5/CAN.c ****             }
1081:Generated_Source\PSoC5/CAN.c ****         }
1082:Generated_Source\PSoC5/CAN.c ****         /* All registers except RX CMD*/
1083:Generated_Source\PSoC5/CAN.c ****         else
1084:Generated_Source\PSoC5/CAN.c ****         {
1085:Generated_Source\PSoC5/CAN.c ****     /* Disable isr */
1086:Generated_Source\PSoC5/CAN.c ****     CyIntDisable(CAN_ISR_NUMBER);
 844              		.loc 1 1086 0
 845 0034 4FF48033 		mov	r3, #65536
 846 0038 074A     		ldr	r2, .L96
 847 003a 1360     		str	r3, [r2]
1087:Generated_Source\PSoC5/CAN.c **** 
1088:Generated_Source\PSoC5/CAN.c ****             /* Write defined CAN receive register */
1089:Generated_Source\PSoC5/CAN.c ****             CY_SET_REG32(regAddr, config);
 848              		.loc 1 1089 0
 849 003c 0160     		str	r1, [r0]
1090:Generated_Source\PSoC5/CAN.c **** 
1091:Generated_Source\PSoC5/CAN.c ****     /* Enable isr */
1092:Generated_Source\PSoC5/CAN.c ****     CyIntEnable(CAN_ISR_NUMBER);
 850              		.loc 1 1092 0
 851 003e 803A     		subs	r2, r2, #128
 852 0040 1360     		str	r3, [r2]
1093:Generated_Source\PSoC5/CAN.c **** 
1094:Generated_Source\PSoC5/CAN.c ****             /* Verify register */
ARM GAS  C:\Users\HENRYH~1\AppData\Local\Temp\ccMT0gCo.s 			page 36


1095:Generated_Source\PSoC5/CAN.c ****             if (CY_GET_REG32(regAddr) == config)
 853              		.loc 1 1095 0
 854 0042 0368     		ldr	r3, [r0]
 855 0044 9942     		cmp	r1, r3
 856 0046 05D0     		beq	.L95
1060:Generated_Source\PSoC5/CAN.c **** 
 857              		.loc 1 1060 0
 858 0048 0120     		movs	r0, #1
 859              	.LVL101:
 860 004a 7047     		bx	lr
 861              	.LVL102:
 862              	.L93:
1053:Generated_Source\PSoC5/CAN.c **** 
 863              		.loc 1 1053 0
 864 004c 0220     		movs	r0, #2
 865              	.LVL103:
 866 004e 7047     		bx	lr
 867              	.LVL104:
 868              	.L94:
1079:Generated_Source\PSoC5/CAN.c ****             }
 869              		.loc 1 1079 0
 870 0050 0020     		movs	r0, #0
 871              	.LVL105:
 872 0052 7047     		bx	lr
 873              	.LVL106:
 874              	.L95:
1096:Generated_Source\PSoC5/CAN.c ****             {
1097:Generated_Source\PSoC5/CAN.c ****                 result = CYRET_SUCCESS;
 875              		.loc 1 1097 0
 876 0054 0020     		movs	r0, #0
 877              	.LVL107:
1098:Generated_Source\PSoC5/CAN.c ****             }
1099:Generated_Source\PSoC5/CAN.c ****         }
1100:Generated_Source\PSoC5/CAN.c ****     }
1101:Generated_Source\PSoC5/CAN.c **** 
1102:Generated_Source\PSoC5/CAN.c ****     return (result);
1103:Generated_Source\PSoC5/CAN.c **** }
 878              		.loc 1 1103 0
 879 0056 7047     		bx	lr
 880              	.L97:
 881              		.align	2
 882              	.L96:
 883 0058 80E100E0 		.word	-536813184
 884              		.cfi_endproc
 885              	.LFE13:
 886              		.size	CAN_RXRegisterInit, .-CAN_RXRegisterInit
 887              		.section	.text.CAN_SetIrqMask,"ax",%progbits
 888              		.align	2
 889              		.global	CAN_SetIrqMask
 890              		.thumb
 891              		.thumb_func
 892              		.type	CAN_SetIrqMask, %function
 893              	CAN_SetIrqMask:
 894              	.LFB14:
1104:Generated_Source\PSoC5/CAN.c **** 
1105:Generated_Source\PSoC5/CAN.c **** 
1106:Generated_Source\PSoC5/CAN.c **** /*******************************************************************************
ARM GAS  C:\Users\HENRYH~1\AppData\Local\Temp\ccMT0gCo.s 			page 37


1107:Generated_Source\PSoC5/CAN.c **** * FUNCTION NAME:   CAN_SetIrqMask
1108:Generated_Source\PSoC5/CAN.c **** ********************************************************************************
1109:Generated_Source\PSoC5/CAN.c **** *
1110:Generated_Source\PSoC5/CAN.c **** * Summary:
1111:Generated_Source\PSoC5/CAN.c **** *  This function sets to enable/disable particular interrupt sources. Interrupt
1112:Generated_Source\PSoC5/CAN.c **** *  Mask directly write to the CAN Interrupt Enable register. A particular
1113:Generated_Source\PSoC5/CAN.c **** *  interrupt source is enabled by setting its respective flag to 1.
1114:Generated_Source\PSoC5/CAN.c **** *
1115:Generated_Source\PSoC5/CAN.c **** * Parameters:
1116:Generated_Source\PSoC5/CAN.c **** *  mask: Interrupt enable/disable request. 1 bit per interrupt source.
1117:Generated_Source\PSoC5/CAN.c **** *   Define                                    Description
1118:Generated_Source\PSoC5/CAN.c **** *    CAN_GLOBAL_INT_ENABLE        Global Interrupt Enable Flag
1119:Generated_Source\PSoC5/CAN.c **** *    CAN_ARBITRATION_LOST_ENABLE  Arbitration Loss Interrupt Enable
1120:Generated_Source\PSoC5/CAN.c **** *    CAN_OVERLOAD_ERROR_ENABLE    Overload Interrupt Enable
1121:Generated_Source\PSoC5/CAN.c **** *    CAN_BIT_ERROR_ENABLE         Bit Error Interrupt Enable
1122:Generated_Source\PSoC5/CAN.c **** *    CAN_STUFF_ERROR_ENABLE       Stuff Error Interrupt Enable
1123:Generated_Source\PSoC5/CAN.c **** *    CAN_ACK_ERROR_ENABLE         Ack Error Interrupt Enable
1124:Generated_Source\PSoC5/CAN.c **** *    CAN_FORM_ERROR_ENABLE        Form Error Interrupt Enable
1125:Generated_Source\PSoC5/CAN.c **** *    CAN_CRC_ERROR_ENABLE         CRC Error Interrupt Enable
1126:Generated_Source\PSoC5/CAN.c **** *    CAN_BUS_OFF_ENABLE           Bus-Off State Interrupt Enable
1127:Generated_Source\PSoC5/CAN.c **** *    CAN_RX_MSG_LOST_ENABLE       Rx Msg Loss Interrupt Enable
1128:Generated_Source\PSoC5/CAN.c **** *    CAN_TX_MESSAGE_ENABLE        Tx Msg Sent Interrupt Enable
1129:Generated_Source\PSoC5/CAN.c **** *    CAN_RX_MESSAGE_ENABLE        Msg Received Interrupt Enable
1130:Generated_Source\PSoC5/CAN.c **** *    CAN_RTR_MESSAGE_ENABLE       RTR Auto-reply Interrupt Enable
1131:Generated_Source\PSoC5/CAN.c **** *    CAN_STUCK_AT_ZERO_ENABLE     Stuck at dominant error Interrupt
1132:Generated_Source\PSoC5/CAN.c **** *                                              Enable
1133:Generated_Source\PSoC5/CAN.c **** *    CAN_SST_FAILURE_ENABLE       SST failure Interrupt Enable
1134:Generated_Source\PSoC5/CAN.c **** *
1135:Generated_Source\PSoC5/CAN.c **** * Return:
1136:Generated_Source\PSoC5/CAN.c **** *  The indication whether the register is written and verified.
1137:Generated_Source\PSoC5/CAN.c **** *   Define                             Description
1138:Generated_Source\PSoC5/CAN.c **** *    CYRET_SUCCESS                      The function passed successfully
1139:Generated_Source\PSoC5/CAN.c **** *    CAN_FAIL              The function failed
1140:Generated_Source\PSoC5/CAN.c **** *
1141:Generated_Source\PSoC5/CAN.c **** *******************************************************************************/
1142:Generated_Source\PSoC5/CAN.c **** uint8 CAN_SetIrqMask(uint16 mask) 
1143:Generated_Source\PSoC5/CAN.c **** {
 895              		.loc 1 1143 0
 896              		.cfi_startproc
 897              		@ args = 0, pretend = 0, frame = 0
 898              		@ frame_needed = 0, uses_anonymous_args = 0
 899              		@ link register save eliminated.
 900              	.LVL108:
1144:Generated_Source\PSoC5/CAN.c ****     uint8 result = CAN_FAIL;
1145:Generated_Source\PSoC5/CAN.c **** 
1146:Generated_Source\PSoC5/CAN.c ****     #if (CY_PSOC3 || CY_PSOC5)
1147:Generated_Source\PSoC5/CAN.c ****         /* Write byte 0 and 1 of CAN_INT_EN_REG register */
1148:Generated_Source\PSoC5/CAN.c ****         CY_SET_REG16((reg16 *) (&CAN_INT_EN_REG), mask);
 901              		.loc 1 1148 0
 902 0000 044B     		ldr	r3, .L101
 903 0002 1880     		strh	r0, [r3]	@ movhi
1149:Generated_Source\PSoC5/CAN.c **** 
1150:Generated_Source\PSoC5/CAN.c ****         /* Verify CAN_INT_EN_REG register */
1151:Generated_Source\PSoC5/CAN.c ****         if (CY_GET_REG16((reg16 *) (&CAN_INT_EN_REG)) == mask)
 904              		.loc 1 1151 0
 905 0004 1B88     		ldrh	r3, [r3]
 906 0006 9BB2     		uxth	r3, r3
ARM GAS  C:\Users\HENRYH~1\AppData\Local\Temp\ccMT0gCo.s 			page 38


 907 0008 9842     		cmp	r0, r3
 908 000a 01D0     		beq	.L100
1144:Generated_Source\PSoC5/CAN.c ****     uint8 result = CAN_FAIL;
 909              		.loc 1 1144 0
 910 000c 0120     		movs	r0, #1
 911              	.LVL109:
 912 000e 7047     		bx	lr
 913              	.LVL110:
 914              	.L100:
1152:Generated_Source\PSoC5/CAN.c ****         {
1153:Generated_Source\PSoC5/CAN.c ****             result = CYRET_SUCCESS;
 915              		.loc 1 1153 0
 916 0010 0020     		movs	r0, #0
 917              	.LVL111:
1154:Generated_Source\PSoC5/CAN.c ****         }
1155:Generated_Source\PSoC5/CAN.c ****     #else  /* CY_PSOC4 */
1156:Generated_Source\PSoC5/CAN.c ****         /* Write byte 0 and 1 of CAN_INT_EN_REG register */
1157:Generated_Source\PSoC5/CAN.c ****         CAN_INT_EN_REG = mask;
1158:Generated_Source\PSoC5/CAN.c **** 
1159:Generated_Source\PSoC5/CAN.c ****         /* Verify CAN_INT_EN_REG register */
1160:Generated_Source\PSoC5/CAN.c ****         if ((CAN_INT_EN_REG & CAN_REG_ADDR_MASK) == mask)
1161:Generated_Source\PSoC5/CAN.c ****         {
1162:Generated_Source\PSoC5/CAN.c ****             result = CYRET_SUCCESS;
1163:Generated_Source\PSoC5/CAN.c ****         }
1164:Generated_Source\PSoC5/CAN.c ****     #endif /* CY_PSOC3 || CY_PSOC5 */
1165:Generated_Source\PSoC5/CAN.c **** 
1166:Generated_Source\PSoC5/CAN.c ****     return (result);
1167:Generated_Source\PSoC5/CAN.c **** }
 918              		.loc 1 1167 0
 919 0012 7047     		bx	lr
 920              	.L102:
 921              		.align	2
 922              	.L101:
 923 0014 04A00040 		.word	1073782788
 924              		.cfi_endproc
 925              	.LFE14:
 926              		.size	CAN_SetIrqMask, .-CAN_SetIrqMask
 927              		.section	.text.CAN_GetTXErrorFlag,"ax",%progbits
 928              		.align	2
 929              		.global	CAN_GetTXErrorFlag
 930              		.thumb
 931              		.thumb_func
 932              		.type	CAN_GetTXErrorFlag, %function
 933              	CAN_GetTXErrorFlag:
 934              	.LFB15:
1168:Generated_Source\PSoC5/CAN.c **** 
1169:Generated_Source\PSoC5/CAN.c **** 
1170:Generated_Source\PSoC5/CAN.c **** /*******************************************************************************
1171:Generated_Source\PSoC5/CAN.c **** * FUNCTION NAME:   CAN_GetTXErrorFlag
1172:Generated_Source\PSoC5/CAN.c **** ********************************************************************************
1173:Generated_Source\PSoC5/CAN.c **** *
1174:Generated_Source\PSoC5/CAN.c **** * Summary:
1175:Generated_Source\PSoC5/CAN.c **** *  This function returns the bit that indicates if the number of TX errors
1176:Generated_Source\PSoC5/CAN.c **** *  exceeds 0x60.
1177:Generated_Source\PSoC5/CAN.c **** *
1178:Generated_Source\PSoC5/CAN.c **** * Parameters:
1179:Generated_Source\PSoC5/CAN.c **** *  None.
ARM GAS  C:\Users\HENRYH~1\AppData\Local\Temp\ccMT0gCo.s 			page 39


1180:Generated_Source\PSoC5/CAN.c **** *
1181:Generated_Source\PSoC5/CAN.c **** * Return:
1182:Generated_Source\PSoC5/CAN.c **** *  The indication whether the number of TX errors exceeds 0x60.
1183:Generated_Source\PSoC5/CAN.c **** *
1184:Generated_Source\PSoC5/CAN.c **** *******************************************************************************/
1185:Generated_Source\PSoC5/CAN.c **** uint8 CAN_GetTXErrorFlag(void) 
1186:Generated_Source\PSoC5/CAN.c **** {
 935              		.loc 1 1186 0
 936              		.cfi_startproc
 937              		@ args = 0, pretend = 0, frame = 0
 938              		@ frame_needed = 0, uses_anonymous_args = 0
 939              		@ link register save eliminated.
1187:Generated_Source\PSoC5/CAN.c ****     #if (CY_PSOC3 || CY_PSOC5)
1188:Generated_Source\PSoC5/CAN.c ****         /* Get state of transmit error flag */
1189:Generated_Source\PSoC5/CAN.c ****         return (((CAN_ERR_SR_REG.byte[2u] & CAN_TX_ERROR_FLAG_MASK) ==
 940              		.loc 1 1189 0
 941 0000 044B     		ldr	r3, .L105
 942 0002 9B78     		ldrb	r3, [r3, #2]	@ zero_extendqisi2
 943 0004 03F00403 		and	r3, r3, #4
 944 0008 03F0FF00 		and	r0, r3, #255
 945 000c 03B1     		cbz	r3, .L104
 946 000e 0120     		movs	r0, #1
 947              	.L104:
1190:Generated_Source\PSoC5/CAN.c ****                   CAN_TX_ERROR_FLAG_MASK) ? 1u : 0u);
1191:Generated_Source\PSoC5/CAN.c ****     #else  /* CY_PSOC4 */
1192:Generated_Source\PSoC5/CAN.c ****         /* Get state of transmit error flag */
1193:Generated_Source\PSoC5/CAN.c ****         return (((CAN_ERR_SR_REG & CAN_TX_ERROR_FLAG_MASK) ==
1194:Generated_Source\PSoC5/CAN.c ****                   CAN_TX_ERROR_FLAG_MASK) ? 1u : 0u);
1195:Generated_Source\PSoC5/CAN.c ****     #endif /* CY_PSOC3 || CY_PSOC5 */
1196:Generated_Source\PSoC5/CAN.c **** 
1197:Generated_Source\PSoC5/CAN.c **** }
 948              		.loc 1 1197 0 discriminator 4
 949 0010 7047     		bx	lr
 950              	.L106:
 951 0012 00BF     		.align	2
 952              	.L105:
 953 0014 0CA00040 		.word	1073782796
 954              		.cfi_endproc
 955              	.LFE15:
 956              		.size	CAN_GetTXErrorFlag, .-CAN_GetTXErrorFlag
 957              		.section	.text.CAN_GetRXErrorFlag,"ax",%progbits
 958              		.align	2
 959              		.global	CAN_GetRXErrorFlag
 960              		.thumb
 961              		.thumb_func
 962              		.type	CAN_GetRXErrorFlag, %function
 963              	CAN_GetRXErrorFlag:
 964              	.LFB16:
1198:Generated_Source\PSoC5/CAN.c **** 
1199:Generated_Source\PSoC5/CAN.c **** 
1200:Generated_Source\PSoC5/CAN.c **** /*******************************************************************************
1201:Generated_Source\PSoC5/CAN.c **** * FUNCTION NAME:   CAN_GetRXErrorFlag
1202:Generated_Source\PSoC5/CAN.c **** ********************************************************************************
1203:Generated_Source\PSoC5/CAN.c **** *
1204:Generated_Source\PSoC5/CAN.c **** * Summary:
1205:Generated_Source\PSoC5/CAN.c **** *  This function returns the bit that indicates if the number of RX errors
1206:Generated_Source\PSoC5/CAN.c **** *  exceeds 0x60.
ARM GAS  C:\Users\HENRYH~1\AppData\Local\Temp\ccMT0gCo.s 			page 40


1207:Generated_Source\PSoC5/CAN.c **** *
1208:Generated_Source\PSoC5/CAN.c **** * Parameters:
1209:Generated_Source\PSoC5/CAN.c **** *  None.
1210:Generated_Source\PSoC5/CAN.c **** *
1211:Generated_Source\PSoC5/CAN.c **** * Return:
1212:Generated_Source\PSoC5/CAN.c **** *  The indication whether the number of TX errors exceeds 0x60.
1213:Generated_Source\PSoC5/CAN.c **** *
1214:Generated_Source\PSoC5/CAN.c **** *******************************************************************************/
1215:Generated_Source\PSoC5/CAN.c **** uint8 CAN_GetRXErrorFlag(void) 
1216:Generated_Source\PSoC5/CAN.c **** {
 965              		.loc 1 1216 0
 966              		.cfi_startproc
 967              		@ args = 0, pretend = 0, frame = 0
 968              		@ frame_needed = 0, uses_anonymous_args = 0
 969              		@ link register save eliminated.
1217:Generated_Source\PSoC5/CAN.c ****     #if (CY_PSOC3 || CY_PSOC5)
1218:Generated_Source\PSoC5/CAN.c ****         /* Get state of receive error flag */
1219:Generated_Source\PSoC5/CAN.c ****         return (((CAN_ERR_SR_REG.byte[2u] & CAN_RX_ERROR_FLAG_MASK) ==
 970              		.loc 1 1219 0
 971 0000 044B     		ldr	r3, .L109
 972 0002 9B78     		ldrb	r3, [r3, #2]	@ zero_extendqisi2
 973 0004 03F00803 		and	r3, r3, #8
 974 0008 03F0FF00 		and	r0, r3, #255
 975 000c 03B1     		cbz	r3, .L108
 976 000e 0120     		movs	r0, #1
 977              	.L108:
1220:Generated_Source\PSoC5/CAN.c ****                   CAN_RX_ERROR_FLAG_MASK) ? 1u : 0u);
1221:Generated_Source\PSoC5/CAN.c ****     #else  /* CY_PSOC4 */
1222:Generated_Source\PSoC5/CAN.c ****         /* Get state of receive error flag */
1223:Generated_Source\PSoC5/CAN.c ****         return (((CAN_ERR_SR_REG & CAN_RX_ERROR_FLAG_MASK) ==
1224:Generated_Source\PSoC5/CAN.c ****                   CAN_RX_ERROR_FLAG_MASK) ? 1u : 0u);
1225:Generated_Source\PSoC5/CAN.c ****     #endif /* CY_PSOC3 || CY_PSOC5 */
1226:Generated_Source\PSoC5/CAN.c **** 
1227:Generated_Source\PSoC5/CAN.c **** }
 978              		.loc 1 1227 0 discriminator 4
 979 0010 7047     		bx	lr
 980              	.L110:
 981 0012 00BF     		.align	2
 982              	.L109:
 983 0014 0CA00040 		.word	1073782796
 984              		.cfi_endproc
 985              	.LFE16:
 986              		.size	CAN_GetRXErrorFlag, .-CAN_GetRXErrorFlag
 987              		.section	.text.CAN_GetTXErrorCount,"ax",%progbits
 988              		.align	2
 989              		.global	CAN_GetTXErrorCount
 990              		.thumb
 991              		.thumb_func
 992              		.type	CAN_GetTXErrorCount, %function
 993              	CAN_GetTXErrorCount:
 994              	.LFB17:
1228:Generated_Source\PSoC5/CAN.c **** 
1229:Generated_Source\PSoC5/CAN.c **** 
1230:Generated_Source\PSoC5/CAN.c **** /*******************************************************************************
1231:Generated_Source\PSoC5/CAN.c **** * FUNCTION NAME:   CAN_GetTXErrorCount
1232:Generated_Source\PSoC5/CAN.c **** ********************************************************************************
1233:Generated_Source\PSoC5/CAN.c **** *
ARM GAS  C:\Users\HENRYH~1\AppData\Local\Temp\ccMT0gCo.s 			page 41


1234:Generated_Source\PSoC5/CAN.c **** * Summary:
1235:Generated_Source\PSoC5/CAN.c **** *  This function returns the number of Transmit Errors.
1236:Generated_Source\PSoC5/CAN.c **** *
1237:Generated_Source\PSoC5/CAN.c **** * Parameters:
1238:Generated_Source\PSoC5/CAN.c **** *  None.
1239:Generated_Source\PSoC5/CAN.c **** *
1240:Generated_Source\PSoC5/CAN.c **** * Return:
1241:Generated_Source\PSoC5/CAN.c **** *  The number of Transmit Errors.
1242:Generated_Source\PSoC5/CAN.c **** *
1243:Generated_Source\PSoC5/CAN.c **** *******************************************************************************/
1244:Generated_Source\PSoC5/CAN.c **** uint8 CAN_GetTXErrorCount(void) 
1245:Generated_Source\PSoC5/CAN.c **** {
 995              		.loc 1 1245 0
 996              		.cfi_startproc
 997              		@ args = 0, pretend = 0, frame = 0
 998              		@ frame_needed = 0, uses_anonymous_args = 0
 999              		@ link register save eliminated.
1246:Generated_Source\PSoC5/CAN.c ****     #if (CY_PSOC3 || CY_PSOC5)
1247:Generated_Source\PSoC5/CAN.c ****         /* Get state of transmit error count */
1248:Generated_Source\PSoC5/CAN.c ****         return (CAN_ERR_SR_REG.byte[0u]);    /* bits 7-0 */
 1000              		.loc 1 1248 0
 1001 0000 014B     		ldr	r3, .L112
 1002 0002 1878     		ldrb	r0, [r3]	@ zero_extendqisi2
1249:Generated_Source\PSoC5/CAN.c ****     #else  /* CY_PSOC4 */
1250:Generated_Source\PSoC5/CAN.c ****         /* Get state of transmit error count */
1251:Generated_Source\PSoC5/CAN.c ****         return ((uint8) CAN_ERR_SR_REG);    /* bits 7-0 */
1252:Generated_Source\PSoC5/CAN.c ****     #endif /* CY_PSOC3 || CY_PSOC5 */
1253:Generated_Source\PSoC5/CAN.c **** }
 1003              		.loc 1 1253 0
 1004 0004 7047     		bx	lr
 1005              	.L113:
 1006 0006 00BF     		.align	2
 1007              	.L112:
 1008 0008 0CA00040 		.word	1073782796
 1009              		.cfi_endproc
 1010              	.LFE17:
 1011              		.size	CAN_GetTXErrorCount, .-CAN_GetTXErrorCount
 1012              		.section	.text.CAN_GetRXErrorCount,"ax",%progbits
 1013              		.align	2
 1014              		.global	CAN_GetRXErrorCount
 1015              		.thumb
 1016              		.thumb_func
 1017              		.type	CAN_GetRXErrorCount, %function
 1018              	CAN_GetRXErrorCount:
 1019              	.LFB18:
1254:Generated_Source\PSoC5/CAN.c **** 
1255:Generated_Source\PSoC5/CAN.c **** 
1256:Generated_Source\PSoC5/CAN.c **** /*******************************************************************************
1257:Generated_Source\PSoC5/CAN.c **** * FUNCTION NAME:   CAN_GetRXErrorCount
1258:Generated_Source\PSoC5/CAN.c **** ********************************************************************************
1259:Generated_Source\PSoC5/CAN.c **** *
1260:Generated_Source\PSoC5/CAN.c **** * Summary:
1261:Generated_Source\PSoC5/CAN.c **** *  This function returns the number of Receive Errors.
1262:Generated_Source\PSoC5/CAN.c **** *
1263:Generated_Source\PSoC5/CAN.c **** * Parameters:
1264:Generated_Source\PSoC5/CAN.c **** *  None.
1265:Generated_Source\PSoC5/CAN.c **** *
ARM GAS  C:\Users\HENRYH~1\AppData\Local\Temp\ccMT0gCo.s 			page 42


1266:Generated_Source\PSoC5/CAN.c **** * Return:
1267:Generated_Source\PSoC5/CAN.c **** *  The number of Receive Errors.
1268:Generated_Source\PSoC5/CAN.c **** *
1269:Generated_Source\PSoC5/CAN.c **** *******************************************************************************/
1270:Generated_Source\PSoC5/CAN.c **** uint8 CAN_GetRXErrorCount(void) 
1271:Generated_Source\PSoC5/CAN.c **** {
 1020              		.loc 1 1271 0
 1021              		.cfi_startproc
 1022              		@ args = 0, pretend = 0, frame = 0
 1023              		@ frame_needed = 0, uses_anonymous_args = 0
 1024              		@ link register save eliminated.
1272:Generated_Source\PSoC5/CAN.c ****     #if (CY_PSOC3 || CY_PSOC5)
1273:Generated_Source\PSoC5/CAN.c ****         /* Get state of receive error count */
1274:Generated_Source\PSoC5/CAN.c ****         return (CAN_ERR_SR_REG.byte[1u]);    /* bits 15-8 */
 1025              		.loc 1 1274 0
 1026 0000 014B     		ldr	r3, .L115
 1027 0002 5878     		ldrb	r0, [r3, #1]	@ zero_extendqisi2
1275:Generated_Source\PSoC5/CAN.c ****     #else  /* CY_PSOC4 */
1276:Generated_Source\PSoC5/CAN.c ****         /* Get state of receive error count (bits 15-8) */
1277:Generated_Source\PSoC5/CAN.c ****         return ((uint8) (CAN_ERR_SR_REG >> CAN_ONE_BYTE_OFFSET));
1278:Generated_Source\PSoC5/CAN.c ****     #endif /* CY_PSOC3 || CY_PSOC5 */
1279:Generated_Source\PSoC5/CAN.c **** 
1280:Generated_Source\PSoC5/CAN.c **** }
 1028              		.loc 1 1280 0
 1029 0004 7047     		bx	lr
 1030              	.L116:
 1031 0006 00BF     		.align	2
 1032              	.L115:
 1033 0008 0CA00040 		.word	1073782796
 1034              		.cfi_endproc
 1035              	.LFE18:
 1036              		.size	CAN_GetRXErrorCount, .-CAN_GetRXErrorCount
 1037              		.section	.text.CAN_GetErrorState,"ax",%progbits
 1038              		.align	2
 1039              		.global	CAN_GetErrorState
 1040              		.thumb
 1041              		.thumb_func
 1042              		.type	CAN_GetErrorState, %function
 1043              	CAN_GetErrorState:
 1044              	.LFB19:
1281:Generated_Source\PSoC5/CAN.c **** 
1282:Generated_Source\PSoC5/CAN.c **** 
1283:Generated_Source\PSoC5/CAN.c **** /*******************************************************************************
1284:Generated_Source\PSoC5/CAN.c **** * FUNCTION NAME:   CAN_GetErrorState
1285:Generated_Source\PSoC5/CAN.c **** ********************************************************************************
1286:Generated_Source\PSoC5/CAN.c **** *
1287:Generated_Source\PSoC5/CAN.c **** * Summary:
1288:Generated_Source\PSoC5/CAN.c **** *  This function returns the error status of CAN Component.
1289:Generated_Source\PSoC5/CAN.c **** *
1290:Generated_Source\PSoC5/CAN.c **** * Parameters:
1291:Generated_Source\PSoC5/CAN.c **** *  None.
1292:Generated_Source\PSoC5/CAN.c **** *
1293:Generated_Source\PSoC5/CAN.c **** * Return:
1294:Generated_Source\PSoC5/CAN.c **** *  The error status.
1295:Generated_Source\PSoC5/CAN.c **** *
1296:Generated_Source\PSoC5/CAN.c **** *******************************************************************************/
1297:Generated_Source\PSoC5/CAN.c **** uint8 CAN_GetErrorState(void) 
ARM GAS  C:\Users\HENRYH~1\AppData\Local\Temp\ccMT0gCo.s 			page 43


1298:Generated_Source\PSoC5/CAN.c **** {
 1045              		.loc 1 1298 0
 1046              		.cfi_startproc
 1047              		@ args = 0, pretend = 0, frame = 0
 1048              		@ frame_needed = 0, uses_anonymous_args = 0
 1049              		@ link register save eliminated.
1299:Generated_Source\PSoC5/CAN.c ****     #if (CY_PSOC3 || CY_PSOC5)
1300:Generated_Source\PSoC5/CAN.c ****         /* Get error state of receiver */
1301:Generated_Source\PSoC5/CAN.c ****         return (CAN_ERR_SR_REG.byte[2u] & CAN_ERROR_STATE_MASK);
 1050              		.loc 1 1301 0
 1051 0000 024B     		ldr	r3, .L118
 1052 0002 9878     		ldrb	r0, [r3, #2]	@ zero_extendqisi2
1302:Generated_Source\PSoC5/CAN.c ****     #else  /* CY_PSOC4 */
1303:Generated_Source\PSoC5/CAN.c ****         /* Get error state of receiver */
1304:Generated_Source\PSoC5/CAN.c ****         return ((uint8) ((CAN_ERR_SR_REG >> CAN_TWO_BYTE_OFFSET) &
1305:Generated_Source\PSoC5/CAN.c ****                 CAN_ERROR_STATE_MASK));
1306:Generated_Source\PSoC5/CAN.c ****     #endif /* CY_PSOC3 || CY_PSOC5 */
1307:Generated_Source\PSoC5/CAN.c **** }
 1053              		.loc 1 1307 0
 1054 0004 00F00300 		and	r0, r0, #3
 1055 0008 7047     		bx	lr
 1056              	.L119:
 1057 000a 00BF     		.align	2
 1058              	.L118:
 1059 000c 0CA00040 		.word	1073782796
 1060              		.cfi_endproc
 1061              	.LFE19:
 1062              		.size	CAN_GetErrorState, .-CAN_GetErrorState
 1063              		.section	.text.CAN_RxBufConfig,"ax",%progbits
 1064              		.align	2
 1065              		.global	CAN_RxBufConfig
 1066              		.thumb
 1067              		.thumb_func
 1068              		.type	CAN_RxBufConfig, %function
 1069              	CAN_RxBufConfig:
 1070              	.LFB20:
1308:Generated_Source\PSoC5/CAN.c **** 
1309:Generated_Source\PSoC5/CAN.c **** 
1310:Generated_Source\PSoC5/CAN.c **** /*******************************************************************************
1311:Generated_Source\PSoC5/CAN.c **** * FUNCTION NAME:   CAN_RxBufConfig
1312:Generated_Source\PSoC5/CAN.c **** ********************************************************************************
1313:Generated_Source\PSoC5/CAN.c **** *
1314:Generated_Source\PSoC5/CAN.c **** * Summary:
1315:Generated_Source\PSoC5/CAN.c **** *  This function configures all receive registers for a particular mailbox.
1316:Generated_Source\PSoC5/CAN.c **** *
1317:Generated_Source\PSoC5/CAN.c **** * Parameters:
1318:Generated_Source\PSoC5/CAN.c **** *  rxConfig: The pointer to a structure that contain all required values to
1319:Generated_Source\PSoC5/CAN.c **** *  configure all receive registers for a particular mailbox.
1320:Generated_Source\PSoC5/CAN.c **** *
1321:Generated_Source\PSoC5/CAN.c **** * Return:
1322:Generated_Source\PSoC5/CAN.c **** *  The indication if particular configuration has been accepted or rejected.
1323:Generated_Source\PSoC5/CAN.c **** *   Define                             Description
1324:Generated_Source\PSoC5/CAN.c **** *    CYRET_SUCCESS                      The function passed successfully
1325:Generated_Source\PSoC5/CAN.c **** *    CAN_FAIL              The function failed
1326:Generated_Source\PSoC5/CAN.c **** *
1327:Generated_Source\PSoC5/CAN.c **** *******************************************************************************/
1328:Generated_Source\PSoC5/CAN.c **** uint8 CAN_RxBufConfig(const CAN_RX_CFG *rxConfig)
ARM GAS  C:\Users\HENRYH~1\AppData\Local\Temp\ccMT0gCo.s 			page 44


1329:Generated_Source\PSoC5/CAN.c ****                                    
1330:Generated_Source\PSoC5/CAN.c **** {
 1071              		.loc 1 1330 0
 1072              		.cfi_startproc
 1073              		@ args = 0, pretend = 0, frame = 0
 1074              		@ frame_needed = 0, uses_anonymous_args = 0
 1075              		@ link register save eliminated.
 1076              	.LVL112:
1331:Generated_Source\PSoC5/CAN.c ****     uint8 result = CAN_FAIL;
1332:Generated_Source\PSoC5/CAN.c **** 
1333:Generated_Source\PSoC5/CAN.c ****     /* Write RX CMD Register */
1334:Generated_Source\PSoC5/CAN.c ****     CY_SET_REG32((reg32 *) (&CAN_RX[rxConfig->rxmailbox].rxcmd), (rxConfig->rxcmd |
 1077              		.loc 1 1334 0
 1078 0000 0378     		ldrb	r3, [r0]	@ zero_extendqisi2
 1079 0002 5B01     		lsls	r3, r3, #5
 1080 0004 214A     		ldr	r2, .L127
 1081 0006 4168     		ldr	r1, [r0, #4]
 1082 0008 41F08011 		orr	r1, r1, #8388736
 1083 000c 9950     		str	r1, [r3, r2]
1335:Generated_Source\PSoC5/CAN.c ****                  CAN_RX_WPN_SET));
1336:Generated_Source\PSoC5/CAN.c ****     if ((CY_GET_REG32((reg32 *) (&CAN_RX[rxConfig->rxmailbox].rxcmd)) &
 1084              		.loc 1 1336 0
 1085 000e 0378     		ldrb	r3, [r0]	@ zero_extendqisi2
 1086 0010 5B01     		lsls	r3, r3, #5
 1087 0012 9918     		adds	r1, r3, r2
 1088 0014 9A58     		ldr	r2, [r3, r2]
 1089 0016 02F07F12 		and	r2, r2, #8323199
1337:Generated_Source\PSoC5/CAN.c ****          CAN_RX_READ_BACK_MASK) == (rxConfig->rxcmd & CAN_RX_WPN_CLEAR))
 1090              		.loc 1 1337 0
 1091 001a 4368     		ldr	r3, [r0, #4]
 1092 001c 23F08013 		bic	r3, r3, #8388736
1336:Generated_Source\PSoC5/CAN.c ****          CAN_RX_READ_BACK_MASK) == (rxConfig->rxcmd & CAN_RX_WPN_CLEAR))
 1093              		.loc 1 1336 0
 1094 0020 9A42     		cmp	r2, r3
 1095 0022 28D1     		bne	.L122
1338:Generated_Source\PSoC5/CAN.c ****     {
1339:Generated_Source\PSoC5/CAN.c ****         /* Write RX AMR Register */
1340:Generated_Source\PSoC5/CAN.c ****         CY_SET_REG32((reg32 *) (&CAN_RX[rxConfig->rxmailbox].rxamr), rxConfig->rxamr);
 1096              		.loc 1 1340 0
 1097 0024 8368     		ldr	r3, [r0, #8]
 1098 0026 0B61     		str	r3, [r1, #16]
1341:Generated_Source\PSoC5/CAN.c ****         if (CY_GET_REG32((reg32 *) (&CAN_RX[rxConfig->rxmailbox].rxamr)) == rxConfig->rxamr)
 1099              		.loc 1 1341 0
 1100 0028 0278     		ldrb	r2, [r0]	@ zero_extendqisi2
 1101 002a 184B     		ldr	r3, .L127
 1102 002c 03EB4213 		add	r3, r3, r2, lsl #5
 1103 0030 1969     		ldr	r1, [r3, #16]
 1104 0032 8268     		ldr	r2, [r0, #8]
 1105 0034 9142     		cmp	r1, r2
 1106 0036 20D1     		bne	.L123
1342:Generated_Source\PSoC5/CAN.c ****         {
1343:Generated_Source\PSoC5/CAN.c ****             /* Write RX ACR Register */
1344:Generated_Source\PSoC5/CAN.c ****             CY_SET_REG32((reg32 *) (&CAN_RX[rxConfig->rxmailbox].rxacr), rxConfig->rxacr);
 1107              		.loc 1 1344 0
 1108 0038 C268     		ldr	r2, [r0, #12]
 1109 003a 5A61     		str	r2, [r3, #20]
1345:Generated_Source\PSoC5/CAN.c ****             if (CY_GET_REG32((reg32 *) (&CAN_RX[rxConfig->rxmailbox].rxacr)) == rxConfig->rxacr)
ARM GAS  C:\Users\HENRYH~1\AppData\Local\Temp\ccMT0gCo.s 			page 45


 1110              		.loc 1 1345 0
 1111 003c 0278     		ldrb	r2, [r0]	@ zero_extendqisi2
 1112 003e 134B     		ldr	r3, .L127
 1113 0040 03EB4213 		add	r3, r3, r2, lsl #5
 1114 0044 5969     		ldr	r1, [r3, #20]
 1115 0046 C268     		ldr	r2, [r0, #12]
 1116 0048 9142     		cmp	r1, r2
 1117 004a 18D1     		bne	.L124
1346:Generated_Source\PSoC5/CAN.c ****             {
1347:Generated_Source\PSoC5/CAN.c ****                 /* Write RX AMRD Register */
1348:Generated_Source\PSoC5/CAN.c ****                 CY_SET_REG32((reg32 *) (&CAN_RX[rxConfig->rxmailbox].rxamrd), 0xFFFFFFFFu);
 1118              		.loc 1 1348 0
 1119 004c 4FF0FF32 		mov	r2, #-1
 1120 0050 9A61     		str	r2, [r3, #24]
1349:Generated_Source\PSoC5/CAN.c ****                 if (CY_GET_REG32((reg32 *) (&CAN_RX[rxConfig->rxmailbox].rxamrd)) == 0xFFFFFFFFu)
 1121              		.loc 1 1349 0
 1122 0052 0278     		ldrb	r2, [r0]	@ zero_extendqisi2
 1123 0054 0D4B     		ldr	r3, .L127
 1124 0056 03EB4213 		add	r3, r3, r2, lsl #5
 1125 005a 9A69     		ldr	r2, [r3, #24]
 1126 005c B2F1FF3F 		cmp	r2, #-1
 1127 0060 0FD1     		bne	.L125
1350:Generated_Source\PSoC5/CAN.c ****                 {
1351:Generated_Source\PSoC5/CAN.c ****                     /* Write RX ACRD Register */
1352:Generated_Source\PSoC5/CAN.c ****                     CY_SET_REG32((reg32 *) (&CAN_RX[rxConfig->rxmailbox].rxacrd), 0x00000000u);
 1128              		.loc 1 1352 0
 1129 0062 0022     		movs	r2, #0
 1130 0064 DA61     		str	r2, [r3, #28]
1353:Generated_Source\PSoC5/CAN.c ****                     if (CY_GET_REG32((reg32 *) (&CAN_RX[rxConfig->rxmailbox].rxacrd)) == 0x00000000
 1131              		.loc 1 1353 0
 1132 0066 0278     		ldrb	r2, [r0]	@ zero_extendqisi2
 1133 0068 084B     		ldr	r3, .L127
 1134 006a 03EB4213 		add	r3, r3, r2, lsl #5
 1135 006e DB69     		ldr	r3, [r3, #28]
 1136 0070 4BB1     		cbz	r3, .L126
1331:Generated_Source\PSoC5/CAN.c **** 
 1137              		.loc 1 1331 0
 1138 0072 0120     		movs	r0, #1
 1139              	.LVL113:
 1140 0074 7047     		bx	lr
 1141              	.LVL114:
 1142              	.L122:
 1143 0076 0120     		movs	r0, #1
 1144              	.LVL115:
 1145 0078 7047     		bx	lr
 1146              	.LVL116:
 1147              	.L123:
 1148 007a 0120     		movs	r0, #1
 1149              	.LVL117:
 1150 007c 7047     		bx	lr
 1151              	.LVL118:
 1152              	.L124:
 1153 007e 0120     		movs	r0, #1
 1154              	.LVL119:
 1155 0080 7047     		bx	lr
 1156              	.LVL120:
 1157              	.L125:
ARM GAS  C:\Users\HENRYH~1\AppData\Local\Temp\ccMT0gCo.s 			page 46


 1158 0082 0120     		movs	r0, #1
 1159              	.LVL121:
 1160 0084 7047     		bx	lr
 1161              	.LVL122:
 1162              	.L126:
1354:Generated_Source\PSoC5/CAN.c ****                     {
1355:Generated_Source\PSoC5/CAN.c ****                         result = CYRET_SUCCESS;
 1163              		.loc 1 1355 0
 1164 0086 0020     		movs	r0, #0
 1165              	.LVL123:
1356:Generated_Source\PSoC5/CAN.c ****                     }
1357:Generated_Source\PSoC5/CAN.c ****                 }
1358:Generated_Source\PSoC5/CAN.c ****             }
1359:Generated_Source\PSoC5/CAN.c ****         }
1360:Generated_Source\PSoC5/CAN.c ****     }
1361:Generated_Source\PSoC5/CAN.c **** 
1362:Generated_Source\PSoC5/CAN.c ****     return (result);
1363:Generated_Source\PSoC5/CAN.c **** }
 1166              		.loc 1 1363 0
 1167 0088 7047     		bx	lr
 1168              	.L128:
 1169 008a 00BF     		.align	2
 1170              	.L127:
 1171 008c A0A00040 		.word	1073782944
 1172              		.cfi_endproc
 1173              	.LFE20:
 1174              		.size	CAN_RxBufConfig, .-CAN_RxBufConfig
 1175              		.section	.text.CAN_TxBufConfig,"ax",%progbits
 1176              		.align	2
 1177              		.global	CAN_TxBufConfig
 1178              		.thumb
 1179              		.thumb_func
 1180              		.type	CAN_TxBufConfig, %function
 1181              	CAN_TxBufConfig:
 1182              	.LFB21:
1364:Generated_Source\PSoC5/CAN.c **** 
1365:Generated_Source\PSoC5/CAN.c **** 
1366:Generated_Source\PSoC5/CAN.c **** /*******************************************************************************
1367:Generated_Source\PSoC5/CAN.c **** * FUNCTION NAME:   CAN_TxBufConfig
1368:Generated_Source\PSoC5/CAN.c **** ********************************************************************************
1369:Generated_Source\PSoC5/CAN.c **** *
1370:Generated_Source\PSoC5/CAN.c **** * Summary:
1371:Generated_Source\PSoC5/CAN.c **** *  This function configures all transmit registers for a particular mailbox.
1372:Generated_Source\PSoC5/CAN.c **** *  Mailbox number contains CAN_TX_CFG structure.
1373:Generated_Source\PSoC5/CAN.c **** *
1374:Generated_Source\PSoC5/CAN.c **** * Parameters:
1375:Generated_Source\PSoC5/CAN.c **** *  txConfig: The pointer to structure that contain all required values to
1376:Generated_Source\PSoC5/CAN.c **** *  configure all transmit registers for a particular mailbox.
1377:Generated_Source\PSoC5/CAN.c **** *
1378:Generated_Source\PSoC5/CAN.c **** * Return:
1379:Generated_Source\PSoC5/CAN.c **** *  The indication if particular configuration has been accepted or rejected.
1380:Generated_Source\PSoC5/CAN.c **** *   Define                             Description
1381:Generated_Source\PSoC5/CAN.c **** *    CYRET_SUCCESS                      The function passed successfully
1382:Generated_Source\PSoC5/CAN.c **** *    CAN_FAIL              The function failed
1383:Generated_Source\PSoC5/CAN.c **** *
1384:Generated_Source\PSoC5/CAN.c **** *******************************************************************************/
1385:Generated_Source\PSoC5/CAN.c **** uint8 CAN_TxBufConfig(const CAN_TX_CFG *txConfig)
ARM GAS  C:\Users\HENRYH~1\AppData\Local\Temp\ccMT0gCo.s 			page 47


1386:Generated_Source\PSoC5/CAN.c ****                                    
1387:Generated_Source\PSoC5/CAN.c **** {
 1183              		.loc 1 1387 0
 1184              		.cfi_startproc
 1185              		@ args = 0, pretend = 0, frame = 0
 1186              		@ frame_needed = 0, uses_anonymous_args = 0
 1187              		@ link register save eliminated.
 1188              	.LVL124:
1388:Generated_Source\PSoC5/CAN.c ****     uint8 result = CAN_FAIL;
1389:Generated_Source\PSoC5/CAN.c **** 
1390:Generated_Source\PSoC5/CAN.c ****     /* Write TX CMD Register */
1391:Generated_Source\PSoC5/CAN.c ****     CY_SET_REG32(CAN_TX_CMD_PTR(txConfig->txmailbox), (txConfig->txcmd | CAN_TX_WPN_SET));
 1189              		.loc 1 1391 0
 1190 0000 0178     		ldrb	r1, [r0]	@ zero_extendqisi2
 1191 0002 0901     		lsls	r1, r1, #4
 1192 0004 114A     		ldr	r2, .L133
 1193 0006 4368     		ldr	r3, [r0, #4]
 1194 0008 43F40003 		orr	r3, r3, #8388608
 1195 000c 43F00803 		orr	r3, r3, #8
 1196 0010 8B50     		str	r3, [r1, r2]
1392:Generated_Source\PSoC5/CAN.c ****     if ((CY_GET_REG32(CAN_TX_CMD_PTR(txConfig->txmailbox)) &
 1197              		.loc 1 1392 0
 1198 0012 0378     		ldrb	r3, [r0]	@ zero_extendqisi2
 1199 0014 1B01     		lsls	r3, r3, #4
 1200 0016 9918     		adds	r1, r3, r2
 1201 0018 9B58     		ldr	r3, [r3, r2]
 1202 001a 0D4A     		ldr	r2, .L133+4
 1203 001c 1A40     		ands	r2, r2, r3
1393:Generated_Source\PSoC5/CAN.c ****         CAN_TX_READ_BACK_MASK) == (txConfig->txcmd & CAN_TX_WPN_CLEAR))
 1204              		.loc 1 1393 0
 1205 001e 4368     		ldr	r3, [r0, #4]
 1206 0020 23F40003 		bic	r3, r3, #8388608
 1207 0024 23F00803 		bic	r3, r3, #8
1392:Generated_Source\PSoC5/CAN.c ****     if ((CY_GET_REG32(CAN_TX_CMD_PTR(txConfig->txmailbox)) &
 1208              		.loc 1 1392 0
 1209 0028 9A42     		cmp	r2, r3
 1210 002a 0BD1     		bne	.L131
1394:Generated_Source\PSoC5/CAN.c ****     {
1395:Generated_Source\PSoC5/CAN.c ****         /* Write TX ID Register */
1396:Generated_Source\PSoC5/CAN.c ****         CY_SET_REG32(CAN_TX_ID_PTR(txConfig->txmailbox), txConfig->txid);
 1211              		.loc 1 1396 0
 1212 002c 8368     		ldr	r3, [r0, #8]
 1213 002e 4B60     		str	r3, [r1, #4]
1397:Generated_Source\PSoC5/CAN.c ****         if (CY_GET_REG32(CAN_TX_ID_PTR(txConfig->txmailbox)) == txConfig->txid)
 1214              		.loc 1 1397 0
 1215 0030 0278     		ldrb	r2, [r0]	@ zero_extendqisi2
 1216 0032 064B     		ldr	r3, .L133
 1217 0034 03EB0213 		add	r3, r3, r2, lsl #4
 1218 0038 5A68     		ldr	r2, [r3, #4]
 1219 003a 8368     		ldr	r3, [r0, #8]
 1220 003c 9A42     		cmp	r2, r3
 1221 003e 03D0     		beq	.L132
1388:Generated_Source\PSoC5/CAN.c **** 
 1222              		.loc 1 1388 0
 1223 0040 0120     		movs	r0, #1
 1224              	.LVL125:
 1225 0042 7047     		bx	lr
ARM GAS  C:\Users\HENRYH~1\AppData\Local\Temp\ccMT0gCo.s 			page 48


 1226              	.LVL126:
 1227              	.L131:
 1228 0044 0120     		movs	r0, #1
 1229              	.LVL127:
 1230 0046 7047     		bx	lr
 1231              	.LVL128:
 1232              	.L132:
1398:Generated_Source\PSoC5/CAN.c ****         {
1399:Generated_Source\PSoC5/CAN.c ****             result = CYRET_SUCCESS;
 1233              		.loc 1 1399 0
 1234 0048 0020     		movs	r0, #0
 1235              	.LVL129:
1400:Generated_Source\PSoC5/CAN.c ****         }
1401:Generated_Source\PSoC5/CAN.c ****     }
1402:Generated_Source\PSoC5/CAN.c **** 
1403:Generated_Source\PSoC5/CAN.c ****     return (result);
1404:Generated_Source\PSoC5/CAN.c **** }
 1236              		.loc 1 1404 0
 1237 004a 7047     		bx	lr
 1238              	.L134:
 1239              		.align	2
 1240              	.L133:
 1241 004c 20A00040 		.word	1073782816
 1242 0050 F7007F00 		.word	8323319
 1243              		.cfi_endproc
 1244              	.LFE21:
 1245              		.size	CAN_TxBufConfig, .-CAN_TxBufConfig
 1246              		.section	.text.CAN_RxTxBuffersConfig,"ax",%progbits
 1247              		.align	2
 1248              		.global	CAN_RxTxBuffersConfig
 1249              		.thumb
 1250              		.thumb_func
 1251              		.type	CAN_RxTxBuffersConfig, %function
 1252              	CAN_RxTxBuffersConfig:
 1253              	.LFB0:
  48:Generated_Source\PSoC5/CAN.c ****     /* Initial values of CAN RX and TX registers */
 1254              		.loc 1 48 0
 1255              		.cfi_startproc
 1256              		@ args = 0, pretend = 0, frame = 0
 1257              		@ frame_needed = 0, uses_anonymous_args = 0
 1258 0000 38B5     		push	{r3, r4, r5, lr}
 1259              		.cfi_def_cfa_offset 16
 1260              		.cfi_offset 3, -16
 1261              		.cfi_offset 4, -12
 1262              		.cfi_offset 5, -8
 1263              		.cfi_offset 14, -4
 1264              	.LVL130:
  86:Generated_Source\PSoC5/CAN.c ****     {
 1265              		.loc 1 86 0
 1266 0002 0024     		movs	r4, #0
 1267 0004 09E0     		b	.L136
 1268              	.LVL131:
 1269              	.L138:
  88:Generated_Source\PSoC5/CAN.c ****             (&CAN_TXConfigStruct[i])) != CYRET_SUCCESS)
 1270              		.loc 1 88 0
 1271 0006 04EB4402 		add	r2, r4, r4, lsl #1
 1272 000a 9300     		lsls	r3, r2, #2
ARM GAS  C:\Users\HENRYH~1\AppData\Local\Temp\ccMT0gCo.s 			page 49


 1273 000c 0E48     		ldr	r0, .L146
 1274 000e 1844     		add	r0, r0, r3
 1275 0010 FFF7FEFF 		bl	CAN_TxBufConfig
 1276              	.LVL132:
 1277 0014 28B9     		cbnz	r0, .L142
  86:Generated_Source\PSoC5/CAN.c ****     {
 1278              		.loc 1 86 0 discriminator 2
 1279 0016 0134     		adds	r4, r4, #1
 1280              	.LVL133:
 1281 0018 E4B2     		uxtb	r4, r4
 1282              	.LVL134:
 1283              	.L136:
  86:Generated_Source\PSoC5/CAN.c ****     {
 1284              		.loc 1 86 0 is_stmt 0 discriminator 1
 1285 001a 072C     		cmp	r4, #7
 1286 001c F3D9     		bls	.L138
  82:Generated_Source\PSoC5/CAN.c ****     uint8 i;
 1287              		.loc 1 82 0 is_stmt 1
 1288 001e 0025     		movs	r5, #0
 1289 0020 00E0     		b	.L137
 1290              	.L142:
  91:Generated_Source\PSoC5/CAN.c ****             break;
 1291              		.loc 1 91 0
 1292 0022 0125     		movs	r5, #1
 1293              	.L137:
 1294              	.LVL135:
  96:Generated_Source\PSoC5/CAN.c ****     {
 1295              		.loc 1 96 0
 1296 0024 4DB1     		cbz	r5, .L143
 1297 0026 0DE0     		b	.L140
 1298              	.L141:
 101:Generated_Source\PSoC5/CAN.c ****                 (&CAN_RXConfigStruct[i])) != CYRET_SUCCESS)
 1299              		.loc 1 101 0
 1300 0028 0848     		ldr	r0, .L146+4
 1301 002a 00EB0410 		add	r0, r0, r4, lsl #4
 1302 002e FFF7FEFF 		bl	CAN_RxBufConfig
 1303              	.LVL136:
 1304 0032 30B9     		cbnz	r0, .L144
  99:Generated_Source\PSoC5/CAN.c ****         {
 1305              		.loc 1 99 0 discriminator 2
 1306 0034 0134     		adds	r4, r4, #1
 1307              	.LVL137:
 1308 0036 E4B2     		uxtb	r4, r4
 1309              	.LVL138:
 1310 0038 00E0     		b	.L139
 1311              	.L143:
 1312 003a 0024     		movs	r4, #0
 1313              	.LVL139:
 1314              	.L139:
  99:Generated_Source\PSoC5/CAN.c ****         {
 1315              		.loc 1 99 0 is_stmt 0 discriminator 1
 1316 003c 0F2C     		cmp	r4, #15
 1317 003e F3D9     		bls	.L141
 1318 0040 00E0     		b	.L140
 1319              	.L144:
 104:Generated_Source\PSoC5/CAN.c ****                 break;
 1320              		.loc 1 104 0 is_stmt 1
ARM GAS  C:\Users\HENRYH~1\AppData\Local\Temp\ccMT0gCo.s 			page 50


 1321 0042 0125     		movs	r5, #1
 1322              	.LVL140:
 1323              	.L140:
 111:Generated_Source\PSoC5/CAN.c **** 
 1324              		.loc 1 111 0
 1325 0044 2846     		mov	r0, r5
 1326 0046 38BD     		pop	{r3, r4, r5, pc}
 1327              	.LVL141:
 1328              	.L147:
 1329              		.align	2
 1330              	.L146:
 1331 0048 00000000 		.word	.LANCHOR0
 1332 004c 60000000 		.word	.LANCHOR0+96
 1333              		.cfi_endproc
 1334              	.LFE0:
 1335              		.size	CAN_RxTxBuffersConfig, .-CAN_RxTxBuffersConfig
 1336              		.section	.text.CAN_Init,"ax",%progbits
 1337              		.align	2
 1338              		.global	CAN_Init
 1339              		.thumb
 1340              		.thumb_func
 1341              		.type	CAN_Init, %function
 1342              	CAN_Init:
 1343              	.LFB1:
 138:Generated_Source\PSoC5/CAN.c ****     uint32 timeout = CAN_MODE_STATE_STOP_TIMEOUT;
 1344              		.loc 1 138 0
 1345              		.cfi_startproc
 1346              		@ args = 0, pretend = 0, frame = 0
 1347              		@ frame_needed = 0, uses_anonymous_args = 0
 1348 0000 08B5     		push	{r3, lr}
 1349              		.cfi_def_cfa_offset 8
 1350              		.cfi_offset 3, -8
 1351              		.cfi_offset 14, -4
 1352              	.LVL142:
 146:Generated_Source\PSoC5/CAN.c ****         /* Enable CAN block in Active mode */
 1353              		.loc 1 146 0
 1354 0002 FFF7FEFF 		bl	CyEnterCriticalSection
 1355              	.LVL143:
 148:Generated_Source\PSoC5/CAN.c ****         /* Enable CAN block in Alternate Active (Standby) mode */
 1356              		.loc 1 148 0
 1357 0006 324A     		ldr	r2, .L165
 1358 0008 1378     		ldrb	r3, [r2]	@ zero_extendqisi2
 1359 000a 43F00103 		orr	r3, r3, #1
 1360 000e 1370     		strb	r3, [r2]
 150:Generated_Source\PSoC5/CAN.c ****         CyExitCriticalSection(enableInterrupts);
 1361              		.loc 1 150 0
 1362 0010 1032     		adds	r2, r2, #16
 1363 0012 1378     		ldrb	r3, [r2]	@ zero_extendqisi2
 1364 0014 43F00103 		orr	r3, r3, #1
 1365 0018 1370     		strb	r3, [r2]
 151:Generated_Source\PSoC5/CAN.c **** 
 1366              		.loc 1 151 0
 1367 001a FFF7FEFF 		bl	CyExitCriticalSection
 1368              	.LVL144:
 154:Generated_Source\PSoC5/CAN.c **** 
 1369              		.loc 1 154 0
 1370 001e 2D4A     		ldr	r2, .L165+4
ARM GAS  C:\Users\HENRYH~1\AppData\Local\Temp\ccMT0gCo.s 			page 51


 1371 0020 1378     		ldrb	r3, [r2]	@ zero_extendqisi2
 1372 0022 03F0FE03 		and	r3, r3, #254
 1373 0026 1370     		strb	r3, [r2]
 139:Generated_Source\PSoC5/CAN.c ****     uint8 result = CAN_FAIL;
 1374              		.loc 1 139 0
 1375 0028 4FF47063 		mov	r3, #3840
 157:Generated_Source\PSoC5/CAN.c ****         {
 1376              		.loc 1 157 0
 1377 002c 00E0     		b	.L149
 1378              	.LVL145:
 1379              	.L151:
 159:Generated_Source\PSoC5/CAN.c ****         }
 1380              		.loc 1 159 0
 1381 002e 013B     		subs	r3, r3, #1
 1382              	.LVL146:
 1383              	.L149:
 157:Generated_Source\PSoC5/CAN.c ****         {
 1384              		.loc 1 157 0
 1385 0030 23B1     		cbz	r3, .L150
 157:Generated_Source\PSoC5/CAN.c ****         {
 1386              		.loc 1 157 0 is_stmt 0 discriminator 1
 1387 0032 284A     		ldr	r2, .L165+4
 1388 0034 1278     		ldrb	r2, [r2]	@ zero_extendqisi2
 1389 0036 12F0010F 		tst	r2, #1
 1390 003a F8D1     		bne	.L151
 1391              	.L150:
 174:Generated_Source\PSoC5/CAN.c ****         {
 1392              		.loc 1 174 0 is_stmt 1
 1393 003c 002B     		cmp	r3, #0
 1394 003e 3CD0     		beq	.L154
 177:Generated_Source\PSoC5/CAN.c **** 
 1395              		.loc 1 177 0
 1396 0040 4FF48032 		mov	r2, #65536
 1397 0044 244B     		ldr	r3, .L165+8
 1398              	.LVL147:
 1399 0046 1A60     		str	r2, [r3]
 180:Generated_Source\PSoC5/CAN.c **** 
 1400              		.loc 1 180 0
 1401 0048 2449     		ldr	r1, .L165+12
 1402 004a 1020     		movs	r0, #16
 1403 004c FFF7FEFF 		bl	CyIntSetVector
 1404              	.LVL148:
 183:Generated_Source\PSoC5/CAN.c **** 
 1405              		.loc 1 183 0
 1406 0050 0721     		movs	r1, #7
 1407 0052 1020     		movs	r0, #16
 1408 0054 FFF7FEFF 		bl	CyIntSetPriority
 1409              	.LVL149:
 185:Generated_Source\PSoC5/CAN.c ****             {
 1410              		.loc 1 185 0
 1411 0058 0220     		movs	r0, #2
 1412 005a FFF7FEFF 		bl	CAN_SetPreScaler
 1413              	.LVL150:
 1414 005e 88B9     		cbnz	r0, .L155
 187:Generated_Source\PSoC5/CAN.c ****                 {
 1415              		.loc 1 187 0
 1416 0060 FFF7FEFF 		bl	CAN_SetArbiter
ARM GAS  C:\Users\HENRYH~1\AppData\Local\Temp\ccMT0gCo.s 			page 52


 1417              	.LVL151:
 1418 0064 80B9     		cbnz	r0, .L156
 193:Generated_Source\PSoC5/CAN.c ****                                 CAN_CFG_REG_TSEG2, CAN_CFG_REG_SJW,
 1419              		.loc 1 193 0
 1420 0066 0023     		movs	r3, #0
 1421 0068 0122     		movs	r2, #1
 1422 006a 1146     		mov	r1, r2
 1423 006c 0420     		movs	r0, #4
 1424 006e FFF7FEFF 		bl	CAN_SetTsegSample
 1425              	.LVL152:
 1426 0072 58B9     		cbnz	r0, .L157
 197:Generated_Source\PSoC5/CAN.c ****                                 {
 1427              		.loc 1 197 0
 1428 0074 FFF7FEFF 		bl	CAN_SetRestartType
 1429              	.LVL153:
 1430 0078 50B9     		cbnz	r0, .L158
 199:Generated_Source\PSoC5/CAN.c ****                                     {
 1431              		.loc 1 199 0
 1432 007a FFF7FEFF 		bl	CAN_SetEdgeMode
 1433              	.LVL154:
 1434 007e 48B1     		cbz	r0, .L159
 141:Generated_Source\PSoC5/CAN.c **** 
 1435              		.loc 1 141 0
 1436 0080 0123     		movs	r3, #1
 1437 0082 08E0     		b	.L153
 1438              	.L155:
 1439 0084 0123     		movs	r3, #1
 1440 0086 06E0     		b	.L153
 1441              	.L156:
 1442 0088 0123     		movs	r3, #1
 1443 008a 04E0     		b	.L153
 1444              	.L157:
 1445 008c 0123     		movs	r3, #1
 1446 008e 02E0     		b	.L153
 1447              	.L158:
 1448 0090 0123     		movs	r3, #1
 1449 0092 00E0     		b	.L153
 1450              	.L159:
 201:Generated_Source\PSoC5/CAN.c ****                                     }
 1451              		.loc 1 201 0
 1452 0094 0023     		movs	r3, #0
 1453              	.L153:
 1454              	.LVL155:
 209:Generated_Source\PSoC5/CAN.c ****             {
 1455              		.loc 1 209 0
 1456 0096 93B9     		cbnz	r3, .L160
 211:Generated_Source\PSoC5/CAN.c ****                 {
 1457              		.loc 1 211 0
 1458 0098 FFF7FEFF 		bl	CAN_RxTxBuffersConfig
 1459              	.LVL156:
 1460 009c 88B9     		cbnz	r0, .L161
 214:Generated_Source\PSoC5/CAN.c ****                         CYRET_SUCCESS)
 1461              		.loc 1 214 0
 1462 009e 41F20120 		movw	r0, #4609
 1463 00a2 FFF7FEFF 		bl	CAN_SetIrqMask
 1464              	.LVL157:
 1465 00a6 70B9     		cbnz	r0, .L162
ARM GAS  C:\Users\HENRYH~1\AppData\Local\Temp\ccMT0gCo.s 			page 53


 219:Generated_Source\PSoC5/CAN.c ****                             if ((CAN_CMD_REG.byte[0u] & CAN_MODE_MASK) == 0u)
 1466              		.loc 1 219 0
 1467 00a8 0A4B     		ldr	r3, .L165+4
 1468 00aa 0022     		movs	r2, #0
 1469 00ac 1A70     		strb	r2, [r3]
 220:Generated_Source\PSoC5/CAN.c ****                         #else  /* CY_PSOC4 */
 1470              		.loc 1 220 0
 1471 00ae 1B78     		ldrb	r3, [r3]	@ zero_extendqisi2
 1472 00b0 13F0010F 		tst	r3, #1
 1473 00b4 09D0     		beq	.L163
 140:Generated_Source\PSoC5/CAN.c ****     uint8 localResult = CAN_FAIL;
 1474              		.loc 1 140 0
 1475 00b6 0120     		movs	r0, #1
 1476 00b8 08BD     		pop	{r3, pc}
 1477              	.LVL158:
 1478              	.L154:
 1479 00ba 0120     		movs	r0, #1
 1480 00bc 08BD     		pop	{r3, pc}
 1481              	.LVL159:
 1482              	.L160:
 1483 00be 0120     		movs	r0, #1
 1484 00c0 08BD     		pop	{r3, pc}
 1485              	.LVL160:
 1486              	.L161:
 1487 00c2 0120     		movs	r0, #1
 1488 00c4 08BD     		pop	{r3, pc}
 1489              	.L162:
 1490 00c6 0120     		movs	r0, #1
 1491 00c8 08BD     		pop	{r3, pc}
 1492              	.L163:
 226:Generated_Source\PSoC5/CAN.c ****                             }
 1493              		.loc 1 226 0
 1494 00ca 0020     		movs	r0, #0
 1495              	.LVL161:
 234:Generated_Source\PSoC5/CAN.c **** 
 1496              		.loc 1 234 0
 1497 00cc 08BD     		pop	{r3, pc}
 1498              	.L166:
 1499 00ce 00BF     		.align	2
 1500              	.L165:
 1501 00d0 A6430040 		.word	1073759142
 1502 00d4 10A00040 		.word	1073782800
 1503 00d8 80E100E0 		.word	-536813184
 1504 00dc 00000000 		.word	CAN_ISR
 1505              		.cfi_endproc
 1506              	.LFE1:
 1507              		.size	CAN_Init, .-CAN_Init
 1508              		.section	.text.CAN_Start,"ax",%progbits
 1509              		.align	2
 1510              		.global	CAN_Start
 1511              		.thumb
 1512              		.thumb_func
 1513              		.type	CAN_Start, %function
 1514              	CAN_Start:
 1515              	.LFB3:
 324:Generated_Source\PSoC5/CAN.c ****     uint8 result = CYRET_SUCCESS;
 1516              		.loc 1 324 0
ARM GAS  C:\Users\HENRYH~1\AppData\Local\Temp\ccMT0gCo.s 			page 54


 1517              		.cfi_startproc
 1518              		@ args = 0, pretend = 0, frame = 0
 1519              		@ frame_needed = 0, uses_anonymous_args = 0
 1520 0000 08B5     		push	{r3, lr}
 1521              		.cfi_def_cfa_offset 8
 1522              		.cfi_offset 3, -8
 1523              		.cfi_offset 14, -4
 1524              	.LVL162:
 327:Generated_Source\PSoC5/CAN.c ****     {
 1525              		.loc 1 327 0
 1526 0002 074B     		ldr	r3, .L172
 1527 0004 1B78     		ldrb	r3, [r3]	@ zero_extendqisi2
 1528 0006 13B9     		cbnz	r3, .L170
 329:Generated_Source\PSoC5/CAN.c ****     }
 1529              		.loc 1 329 0
 1530 0008 FFF7FEFF 		bl	CAN_Init
 1531              	.LVL163:
 1532 000c 00E0     		b	.L168
 1533              	.LVL164:
 1534              	.L170:
 325:Generated_Source\PSoC5/CAN.c **** 
 1535              		.loc 1 325 0
 1536 000e 0020     		movs	r0, #0
 1537              	.LVL165:
 1538              	.L168:
 332:Generated_Source\PSoC5/CAN.c ****     {
 1539              		.loc 1 332 0
 1540 0010 20B9     		cbnz	r0, .L169
 334:Generated_Source\PSoC5/CAN.c ****         result = CAN_Enable();
 1541              		.loc 1 334 0
 1542 0012 0122     		movs	r2, #1
 1543 0014 024B     		ldr	r3, .L172
 1544 0016 1A70     		strb	r2, [r3]
 335:Generated_Source\PSoC5/CAN.c ****     }
 1545              		.loc 1 335 0
 1546 0018 FFF7FEFF 		bl	CAN_Enable
 1547              	.LVL166:
 1548              	.L169:
 339:Generated_Source\PSoC5/CAN.c **** 
 1549              		.loc 1 339 0
 1550 001c 08BD     		pop	{r3, pc}
 1551              	.L173:
 1552 001e 00BF     		.align	2
 1553              	.L172:
 1554 0020 00000000 		.word	.LANCHOR1
 1555              		.cfi_endproc
 1556              	.LFE3:
 1557              		.size	CAN_Start, .-CAN_Start
 1558              		.global	CAN_initVar
 1559              		.section	.rodata
 1560              		.align	2
 1561              		.set	.LANCHOR0,. + 0
 1562              		.type	CAN_TXConfigStruct.5057, %object
 1563              		.size	CAN_TXConfigStruct.5057, 96
 1564              	CAN_TXConfigStruct.5057:
 1565 0000 00       		.byte	0
 1566 0001 000000   		.space	3
ARM GAS  C:\Users\HENRYH~1\AppData\Local\Temp\ccMT0gCo.s 			page 55


 1567 0004 00000800 		.word	524288
 1568 0008 00002000 		.word	2097152
 1569 000c 01       		.byte	1
 1570 000d 000000   		.space	3
 1571 0010 08008800 		.word	8912904
 1572 0014 00000000 		.word	0
 1573 0018 02       		.byte	2
 1574 0019 000000   		.space	3
 1575 001c 08008800 		.word	8912904
 1576 0020 00000000 		.word	0
 1577 0024 03       		.byte	3
 1578 0025 000000   		.space	3
 1579 0028 08008800 		.word	8912904
 1580 002c 00000000 		.word	0
 1581 0030 04       		.byte	4
 1582 0031 000000   		.space	3
 1583 0034 08008800 		.word	8912904
 1584 0038 00000000 		.word	0
 1585 003c 05       		.byte	5
 1586 003d 000000   		.space	3
 1587 0040 08008800 		.word	8912904
 1588 0044 00000000 		.word	0
 1589 0048 06       		.byte	6
 1590 0049 000000   		.space	3
 1591 004c 08008800 		.word	8912904
 1592 0050 00000000 		.word	0
 1593 0054 07       		.byte	7
 1594 0055 000000   		.space	3
 1595 0058 08008800 		.word	8912904
 1596 005c 00000000 		.word	0
 1597              		.type	CAN_RXConfigStruct.5056, %object
 1598              		.size	CAN_RXConfigStruct.5056, 256
 1599              	CAN_RXConfigStruct.5056:
 1600 0060 00       		.byte	0
 1601 0061 000000   		.space	3
 1602 0064 28000000 		.word	40
 1603 0068 F9FF1F00 		.word	2097145
 1604 006c 00004000 		.word	4194304
 1605 0070 01       		.byte	1
 1606 0071 000000   		.space	3
 1607 0074 00000000 		.word	0
 1608 0078 00000000 		.word	0
 1609 007c 00000000 		.word	0
 1610 0080 02       		.byte	2
 1611 0081 000000   		.space	3
 1612 0084 00000000 		.word	0
 1613 0088 00000000 		.word	0
 1614 008c 00000000 		.word	0
 1615 0090 03       		.byte	3
 1616 0091 000000   		.space	3
 1617 0094 00000000 		.word	0
 1618 0098 00000000 		.word	0
 1619 009c 00000000 		.word	0
 1620 00a0 04       		.byte	4
 1621 00a1 000000   		.space	3
 1622 00a4 00000000 		.word	0
 1623 00a8 00000000 		.word	0
ARM GAS  C:\Users\HENRYH~1\AppData\Local\Temp\ccMT0gCo.s 			page 56


 1624 00ac 00000000 		.word	0
 1625 00b0 05       		.byte	5
 1626 00b1 000000   		.space	3
 1627 00b4 00000000 		.word	0
 1628 00b8 00000000 		.word	0
 1629 00bc 00000000 		.word	0
 1630 00c0 06       		.byte	6
 1631 00c1 000000   		.space	3
 1632 00c4 00000000 		.word	0
 1633 00c8 00000000 		.word	0
 1634 00cc 00000000 		.word	0
 1635 00d0 07       		.byte	7
 1636 00d1 000000   		.space	3
 1637 00d4 00000000 		.word	0
 1638 00d8 00000000 		.word	0
 1639 00dc 00000000 		.word	0
 1640 00e0 08       		.byte	8
 1641 00e1 000000   		.space	3
 1642 00e4 00000000 		.word	0
 1643 00e8 00000000 		.word	0
 1644 00ec 00000000 		.word	0
 1645 00f0 09       		.byte	9
 1646 00f1 000000   		.space	3
 1647 00f4 00000000 		.word	0
 1648 00f8 00000000 		.word	0
 1649 00fc 00000000 		.word	0
 1650 0100 0A       		.byte	10
 1651 0101 000000   		.space	3
 1652 0104 00000000 		.word	0
 1653 0108 00000000 		.word	0
 1654 010c 00000000 		.word	0
 1655 0110 0B       		.byte	11
 1656 0111 000000   		.space	3
 1657 0114 00000000 		.word	0
 1658 0118 00000000 		.word	0
 1659 011c 00000000 		.word	0
 1660 0120 0C       		.byte	12
 1661 0121 000000   		.space	3
 1662 0124 00000000 		.word	0
 1663 0128 00000000 		.word	0
 1664 012c 00000000 		.word	0
 1665 0130 0D       		.byte	13
 1666 0131 000000   		.space	3
 1667 0134 00000000 		.word	0
 1668 0138 00000000 		.word	0
 1669 013c 00000000 		.word	0
 1670 0140 0E       		.byte	14
 1671 0141 000000   		.space	3
 1672 0144 00000000 		.word	0
 1673 0148 00000000 		.word	0
 1674 014c 00000000 		.word	0
 1675 0150 0F       		.byte	15
 1676 0151 000000   		.space	3
 1677 0154 00000000 		.word	0
 1678 0158 00000000 		.word	0
 1679 015c 00000000 		.word	0
 1680              		.bss
ARM GAS  C:\Users\HENRYH~1\AppData\Local\Temp\ccMT0gCo.s 			page 57


 1681              		.set	.LANCHOR1,. + 0
 1682              		.type	CAN_initVar, %object
 1683              		.size	CAN_initVar, 1
 1684              	CAN_initVar:
 1685 0000 00       		.space	1
 1686              		.text
 1687              	.Letext0:
 1688              		.file 2 "Generated_Source\\PSoC5\\cytypes.h"
 1689              		.file 3 "Generated_Source\\PSoC5\\CAN.h"
 1690              		.file 4 "Generated_Source\\PSoC5\\CyLib.h"
 1691              		.section	.debug_info,"",%progbits
 1692              	.Ldebug_info0:
 1693 0000 F7080000 		.4byte	0x8f7
 1694 0004 0400     		.2byte	0x4
 1695 0006 00000000 		.4byte	.Ldebug_abbrev0
 1696 000a 04       		.byte	0x4
 1697 000b 01       		.uleb128 0x1
 1698 000c 3B030000 		.4byte	.LASF85
 1699 0010 0C       		.byte	0xc
 1700 0011 1E030000 		.4byte	.LASF86
 1701 0015 CC000000 		.4byte	.LASF87
 1702 0019 00000000 		.4byte	.Ldebug_ranges0+0
 1703 001d 00000000 		.4byte	0
 1704 0021 00000000 		.4byte	.Ldebug_line0
 1705 0025 02       		.uleb128 0x2
 1706 0026 01       		.byte	0x1
 1707 0027 06       		.byte	0x6
 1708 0028 AB000000 		.4byte	.LASF0
 1709 002c 02       		.uleb128 0x2
 1710 002d 01       		.byte	0x1
 1711 002e 08       		.byte	0x8
 1712 002f DA020000 		.4byte	.LASF1
 1713 0033 02       		.uleb128 0x2
 1714 0034 02       		.byte	0x2
 1715 0035 05       		.byte	0x5
 1716 0036 E8020000 		.4byte	.LASF2
 1717 003a 02       		.uleb128 0x2
 1718 003b 02       		.byte	0x2
 1719 003c 07       		.byte	0x7
 1720 003d AF010000 		.4byte	.LASF3
 1721 0041 02       		.uleb128 0x2
 1722 0042 04       		.byte	0x4
 1723 0043 05       		.byte	0x5
 1724 0044 FE000000 		.4byte	.LASF4
 1725 0048 02       		.uleb128 0x2
 1726 0049 04       		.byte	0x4
 1727 004a 07       		.byte	0x7
 1728 004b 70010000 		.4byte	.LASF5
 1729 004f 02       		.uleb128 0x2
 1730 0050 08       		.byte	0x8
 1731 0051 05       		.byte	0x5
 1732 0052 9D000000 		.4byte	.LASF6
 1733 0056 02       		.uleb128 0x2
 1734 0057 08       		.byte	0x8
 1735 0058 07       		.byte	0x7
 1736 0059 65000000 		.4byte	.LASF7
 1737 005d 03       		.uleb128 0x3
ARM GAS  C:\Users\HENRYH~1\AppData\Local\Temp\ccMT0gCo.s 			page 58


 1738 005e 04       		.byte	0x4
 1739 005f 05       		.byte	0x5
 1740 0060 696E7400 		.ascii	"int\000"
 1741 0064 02       		.uleb128 0x2
 1742 0065 04       		.byte	0x4
 1743 0066 07       		.byte	0x7
 1744 0067 63010000 		.4byte	.LASF8
 1745 006b 04       		.uleb128 0x4
 1746 006c 14010000 		.4byte	.LASF9
 1747 0070 02       		.byte	0x2
 1748 0071 E401     		.2byte	0x1e4
 1749 0073 2C000000 		.4byte	0x2c
 1750 0077 04       		.uleb128 0x4
 1751 0078 14000000 		.4byte	.LASF10
 1752 007c 02       		.byte	0x2
 1753 007d E501     		.2byte	0x1e5
 1754 007f 3A000000 		.4byte	0x3a
 1755 0083 04       		.uleb128 0x4
 1756 0084 30010000 		.4byte	.LASF11
 1757 0088 02       		.byte	0x2
 1758 0089 E601     		.2byte	0x1e6
 1759 008b 48000000 		.4byte	0x48
 1760 008f 02       		.uleb128 0x2
 1761 0090 04       		.byte	0x4
 1762 0091 04       		.byte	0x4
 1763 0092 CF020000 		.4byte	.LASF12
 1764 0096 02       		.uleb128 0x2
 1765 0097 08       		.byte	0x8
 1766 0098 04       		.byte	0x4
 1767 0099 29010000 		.4byte	.LASF13
 1768 009d 02       		.uleb128 0x2
 1769 009e 01       		.byte	0x1
 1770 009f 08       		.byte	0x8
 1771 00a0 DA030000 		.4byte	.LASF14
 1772 00a4 04       		.uleb128 0x4
 1773 00a5 D5020000 		.4byte	.LASF15
 1774 00a9 02       		.byte	0x2
 1775 00aa 8E02     		.2byte	0x28e
 1776 00ac B0000000 		.4byte	0xb0
 1777 00b0 05       		.uleb128 0x5
 1778 00b1 6B000000 		.4byte	0x6b
 1779 00b5 04       		.uleb128 0x4
 1780 00b6 0E010000 		.4byte	.LASF16
 1781 00ba 02       		.byte	0x2
 1782 00bb 8F02     		.2byte	0x28f
 1783 00bd C1000000 		.4byte	0xc1
 1784 00c1 05       		.uleb128 0x5
 1785 00c2 77000000 		.4byte	0x77
 1786 00c6 04       		.uleb128 0x4
 1787 00c7 4B020000 		.4byte	.LASF17
 1788 00cb 02       		.byte	0x2
 1789 00cc 9002     		.2byte	0x290
 1790 00ce D2000000 		.4byte	0xd2
 1791 00d2 05       		.uleb128 0x5
 1792 00d3 83000000 		.4byte	0x83
 1793 00d7 02       		.uleb128 0x2
 1794 00d8 08       		.byte	0x8
ARM GAS  C:\Users\HENRYH~1\AppData\Local\Temp\ccMT0gCo.s 			page 59


 1795 00d9 04       		.byte	0x4
 1796 00da 88020000 		.4byte	.LASF18
 1797 00de 02       		.uleb128 0x2
 1798 00df 04       		.byte	0x4
 1799 00e0 07       		.byte	0x7
 1800 00e1 7F020000 		.4byte	.LASF19
 1801 00e5 06       		.uleb128 0x6
 1802 00e6 08       		.byte	0x8
 1803 00e7 03       		.byte	0x3
 1804 00e8 75       		.byte	0x75
 1805 00e9 FA000000 		.4byte	0xfa
 1806 00ed 07       		.uleb128 0x7
 1807 00ee 37010000 		.4byte	.LASF21
 1808 00f2 03       		.byte	0x3
 1809 00f3 77       		.byte	0x77
 1810 00f4 0A010000 		.4byte	0x10a
 1811 00f8 00       		.byte	0
 1812 00f9 00       		.byte	0
 1813 00fa 08       		.uleb128 0x8
 1814 00fb A4000000 		.4byte	0xa4
 1815 00ff 0A010000 		.4byte	0x10a
 1816 0103 09       		.uleb128 0x9
 1817 0104 DE000000 		.4byte	0xde
 1818 0108 07       		.byte	0x7
 1819 0109 00       		.byte	0
 1820 010a 05       		.uleb128 0x5
 1821 010b FA000000 		.4byte	0xfa
 1822 010f 0A       		.uleb128 0xa
 1823 0110 25040000 		.4byte	.LASF20
 1824 0114 03       		.byte	0x3
 1825 0115 78       		.byte	0x78
 1826 0116 E5000000 		.4byte	0xe5
 1827 011a 06       		.uleb128 0x6
 1828 011b 04       		.byte	0x4
 1829 011c 03       		.byte	0x3
 1830 011d 7B       		.byte	0x7b
 1831 011e 2F010000 		.4byte	0x12f
 1832 0122 07       		.uleb128 0x7
 1833 0123 37010000 		.4byte	.LASF21
 1834 0127 03       		.byte	0x3
 1835 0128 7D       		.byte	0x7d
 1836 0129 3F010000 		.4byte	0x13f
 1837 012d 00       		.byte	0
 1838 012e 00       		.byte	0
 1839 012f 08       		.uleb128 0x8
 1840 0130 A4000000 		.4byte	0xa4
 1841 0134 3F010000 		.4byte	0x13f
 1842 0138 09       		.uleb128 0x9
 1843 0139 DE000000 		.4byte	0xde
 1844 013d 03       		.byte	0x3
 1845 013e 00       		.byte	0
 1846 013f 05       		.uleb128 0x5
 1847 0140 2F010000 		.4byte	0x12f
 1848 0144 0A       		.uleb128 0xa
 1849 0145 74020000 		.4byte	.LASF22
 1850 0149 03       		.byte	0x3
 1851 014a 7E       		.byte	0x7e
ARM GAS  C:\Users\HENRYH~1\AppData\Local\Temp\ccMT0gCo.s 			page 60


 1852 014b 1A010000 		.4byte	0x11a
 1853 014f 06       		.uleb128 0x6
 1854 0150 10       		.byte	0x10
 1855 0151 03       		.byte	0x3
 1856 0152 8F       		.byte	0x8f
 1857 0153 88010000 		.4byte	0x188
 1858 0157 07       		.uleb128 0x7
 1859 0158 6A020000 		.4byte	.LASF23
 1860 015c 03       		.byte	0x3
 1861 015d 91       		.byte	0x91
 1862 015e 6B000000 		.4byte	0x6b
 1863 0162 00       		.byte	0
 1864 0163 07       		.uleb128 0x7
 1865 0164 62040000 		.4byte	.LASF24
 1866 0168 03       		.byte	0x3
 1867 0169 92       		.byte	0x92
 1868 016a 83000000 		.4byte	0x83
 1869 016e 04       		.byte	0x4
 1870 016f 07       		.uleb128 0x7
 1871 0170 23010000 		.4byte	.LASF25
 1872 0174 03       		.byte	0x3
 1873 0175 93       		.byte	0x93
 1874 0176 83000000 		.4byte	0x83
 1875 017a 08       		.byte	0x8
 1876 017b 07       		.uleb128 0x7
 1877 017c 97040000 		.4byte	.LASF26
 1878 0180 03       		.byte	0x3
 1879 0181 94       		.byte	0x94
 1880 0182 83000000 		.4byte	0x83
 1881 0186 0C       		.byte	0xc
 1882 0187 00       		.byte	0
 1883 0188 0A       		.uleb128 0xa
 1884 0189 06020000 		.4byte	.LASF27
 1885 018d 03       		.byte	0x3
 1886 018e 95       		.byte	0x95
 1887 018f 4F010000 		.4byte	0x14f
 1888 0193 06       		.uleb128 0x6
 1889 0194 0C       		.byte	0xc
 1890 0195 03       		.byte	0x3
 1891 0196 98       		.byte	0x98
 1892 0197 C0010000 		.4byte	0x1c0
 1893 019b 07       		.uleb128 0x7
 1894 019c 34040000 		.4byte	.LASF28
 1895 01a0 03       		.byte	0x3
 1896 01a1 9A       		.byte	0x9a
 1897 01a2 6B000000 		.4byte	0x6b
 1898 01a6 00       		.byte	0
 1899 01a7 07       		.uleb128 0x7
 1900 01a8 7C000000 		.4byte	.LASF29
 1901 01ac 03       		.byte	0x3
 1902 01ad 9B       		.byte	0x9b
 1903 01ae 83000000 		.4byte	0x83
 1904 01b2 04       		.byte	0x4
 1905 01b3 07       		.uleb128 0x7
 1906 01b4 92040000 		.4byte	.LASF30
 1907 01b8 03       		.byte	0x3
 1908 01b9 9C       		.byte	0x9c
ARM GAS  C:\Users\HENRYH~1\AppData\Local\Temp\ccMT0gCo.s 			page 61


 1909 01ba 83000000 		.4byte	0x83
 1910 01be 08       		.byte	0x8
 1911 01bf 00       		.byte	0
 1912 01c0 0A       		.uleb128 0xa
 1913 01c1 AC040000 		.4byte	.LASF31
 1914 01c5 03       		.byte	0x3
 1915 01c6 9D       		.byte	0x9d
 1916 01c7 93010000 		.4byte	0x193
 1917 01cb 06       		.uleb128 0x6
 1918 01cc 20       		.byte	0x20
 1919 01cd 03       		.byte	0x3
 1920 01ce A0       		.byte	0xa0
 1921 01cf 28020000 		.4byte	0x228
 1922 01d3 07       		.uleb128 0x7
 1923 01d4 62040000 		.4byte	.LASF24
 1924 01d8 03       		.byte	0x3
 1925 01d9 A2       		.byte	0xa2
 1926 01da 44010000 		.4byte	0x144
 1927 01de 00       		.byte	0
 1928 01df 07       		.uleb128 0x7
 1929 01e0 A6020000 		.4byte	.LASF32
 1930 01e4 03       		.byte	0x3
 1931 01e5 A3       		.byte	0xa3
 1932 01e6 44010000 		.4byte	0x144
 1933 01ea 04       		.byte	0x4
 1934 01eb 07       		.uleb128 0x7
 1935 01ec 07010000 		.4byte	.LASF33
 1936 01f0 03       		.byte	0x3
 1937 01f1 A4       		.byte	0xa4
 1938 01f2 0F010000 		.4byte	0x10f
 1939 01f6 08       		.byte	0x8
 1940 01f7 07       		.uleb128 0x7
 1941 01f8 23010000 		.4byte	.LASF25
 1942 01fc 03       		.byte	0x3
 1943 01fd A5       		.byte	0xa5
 1944 01fe 44010000 		.4byte	0x144
 1945 0202 10       		.byte	0x10
 1946 0203 07       		.uleb128 0x7
 1947 0204 97040000 		.4byte	.LASF26
 1948 0208 03       		.byte	0x3
 1949 0209 A6       		.byte	0xa6
 1950 020a 44010000 		.4byte	0x144
 1951 020e 14       		.byte	0x14
 1952 020f 07       		.uleb128 0x7
 1953 0210 82000000 		.4byte	.LASF34
 1954 0214 03       		.byte	0x3
 1955 0215 A7       		.byte	0xa7
 1956 0216 44010000 		.4byte	0x144
 1957 021a 18       		.byte	0x18
 1958 021b 07       		.uleb128 0x7
 1959 021c A5040000 		.4byte	.LASF35
 1960 0220 03       		.byte	0x3
 1961 0221 A8       		.byte	0xa8
 1962 0222 44010000 		.4byte	0x144
 1963 0226 1C       		.byte	0x1c
 1964 0227 00       		.byte	0
 1965 0228 0A       		.uleb128 0xa
ARM GAS  C:\Users\HENRYH~1\AppData\Local\Temp\ccMT0gCo.s 			page 62


 1966 0229 C2010000 		.4byte	.LASF36
 1967 022d 03       		.byte	0x3
 1968 022e A9       		.byte	0xa9
 1969 022f CB010000 		.4byte	0x1cb
 1970 0233 06       		.uleb128 0x6
 1971 0234 10       		.byte	0x10
 1972 0235 03       		.byte	0x3
 1973 0236 AC       		.byte	0xac
 1974 0237 60020000 		.4byte	0x260
 1975 023b 07       		.uleb128 0x7
 1976 023c 7C000000 		.4byte	.LASF29
 1977 0240 03       		.byte	0x3
 1978 0241 AE       		.byte	0xae
 1979 0242 44010000 		.4byte	0x144
 1980 0246 00       		.byte	0
 1981 0247 07       		.uleb128 0x7
 1982 0248 92040000 		.4byte	.LASF30
 1983 024c 03       		.byte	0x3
 1984 024d AF       		.byte	0xaf
 1985 024e 44010000 		.4byte	0x144
 1986 0252 04       		.byte	0x4
 1987 0253 07       		.uleb128 0x7
 1988 0254 44020000 		.4byte	.LASF37
 1989 0258 03       		.byte	0x3
 1990 0259 B0       		.byte	0xb0
 1991 025a 0F010000 		.4byte	0x10f
 1992 025e 08       		.byte	0x8
 1993 025f 00       		.byte	0
 1994 0260 0A       		.uleb128 0xa
 1995 0261 10030000 		.4byte	.LASF38
 1996 0265 03       		.byte	0x3
 1997 0266 B1       		.byte	0xb1
 1998 0267 33020000 		.4byte	0x233
 1999 026b 0B       		.uleb128 0xb
 2000 026c 5C000000 		.4byte	.LASF42
 2001 0270 01       		.byte	0x1
 2002 0271 6E01     		.2byte	0x16e
 2003 0273 6B000000 		.4byte	0x6b
 2004 0277 00000000 		.4byte	.LFB4
 2005 027b 5C000000 		.4byte	.LFE4-.LFB4
 2006 027f 01       		.uleb128 0x1
 2007 0280 9C       		.byte	0x9c
 2008 0281 C8020000 		.4byte	0x2c8
 2009 0285 0C       		.uleb128 0xc
 2010 0286 82010000 		.4byte	.LASF39
 2011 028a 01       		.byte	0x1
 2012 028b 7001     		.2byte	0x170
 2013 028d 83000000 		.4byte	0x83
 2014 0291 00000000 		.4byte	.LLST0
 2015 0295 0C       		.uleb128 0xc
 2016 0296 B7040000 		.4byte	.LASF40
 2017 029a 01       		.byte	0x1
 2018 029b 7101     		.2byte	0x171
 2019 029d 6B000000 		.4byte	0x6b
 2020 02a1 2C000000 		.4byte	.LLST1
 2021 02a5 0C       		.uleb128 0xc
 2022 02a6 71040000 		.4byte	.LASF41
ARM GAS  C:\Users\HENRYH~1\AppData\Local\Temp\ccMT0gCo.s 			page 63


 2023 02aa 01       		.byte	0x1
 2024 02ab 7401     		.2byte	0x174
 2025 02ad 6B000000 		.4byte	0x6b
 2026 02b1 63000000 		.4byte	.LLST2
 2027 02b5 0D       		.uleb128 0xd
 2028 02b6 2E000000 		.4byte	.LVL5
 2029 02ba CE080000 		.4byte	0x8ce
 2030 02be 0D       		.uleb128 0xd
 2031 02bf 46000000 		.4byte	.LVL6
 2032 02c3 D9080000 		.4byte	0x8d9
 2033 02c7 00       		.byte	0
 2034 02c8 0B       		.uleb128 0xb
 2035 02c9 E3010000 		.4byte	.LASF43
 2036 02cd 01       		.byte	0x1
 2037 02ce AB01     		.2byte	0x1ab
 2038 02d0 6B000000 		.4byte	0x6b
 2039 02d4 00000000 		.4byte	.LFB5
 2040 02d8 20000000 		.4byte	.LFE5-.LFB5
 2041 02dc 01       		.uleb128 0x1
 2042 02dd 9C       		.byte	0x9c
 2043 02de F3020000 		.4byte	0x2f3
 2044 02e2 0C       		.uleb128 0xc
 2045 02e3 B7040000 		.4byte	.LASF40
 2046 02e7 01       		.byte	0x1
 2047 02e8 AD01     		.2byte	0x1ad
 2048 02ea 6B000000 		.4byte	0x6b
 2049 02ee 76000000 		.4byte	.LLST3
 2050 02f2 00       		.byte	0
 2051 02f3 0E       		.uleb128 0xe
 2052 02f4 05030000 		.4byte	.LASF44
 2053 02f8 01       		.byte	0x1
 2054 02f9 FE       		.byte	0xfe
 2055 02fa 6B000000 		.4byte	0x6b
 2056 02fe 00000000 		.4byte	.LFB2
 2057 0302 6C000000 		.4byte	.LFE2-.LFB2
 2058 0306 01       		.uleb128 0x1
 2059 0307 9C       		.byte	0x9c
 2060 0308 58030000 		.4byte	0x358
 2061 030c 0C       		.uleb128 0xc
 2062 030d 82010000 		.4byte	.LASF39
 2063 0311 01       		.byte	0x1
 2064 0312 0001     		.2byte	0x100
 2065 0314 83000000 		.4byte	0x83
 2066 0318 95000000 		.4byte	.LLST4
 2067 031c 0C       		.uleb128 0xc
 2068 031d B7040000 		.4byte	.LASF40
 2069 0321 01       		.byte	0x1
 2070 0322 0101     		.2byte	0x101
 2071 0324 6B000000 		.4byte	0x6b
 2072 0328 B6000000 		.4byte	.LLST5
 2073 032c 0C       		.uleb128 0xc
 2074 032d 71040000 		.4byte	.LASF41
 2075 0331 01       		.byte	0x1
 2076 0332 0401     		.2byte	0x104
 2077 0334 6B000000 		.4byte	0x6b
 2078 0338 D5000000 		.4byte	.LLST6
 2079 033c 0D       		.uleb128 0xd
ARM GAS  C:\Users\HENRYH~1\AppData\Local\Temp\ccMT0gCo.s 			page 64


 2080 033d 06000000 		.4byte	.LVL13
 2081 0341 CE080000 		.4byte	0x8ce
 2082 0345 0D       		.uleb128 0xd
 2083 0346 1E000000 		.4byte	.LVL14
 2084 034a D9080000 		.4byte	0x8d9
 2085 034e 0D       		.uleb128 0xd
 2086 034f 2A000000 		.4byte	.LVL15
 2087 0353 C8020000 		.4byte	0x2c8
 2088 0357 00       		.byte	0
 2089 0358 0B       		.uleb128 0xb
 2090 0359 B7000000 		.4byte	.LASF45
 2091 035d 01       		.byte	0x1
 2092 035e D501     		.2byte	0x1d5
 2093 0360 6B000000 		.4byte	0x6b
 2094 0364 00000000 		.4byte	.LFB6
 2095 0368 20000000 		.4byte	.LFE6-.LFB6
 2096 036c 01       		.uleb128 0x1
 2097 036d 9C       		.byte	0x9c
 2098 036e 83030000 		.4byte	0x383
 2099 0372 0C       		.uleb128 0xc
 2100 0373 B7040000 		.4byte	.LASF40
 2101 0377 01       		.byte	0x1
 2102 0378 D701     		.2byte	0x1d7
 2103 037a 6B000000 		.4byte	0x6b
 2104 037e E8000000 		.4byte	.LLST7
 2105 0382 00       		.byte	0
 2106 0383 0B       		.uleb128 0xb
 2107 0384 C9030000 		.4byte	.LASF46
 2108 0388 01       		.byte	0x1
 2109 0389 0702     		.2byte	0x207
 2110 038b 6B000000 		.4byte	0x6b
 2111 038f 00000000 		.4byte	.LFB7
 2112 0393 24000000 		.4byte	.LFE7-.LFB7
 2113 0397 01       		.uleb128 0x1
 2114 0398 9C       		.byte	0x9c
 2115 0399 BE030000 		.4byte	0x3be
 2116 039d 0F       		.uleb128 0xf
 2117 039e 95000000 		.4byte	.LASF48
 2118 03a2 01       		.byte	0x1
 2119 03a3 0702     		.2byte	0x207
 2120 03a5 77000000 		.4byte	0x77
 2121 03a9 07010000 		.4byte	.LLST8
 2122 03ad 0C       		.uleb128 0xc
 2123 03ae B7040000 		.4byte	.LASF40
 2124 03b2 01       		.byte	0x1
 2125 03b3 0902     		.2byte	0x209
 2126 03b5 6B000000 		.4byte	0x6b
 2127 03b9 5C010000 		.4byte	.LLST9
 2128 03bd 00       		.byte	0
 2129 03be 0B       		.uleb128 0xb
 2130 03bf 18020000 		.4byte	.LASF47
 2131 03c3 01       		.byte	0x1
 2132 03c4 3F02     		.2byte	0x23f
 2133 03c6 6B000000 		.4byte	0x6b
 2134 03ca 00000000 		.4byte	.LFB8
 2135 03ce 3C000000 		.4byte	.LFE8-.LFB8
 2136 03d2 01       		.uleb128 0x1
ARM GAS  C:\Users\HENRYH~1\AppData\Local\Temp\ccMT0gCo.s 			page 65


 2137 03d3 9C       		.byte	0x9c
 2138 03d4 F9030000 		.4byte	0x3f9
 2139 03d8 0F       		.uleb128 0xf
 2140 03d9 9D040000 		.4byte	.LASF49
 2141 03dd 01       		.byte	0x1
 2142 03de 3F02     		.2byte	0x23f
 2143 03e0 6B000000 		.4byte	0x6b
 2144 03e4 9F010000 		.4byte	.LLST10
 2145 03e8 0C       		.uleb128 0xc
 2146 03e9 B7040000 		.4byte	.LASF40
 2147 03ed 01       		.byte	0x1
 2148 03ee 4102     		.2byte	0x241
 2149 03f0 6B000000 		.4byte	0x6b
 2150 03f4 0B020000 		.4byte	.LLST11
 2151 03f8 00       		.byte	0
 2152 03f9 0B       		.uleb128 0xb
 2153 03fa 50040000 		.4byte	.LASF50
 2154 03fe 01       		.byte	0x1
 2155 03ff 8C02     		.2byte	0x28c
 2156 0401 6B000000 		.4byte	0x6b
 2157 0405 00000000 		.4byte	.LFB9
 2158 0409 84000000 		.4byte	.LFE9-.LFB9
 2159 040d 01       		.uleb128 0x1
 2160 040e 9C       		.byte	0x9c
 2161 040f 71040000 		.4byte	0x471
 2162 0413 0F       		.uleb128 0xf
 2163 0414 3E040000 		.4byte	.LASF51
 2164 0418 01       		.byte	0x1
 2165 0419 8C02     		.2byte	0x28c
 2166 041b 6B000000 		.4byte	0x6b
 2167 041f 2A020000 		.4byte	.LLST12
 2168 0423 10       		.uleb128 0x10
 2169 0424 47040000 		.4byte	.LASF52
 2170 0428 01       		.byte	0x1
 2171 0429 8C02     		.2byte	0x28c
 2172 042b 6B000000 		.4byte	0x6b
 2173 042f 01       		.uleb128 0x1
 2174 0430 51       		.byte	0x51
 2175 0431 11       		.uleb128 0x11
 2176 0432 736A7700 		.ascii	"sjw\000"
 2177 0436 01       		.byte	0x1
 2178 0437 8C02     		.2byte	0x28c
 2179 0439 6B000000 		.4byte	0x6b
 2180 043d E1020000 		.4byte	.LLST13
 2181 0441 11       		.uleb128 0x11
 2182 0442 736D00   		.ascii	"sm\000"
 2183 0445 01       		.byte	0x1
 2184 0446 8C02     		.2byte	0x28c
 2185 0448 6B000000 		.4byte	0x6b
 2186 044c 1B030000 		.4byte	.LLST14
 2187 0450 0C       		.uleb128 0xc
 2188 0451 B7040000 		.4byte	.LASF40
 2189 0455 01       		.byte	0x1
 2190 0456 8F02     		.2byte	0x28f
 2191 0458 6B000000 		.4byte	0x6b
 2192 045c 55030000 		.4byte	.LLST15
 2193 0460 0C       		.uleb128 0xc
ARM GAS  C:\Users\HENRYH~1\AppData\Local\Temp\ccMT0gCo.s 			page 66


 2194 0461 62020000 		.4byte	.LASF53
 2195 0465 01       		.byte	0x1
 2196 0466 9002     		.2byte	0x290
 2197 0468 6B000000 		.4byte	0x6b
 2198 046c 98030000 		.4byte	.LLST16
 2199 0470 00       		.byte	0
 2200 0471 0B       		.uleb128 0xb
 2201 0472 BE040000 		.4byte	.LASF54
 2202 0476 01       		.byte	0x1
 2203 0477 0103     		.2byte	0x301
 2204 0479 6B000000 		.4byte	0x6b
 2205 047d 00000000 		.4byte	.LFB10
 2206 0481 3C000000 		.4byte	.LFE10-.LFB10
 2207 0485 01       		.uleb128 0x1
 2208 0486 9C       		.byte	0x9c
 2209 0487 AC040000 		.4byte	0x4ac
 2210 048b 0F       		.uleb128 0xf
 2211 048c 1B000000 		.4byte	.LASF55
 2212 0490 01       		.byte	0x1
 2213 0491 0103     		.2byte	0x301
 2214 0493 6B000000 		.4byte	0x6b
 2215 0497 FA030000 		.4byte	.LLST17
 2216 049b 0C       		.uleb128 0xc
 2217 049c B7040000 		.4byte	.LASF40
 2218 04a0 01       		.byte	0x1
 2219 04a1 0303     		.2byte	0x303
 2220 04a3 6B000000 		.4byte	0x6b
 2221 04a7 66040000 		.4byte	.LLST18
 2222 04ab 00       		.byte	0
 2223 04ac 0B       		.uleb128 0xb
 2224 04ad DF030000 		.4byte	.LASF56
 2225 04b1 01       		.byte	0x1
 2226 04b2 4B03     		.2byte	0x34b
 2227 04b4 6B000000 		.4byte	0x6b
 2228 04b8 00000000 		.4byte	.LFB11
 2229 04bc 3C000000 		.4byte	.LFE11-.LFB11
 2230 04c0 01       		.uleb128 0x1
 2231 04c1 9C       		.byte	0x9c
 2232 04c2 E7040000 		.4byte	0x4e7
 2233 04c6 0F       		.uleb128 0xf
 2234 04c7 37000000 		.4byte	.LASF57
 2235 04cb 01       		.byte	0x1
 2236 04cc 4B03     		.2byte	0x34b
 2237 04ce 6B000000 		.4byte	0x6b
 2238 04d2 85040000 		.4byte	.LLST19
 2239 04d6 0C       		.uleb128 0xc
 2240 04d7 B7040000 		.4byte	.LASF40
 2241 04db 01       		.byte	0x1
 2242 04dc 4D03     		.2byte	0x34d
 2243 04de 6B000000 		.4byte	0x6b
 2244 04e2 F1040000 		.4byte	.LLST20
 2245 04e6 00       		.byte	0
 2246 04e7 0B       		.uleb128 0xb
 2247 04e8 8A010000 		.4byte	.LASF58
 2248 04ec 01       		.byte	0x1
 2249 04ed AA03     		.2byte	0x3aa
 2250 04ef 6B000000 		.4byte	0x6b
ARM GAS  C:\Users\HENRYH~1\AppData\Local\Temp\ccMT0gCo.s 			page 67


 2251 04f3 00000000 		.4byte	.LFB12
 2252 04f7 78000000 		.4byte	.LFE12-.LFB12
 2253 04fb 01       		.uleb128 0x1
 2254 04fc 9C       		.byte	0x9c
 2255 04fd 42050000 		.4byte	0x542
 2256 0501 0F       		.uleb128 0xf
 2257 0502 11020000 		.4byte	.LASF59
 2258 0506 01       		.byte	0x1
 2259 0507 AA03     		.2byte	0x3aa
 2260 0509 6B000000 		.4byte	0x6b
 2261 050d 10050000 		.4byte	.LLST21
 2262 0511 0C       		.uleb128 0xc
 2263 0512 82010000 		.4byte	.LASF39
 2264 0516 01       		.byte	0x1
 2265 0517 AD03     		.2byte	0x3ad
 2266 0519 83000000 		.4byte	0x83
 2267 051d 31050000 		.4byte	.LLST22
 2268 0521 0C       		.uleb128 0xc
 2269 0522 B7040000 		.4byte	.LASF40
 2270 0526 01       		.byte	0x1
 2271 0527 AF03     		.2byte	0x3af
 2272 0529 6B000000 		.4byte	0x6b
 2273 052d 6B050000 		.4byte	.LLST23
 2274 0531 0C       		.uleb128 0xc
 2275 0532 1A010000 		.4byte	.LASF60
 2276 0536 01       		.byte	0x1
 2277 0537 B003     		.2byte	0x3b0
 2278 0539 6B000000 		.4byte	0x6b
 2279 053d 8A050000 		.4byte	.LLST24
 2280 0541 00       		.byte	0
 2281 0542 0B       		.uleb128 0xb
 2282 0543 BC020000 		.4byte	.LASF61
 2283 0547 01       		.byte	0x1
 2284 0548 1A04     		.2byte	0x41a
 2285 054a 6B000000 		.4byte	0x6b
 2286 054e 00000000 		.4byte	.LFB13
 2287 0552 5C000000 		.4byte	.LFE13-.LFB13
 2288 0556 01       		.uleb128 0x1
 2289 0557 9C       		.byte	0x9c
 2290 0558 8D050000 		.4byte	0x58d
 2291 055c 0F       		.uleb128 0xf
 2292 055d 5A020000 		.4byte	.LASF62
 2293 0561 01       		.byte	0x1
 2294 0562 1A04     		.2byte	0x41a
 2295 0564 8D050000 		.4byte	0x58d
 2296 0568 A9050000 		.4byte	.LLST25
 2297 056c 0F       		.uleb128 0xf
 2298 056d EF030000 		.4byte	.LASF63
 2299 0571 01       		.byte	0x1
 2300 0572 1A04     		.2byte	0x41a
 2301 0574 83000000 		.4byte	0x83
 2302 0578 2E060000 		.4byte	.LLST26
 2303 057c 0C       		.uleb128 0xc
 2304 057d B7040000 		.4byte	.LASF40
 2305 0581 01       		.byte	0x1
 2306 0582 1D04     		.2byte	0x41d
 2307 0584 6B000000 		.4byte	0x6b
ARM GAS  C:\Users\HENRYH~1\AppData\Local\Temp\ccMT0gCo.s 			page 68


 2308 0588 8A060000 		.4byte	.LLST27
 2309 058c 00       		.byte	0
 2310 058d 12       		.uleb128 0x12
 2311 058e 04       		.byte	0x4
 2312 058f C6000000 		.4byte	0xc6
 2313 0593 0B       		.uleb128 0xb
 2314 0594 54010000 		.4byte	.LASF64
 2315 0598 01       		.byte	0x1
 2316 0599 7604     		.2byte	0x476
 2317 059b 6B000000 		.4byte	0x6b
 2318 059f 00000000 		.4byte	.LFB14
 2319 05a3 18000000 		.4byte	.LFE14-.LFB14
 2320 05a7 01       		.uleb128 0x1
 2321 05a8 9C       		.byte	0x9c
 2322 05a9 CE050000 		.4byte	0x5ce
 2323 05ad 0F       		.uleb128 0xf
 2324 05ae 3C010000 		.4byte	.LASF65
 2325 05b2 01       		.byte	0x1
 2326 05b3 7604     		.2byte	0x476
 2327 05b5 77000000 		.4byte	0x77
 2328 05b9 CD060000 		.4byte	.LLST28
 2329 05bd 0C       		.uleb128 0xc
 2330 05be B7040000 		.4byte	.LASF40
 2331 05c2 01       		.byte	0x1
 2332 05c3 7804     		.2byte	0x478
 2333 05c5 6B000000 		.4byte	0x6b
 2334 05c9 09070000 		.4byte	.LLST29
 2335 05cd 00       		.byte	0
 2336 05ce 13       		.uleb128 0x13
 2337 05cf F2020000 		.4byte	.LASF66
 2338 05d3 01       		.byte	0x1
 2339 05d4 A104     		.2byte	0x4a1
 2340 05d6 6B000000 		.4byte	0x6b
 2341 05da 00000000 		.4byte	.LFB15
 2342 05de 18000000 		.4byte	.LFE15-.LFB15
 2343 05e2 01       		.uleb128 0x1
 2344 05e3 9C       		.byte	0x9c
 2345 05e4 13       		.uleb128 0x13
 2346 05e5 41010000 		.4byte	.LASF67
 2347 05e9 01       		.byte	0x1
 2348 05ea BF04     		.2byte	0x4bf
 2349 05ec 6B000000 		.4byte	0x6b
 2350 05f0 00000000 		.4byte	.LFB16
 2351 05f4 18000000 		.4byte	.LFE16-.LFB16
 2352 05f8 01       		.uleb128 0x1
 2353 05f9 9C       		.byte	0x9c
 2354 05fa 13       		.uleb128 0x13
 2355 05fb 27020000 		.4byte	.LASF68
 2356 05ff 01       		.byte	0x1
 2357 0600 DC04     		.2byte	0x4dc
 2358 0602 6B000000 		.4byte	0x6b
 2359 0606 00000000 		.4byte	.LFB17
 2360 060a 0C000000 		.4byte	.LFE17-.LFB17
 2361 060e 01       		.uleb128 0x1
 2362 060f 9C       		.byte	0x9c
 2363 0610 13       		.uleb128 0x13
 2364 0611 00000000 		.4byte	.LASF69
ARM GAS  C:\Users\HENRYH~1\AppData\Local\Temp\ccMT0gCo.s 			page 69


 2365 0615 01       		.byte	0x1
 2366 0616 F604     		.2byte	0x4f6
 2367 0618 6B000000 		.4byte	0x6b
 2368 061c 00000000 		.4byte	.LFB18
 2369 0620 0C000000 		.4byte	.LFE18-.LFB18
 2370 0624 01       		.uleb128 0x1
 2371 0625 9C       		.byte	0x9c
 2372 0626 13       		.uleb128 0x13
 2373 0627 94020000 		.4byte	.LASF70
 2374 062b 01       		.byte	0x1
 2375 062c 1105     		.2byte	0x511
 2376 062e 6B000000 		.4byte	0x6b
 2377 0632 00000000 		.4byte	.LFB19
 2378 0636 10000000 		.4byte	.LFE19-.LFB19
 2379 063a 01       		.uleb128 0x1
 2380 063b 9C       		.byte	0x9c
 2381 063c 0B       		.uleb128 0xb
 2382 063d 82040000 		.4byte	.LASF71
 2383 0641 01       		.byte	0x1
 2384 0642 3005     		.2byte	0x530
 2385 0644 6B000000 		.4byte	0x6b
 2386 0648 00000000 		.4byte	.LFB20
 2387 064c 90000000 		.4byte	.LFE20-.LFB20
 2388 0650 01       		.uleb128 0x1
 2389 0651 9C       		.byte	0x9c
 2390 0652 77060000 		.4byte	0x677
 2391 0656 0F       		.uleb128 0xf
 2392 0657 3B020000 		.4byte	.LASF72
 2393 065b 01       		.byte	0x1
 2394 065c 3005     		.2byte	0x530
 2395 065e 77060000 		.4byte	0x677
 2396 0662 28070000 		.4byte	.LLST30
 2397 0666 0C       		.uleb128 0xc
 2398 0667 B7040000 		.4byte	.LASF40
 2399 066b 01       		.byte	0x1
 2400 066c 3305     		.2byte	0x533
 2401 066e 6B000000 		.4byte	0x6b
 2402 0672 C6070000 		.4byte	.LLST31
 2403 0676 00       		.byte	0
 2404 0677 12       		.uleb128 0x12
 2405 0678 04       		.byte	0x4
 2406 0679 7D060000 		.4byte	0x67d
 2407 067d 14       		.uleb128 0x14
 2408 067e 88010000 		.4byte	0x188
 2409 0682 0B       		.uleb128 0xb
 2410 0683 F6030000 		.4byte	.LASF73
 2411 0687 01       		.byte	0x1
 2412 0688 6905     		.2byte	0x569
 2413 068a 6B000000 		.4byte	0x6b
 2414 068e 00000000 		.4byte	.LFB21
 2415 0692 54000000 		.4byte	.LFE21-.LFB21
 2416 0696 01       		.uleb128 0x1
 2417 0697 9C       		.byte	0x9c
 2418 0698 BD060000 		.4byte	0x6bd
 2419 069c 0F       		.uleb128 0xf
 2420 069d 68040000 		.4byte	.LASF74
 2421 06a1 01       		.byte	0x1
ARM GAS  C:\Users\HENRYH~1\AppData\Local\Temp\ccMT0gCo.s 			page 70


 2422 06a2 6905     		.2byte	0x569
 2423 06a4 BD060000 		.4byte	0x6bd
 2424 06a8 E5070000 		.4byte	.LLST32
 2425 06ac 0C       		.uleb128 0xc
 2426 06ad B7040000 		.4byte	.LASF40
 2427 06b1 01       		.byte	0x1
 2428 06b2 6C05     		.2byte	0x56c
 2429 06b4 6B000000 		.4byte	0x6b
 2430 06b8 38080000 		.4byte	.LLST33
 2431 06bc 00       		.byte	0
 2432 06bd 12       		.uleb128 0x12
 2433 06be 04       		.byte	0x4
 2434 06bf C3060000 		.4byte	0x6c3
 2435 06c3 14       		.uleb128 0x14
 2436 06c4 C0010000 		.4byte	0x1c0
 2437 06c8 0E       		.uleb128 0xe
 2438 06c9 46000000 		.4byte	.LASF75
 2439 06cd 01       		.byte	0x1
 2440 06ce 2F       		.byte	0x2f
 2441 06cf 6B000000 		.4byte	0x6b
 2442 06d3 00000000 		.4byte	.LFB0
 2443 06d7 50000000 		.4byte	.LFE0-.LFB0
 2444 06db 01       		.uleb128 0x1
 2445 06dc 9C       		.byte	0x9c
 2446 06dd 59070000 		.4byte	0x759
 2447 06e1 15       		.uleb128 0x15
 2448 06e2 D0010000 		.4byte	.LASF76
 2449 06e6 01       		.byte	0x1
 2450 06e7 32       		.byte	0x32
 2451 06e8 69070000 		.4byte	0x769
 2452 06ec 05       		.uleb128 0x5
 2453 06ed 03       		.byte	0x3
 2454 06ee 60000000 		.4byte	CAN_RXConfigStruct.5056
 2455 06f2 15       		.uleb128 0x15
 2456 06f3 12040000 		.4byte	.LASF77
 2457 06f7 01       		.byte	0x1
 2458 06f8 46       		.byte	0x46
 2459 06f9 7E070000 		.4byte	0x77e
 2460 06fd 05       		.uleb128 0x5
 2461 06fe 03       		.byte	0x3
 2462 06ff 00000000 		.4byte	CAN_TXConfigStruct.5057
 2463 0703 16       		.uleb128 0x16
 2464 0704 B7040000 		.4byte	.LASF40
 2465 0708 01       		.byte	0x1
 2466 0709 52       		.byte	0x52
 2467 070a 6B000000 		.4byte	0x6b
 2468 070e 57080000 		.4byte	.LLST34
 2469 0712 17       		.uleb128 0x17
 2470 0713 6900     		.ascii	"i\000"
 2471 0715 01       		.byte	0x1
 2472 0716 53       		.byte	0x53
 2473 0717 6B000000 		.4byte	0x6b
 2474 071b 76080000 		.4byte	.LLST35
 2475 071f 18       		.uleb128 0x18
 2476 0720 14000000 		.4byte	.LVL132
 2477 0724 82060000 		.4byte	0x682
 2478 0728 40070000 		.4byte	0x740
ARM GAS  C:\Users\HENRYH~1\AppData\Local\Temp\ccMT0gCo.s 			page 71


 2479 072c 19       		.uleb128 0x19
 2480 072d 01       		.uleb128 0x1
 2481 072e 50       		.byte	0x50
 2482 072f 0F       		.uleb128 0xf
 2483 0730 74       		.byte	0x74
 2484 0731 00       		.sleb128 0
 2485 0732 31       		.byte	0x31
 2486 0733 24       		.byte	0x24
 2487 0734 74       		.byte	0x74
 2488 0735 00       		.sleb128 0
 2489 0736 22       		.byte	0x22
 2490 0737 32       		.byte	0x32
 2491 0738 24       		.byte	0x24
 2492 0739 03       		.byte	0x3
 2493 073a 00000000 		.4byte	.LANCHOR0
 2494 073e 22       		.byte	0x22
 2495 073f 00       		.byte	0
 2496 0740 1A       		.uleb128 0x1a
 2497 0741 32000000 		.4byte	.LVL136
 2498 0745 3C060000 		.4byte	0x63c
 2499 0749 19       		.uleb128 0x19
 2500 074a 01       		.uleb128 0x1
 2501 074b 50       		.byte	0x50
 2502 074c 0A       		.uleb128 0xa
 2503 074d 74       		.byte	0x74
 2504 074e 00       		.sleb128 0
 2505 074f 34       		.byte	0x34
 2506 0750 24       		.byte	0x24
 2507 0751 03       		.byte	0x3
 2508 0752 60000000 		.4byte	.LANCHOR0+96
 2509 0756 22       		.byte	0x22
 2510 0757 00       		.byte	0
 2511 0758 00       		.byte	0
 2512 0759 08       		.uleb128 0x8
 2513 075a 7D060000 		.4byte	0x67d
 2514 075e 69070000 		.4byte	0x769
 2515 0762 09       		.uleb128 0x9
 2516 0763 DE000000 		.4byte	0xde
 2517 0767 0F       		.byte	0xf
 2518 0768 00       		.byte	0
 2519 0769 14       		.uleb128 0x14
 2520 076a 59070000 		.4byte	0x759
 2521 076e 08       		.uleb128 0x8
 2522 076f C3060000 		.4byte	0x6c3
 2523 0773 7E070000 		.4byte	0x77e
 2524 0777 09       		.uleb128 0x9
 2525 0778 DE000000 		.4byte	0xde
 2526 077c 07       		.byte	0x7
 2527 077d 00       		.byte	0
 2528 077e 14       		.uleb128 0x14
 2529 077f 6E070000 		.4byte	0x76e
 2530 0783 0E       		.uleb128 0xe
 2531 0784 51020000 		.4byte	.LASF78
 2532 0788 01       		.byte	0x1
 2533 0789 89       		.byte	0x89
 2534 078a 6B000000 		.4byte	0x6b
 2535 078e 00000000 		.4byte	.LFB1
ARM GAS  C:\Users\HENRYH~1\AppData\Local\Temp\ccMT0gCo.s 			page 72


 2536 0792 E0000000 		.4byte	.LFE1-.LFB1
 2537 0796 01       		.uleb128 0x1
 2538 0797 9C       		.byte	0x9c
 2539 0798 80080000 		.4byte	0x880
 2540 079c 16       		.uleb128 0x16
 2541 079d 82010000 		.4byte	.LASF39
 2542 07a1 01       		.byte	0x1
 2543 07a2 8B       		.byte	0x8b
 2544 07a3 83000000 		.4byte	0x83
 2545 07a7 AB080000 		.4byte	.LLST36
 2546 07ab 16       		.uleb128 0x16
 2547 07ac B7040000 		.4byte	.LASF40
 2548 07b0 01       		.byte	0x1
 2549 07b1 8C       		.byte	0x8c
 2550 07b2 6B000000 		.4byte	0x6b
 2551 07b6 D7080000 		.4byte	.LLST37
 2552 07ba 16       		.uleb128 0x16
 2553 07bb 06040000 		.4byte	.LASF79
 2554 07bf 01       		.byte	0x1
 2555 07c0 8D       		.byte	0x8d
 2556 07c1 6B000000 		.4byte	0x6b
 2557 07c5 F6080000 		.4byte	.LLST38
 2558 07c9 16       		.uleb128 0x16
 2559 07ca 71040000 		.4byte	.LASF41
 2560 07ce 01       		.byte	0x1
 2561 07cf 90       		.byte	0x90
 2562 07d0 6B000000 		.4byte	0x6b
 2563 07d4 2C090000 		.4byte	.LLST39
 2564 07d8 0D       		.uleb128 0xd
 2565 07d9 06000000 		.4byte	.LVL143
 2566 07dd CE080000 		.4byte	0x8ce
 2567 07e1 0D       		.uleb128 0xd
 2568 07e2 1E000000 		.4byte	.LVL144
 2569 07e6 D9080000 		.4byte	0x8d9
 2570 07ea 18       		.uleb128 0x18
 2571 07eb 50000000 		.4byte	.LVL148
 2572 07ef E4080000 		.4byte	0x8e4
 2573 07f3 FD070000 		.4byte	0x7fd
 2574 07f7 19       		.uleb128 0x19
 2575 07f8 01       		.uleb128 0x1
 2576 07f9 50       		.byte	0x50
 2577 07fa 01       		.uleb128 0x1
 2578 07fb 40       		.byte	0x40
 2579 07fc 00       		.byte	0
 2580 07fd 18       		.uleb128 0x18
 2581 07fe 58000000 		.4byte	.LVL149
 2582 0802 EF080000 		.4byte	0x8ef
 2583 0806 15080000 		.4byte	0x815
 2584 080a 19       		.uleb128 0x19
 2585 080b 01       		.uleb128 0x1
 2586 080c 50       		.byte	0x50
 2587 080d 01       		.uleb128 0x1
 2588 080e 40       		.byte	0x40
 2589 080f 19       		.uleb128 0x19
 2590 0810 01       		.uleb128 0x1
 2591 0811 51       		.byte	0x51
 2592 0812 01       		.uleb128 0x1
ARM GAS  C:\Users\HENRYH~1\AppData\Local\Temp\ccMT0gCo.s 			page 73


 2593 0813 37       		.byte	0x37
 2594 0814 00       		.byte	0
 2595 0815 18       		.uleb128 0x18
 2596 0816 5E000000 		.4byte	.LVL150
 2597 081a 83030000 		.4byte	0x383
 2598 081e 28080000 		.4byte	0x828
 2599 0822 19       		.uleb128 0x19
 2600 0823 01       		.uleb128 0x1
 2601 0824 50       		.byte	0x50
 2602 0825 01       		.uleb128 0x1
 2603 0826 32       		.byte	0x32
 2604 0827 00       		.byte	0
 2605 0828 0D       		.uleb128 0xd
 2606 0829 64000000 		.4byte	.LVL151
 2607 082d BE030000 		.4byte	0x3be
 2608 0831 18       		.uleb128 0x18
 2609 0832 72000000 		.4byte	.LVL152
 2610 0836 F9030000 		.4byte	0x3f9
 2611 083a 53080000 		.4byte	0x853
 2612 083e 19       		.uleb128 0x19
 2613 083f 01       		.uleb128 0x1
 2614 0840 50       		.byte	0x50
 2615 0841 01       		.uleb128 0x1
 2616 0842 34       		.byte	0x34
 2617 0843 19       		.uleb128 0x19
 2618 0844 01       		.uleb128 0x1
 2619 0845 51       		.byte	0x51
 2620 0846 01       		.uleb128 0x1
 2621 0847 31       		.byte	0x31
 2622 0848 19       		.uleb128 0x19
 2623 0849 01       		.uleb128 0x1
 2624 084a 52       		.byte	0x52
 2625 084b 01       		.uleb128 0x1
 2626 084c 31       		.byte	0x31
 2627 084d 19       		.uleb128 0x19
 2628 084e 01       		.uleb128 0x1
 2629 084f 53       		.byte	0x53
 2630 0850 01       		.uleb128 0x1
 2631 0851 30       		.byte	0x30
 2632 0852 00       		.byte	0
 2633 0853 0D       		.uleb128 0xd
 2634 0854 78000000 		.4byte	.LVL153
 2635 0858 71040000 		.4byte	0x471
 2636 085c 0D       		.uleb128 0xd
 2637 085d 7E000000 		.4byte	.LVL154
 2638 0861 AC040000 		.4byte	0x4ac
 2639 0865 0D       		.uleb128 0xd
 2640 0866 9C000000 		.4byte	.LVL156
 2641 086a C8060000 		.4byte	0x6c8
 2642 086e 1A       		.uleb128 0x1a
 2643 086f A6000000 		.4byte	.LVL157
 2644 0873 93050000 		.4byte	0x593
 2645 0877 19       		.uleb128 0x19
 2646 0878 01       		.uleb128 0x1
 2647 0879 50       		.byte	0x50
 2648 087a 03       		.uleb128 0x3
 2649 087b 0A       		.byte	0xa
ARM GAS  C:\Users\HENRYH~1\AppData\Local\Temp\ccMT0gCo.s 			page 74


 2650 087c 0112     		.2byte	0x1201
 2651 087e 00       		.byte	0
 2652 087f 00       		.byte	0
 2653 0880 0B       		.uleb128 0xb
 2654 0881 3C000000 		.4byte	.LASF80
 2655 0885 01       		.byte	0x1
 2656 0886 4301     		.2byte	0x143
 2657 0888 6B000000 		.4byte	0x6b
 2658 088c 00000000 		.4byte	.LFB3
 2659 0890 24000000 		.4byte	.LFE3-.LFB3
 2660 0894 01       		.uleb128 0x1
 2661 0895 9C       		.byte	0x9c
 2662 0896 BD080000 		.4byte	0x8bd
 2663 089a 0C       		.uleb128 0xc
 2664 089b B7040000 		.4byte	.LASF40
 2665 089f 01       		.byte	0x1
 2666 08a0 4501     		.2byte	0x145
 2667 08a2 6B000000 		.4byte	0x6b
 2668 08a6 3F090000 		.4byte	.LLST40
 2669 08aa 0D       		.uleb128 0xd
 2670 08ab 0C000000 		.4byte	.LVL163
 2671 08af 83070000 		.4byte	0x783
 2672 08b3 0D       		.uleb128 0xd
 2673 08b4 1C000000 		.4byte	.LVL166
 2674 08b8 F3020000 		.4byte	0x2f3
 2675 08bc 00       		.byte	0
 2676 08bd 1B       		.uleb128 0x1b
 2677 08be 89000000 		.4byte	.LASF88
 2678 08c2 01       		.byte	0x1
 2679 08c3 16       		.byte	0x16
 2680 08c4 6B000000 		.4byte	0x6b
 2681 08c8 05       		.uleb128 0x5
 2682 08c9 03       		.byte	0x3
 2683 08ca 00000000 		.4byte	CAN_initVar
 2684 08ce 1C       		.uleb128 0x1c
 2685 08cf 98010000 		.4byte	.LASF81
 2686 08d3 98010000 		.4byte	.LASF81
 2687 08d7 04       		.byte	0x4
 2688 08d8 7D       		.byte	0x7d
 2689 08d9 1C       		.uleb128 0x1c
 2690 08da 21000000 		.4byte	.LASF82
 2691 08de 21000000 		.4byte	.LASF82
 2692 08e2 04       		.byte	0x4
 2693 08e3 7E       		.byte	0x7e
 2694 08e4 1C       		.uleb128 0x1c
 2695 08e5 F7010000 		.4byte	.LASF83
 2696 08e9 F7010000 		.4byte	.LASF83
 2697 08ed 04       		.byte	0x4
 2698 08ee 88       		.byte	0x88
 2699 08ef 1C       		.uleb128 0x1c
 2700 08f0 AB020000 		.4byte	.LASF84
 2701 08f4 AB020000 		.4byte	.LASF84
 2702 08f8 04       		.byte	0x4
 2703 08f9 8B       		.byte	0x8b
 2704 08fa 00       		.byte	0
 2705              		.section	.debug_abbrev,"",%progbits
 2706              	.Ldebug_abbrev0:
ARM GAS  C:\Users\HENRYH~1\AppData\Local\Temp\ccMT0gCo.s 			page 75


 2707 0000 01       		.uleb128 0x1
 2708 0001 11       		.uleb128 0x11
 2709 0002 01       		.byte	0x1
 2710 0003 25       		.uleb128 0x25
 2711 0004 0E       		.uleb128 0xe
 2712 0005 13       		.uleb128 0x13
 2713 0006 0B       		.uleb128 0xb
 2714 0007 03       		.uleb128 0x3
 2715 0008 0E       		.uleb128 0xe
 2716 0009 1B       		.uleb128 0x1b
 2717 000a 0E       		.uleb128 0xe
 2718 000b 55       		.uleb128 0x55
 2719 000c 17       		.uleb128 0x17
 2720 000d 11       		.uleb128 0x11
 2721 000e 01       		.uleb128 0x1
 2722 000f 10       		.uleb128 0x10
 2723 0010 17       		.uleb128 0x17
 2724 0011 00       		.byte	0
 2725 0012 00       		.byte	0
 2726 0013 02       		.uleb128 0x2
 2727 0014 24       		.uleb128 0x24
 2728 0015 00       		.byte	0
 2729 0016 0B       		.uleb128 0xb
 2730 0017 0B       		.uleb128 0xb
 2731 0018 3E       		.uleb128 0x3e
 2732 0019 0B       		.uleb128 0xb
 2733 001a 03       		.uleb128 0x3
 2734 001b 0E       		.uleb128 0xe
 2735 001c 00       		.byte	0
 2736 001d 00       		.byte	0
 2737 001e 03       		.uleb128 0x3
 2738 001f 24       		.uleb128 0x24
 2739 0020 00       		.byte	0
 2740 0021 0B       		.uleb128 0xb
 2741 0022 0B       		.uleb128 0xb
 2742 0023 3E       		.uleb128 0x3e
 2743 0024 0B       		.uleb128 0xb
 2744 0025 03       		.uleb128 0x3
 2745 0026 08       		.uleb128 0x8
 2746 0027 00       		.byte	0
 2747 0028 00       		.byte	0
 2748 0029 04       		.uleb128 0x4
 2749 002a 16       		.uleb128 0x16
 2750 002b 00       		.byte	0
 2751 002c 03       		.uleb128 0x3
 2752 002d 0E       		.uleb128 0xe
 2753 002e 3A       		.uleb128 0x3a
 2754 002f 0B       		.uleb128 0xb
 2755 0030 3B       		.uleb128 0x3b
 2756 0031 05       		.uleb128 0x5
 2757 0032 49       		.uleb128 0x49
 2758 0033 13       		.uleb128 0x13
 2759 0034 00       		.byte	0
 2760 0035 00       		.byte	0
 2761 0036 05       		.uleb128 0x5
 2762 0037 35       		.uleb128 0x35
 2763 0038 00       		.byte	0
ARM GAS  C:\Users\HENRYH~1\AppData\Local\Temp\ccMT0gCo.s 			page 76


 2764 0039 49       		.uleb128 0x49
 2765 003a 13       		.uleb128 0x13
 2766 003b 00       		.byte	0
 2767 003c 00       		.byte	0
 2768 003d 06       		.uleb128 0x6
 2769 003e 13       		.uleb128 0x13
 2770 003f 01       		.byte	0x1
 2771 0040 0B       		.uleb128 0xb
 2772 0041 0B       		.uleb128 0xb
 2773 0042 3A       		.uleb128 0x3a
 2774 0043 0B       		.uleb128 0xb
 2775 0044 3B       		.uleb128 0x3b
 2776 0045 0B       		.uleb128 0xb
 2777 0046 01       		.uleb128 0x1
 2778 0047 13       		.uleb128 0x13
 2779 0048 00       		.byte	0
 2780 0049 00       		.byte	0
 2781 004a 07       		.uleb128 0x7
 2782 004b 0D       		.uleb128 0xd
 2783 004c 00       		.byte	0
 2784 004d 03       		.uleb128 0x3
 2785 004e 0E       		.uleb128 0xe
 2786 004f 3A       		.uleb128 0x3a
 2787 0050 0B       		.uleb128 0xb
 2788 0051 3B       		.uleb128 0x3b
 2789 0052 0B       		.uleb128 0xb
 2790 0053 49       		.uleb128 0x49
 2791 0054 13       		.uleb128 0x13
 2792 0055 38       		.uleb128 0x38
 2793 0056 0B       		.uleb128 0xb
 2794 0057 00       		.byte	0
 2795 0058 00       		.byte	0
 2796 0059 08       		.uleb128 0x8
 2797 005a 01       		.uleb128 0x1
 2798 005b 01       		.byte	0x1
 2799 005c 49       		.uleb128 0x49
 2800 005d 13       		.uleb128 0x13
 2801 005e 01       		.uleb128 0x1
 2802 005f 13       		.uleb128 0x13
 2803 0060 00       		.byte	0
 2804 0061 00       		.byte	0
 2805 0062 09       		.uleb128 0x9
 2806 0063 21       		.uleb128 0x21
 2807 0064 00       		.byte	0
 2808 0065 49       		.uleb128 0x49
 2809 0066 13       		.uleb128 0x13
 2810 0067 2F       		.uleb128 0x2f
 2811 0068 0B       		.uleb128 0xb
 2812 0069 00       		.byte	0
 2813 006a 00       		.byte	0
 2814 006b 0A       		.uleb128 0xa
 2815 006c 16       		.uleb128 0x16
 2816 006d 00       		.byte	0
 2817 006e 03       		.uleb128 0x3
 2818 006f 0E       		.uleb128 0xe
 2819 0070 3A       		.uleb128 0x3a
 2820 0071 0B       		.uleb128 0xb
ARM GAS  C:\Users\HENRYH~1\AppData\Local\Temp\ccMT0gCo.s 			page 77


 2821 0072 3B       		.uleb128 0x3b
 2822 0073 0B       		.uleb128 0xb
 2823 0074 49       		.uleb128 0x49
 2824 0075 13       		.uleb128 0x13
 2825 0076 00       		.byte	0
 2826 0077 00       		.byte	0
 2827 0078 0B       		.uleb128 0xb
 2828 0079 2E       		.uleb128 0x2e
 2829 007a 01       		.byte	0x1
 2830 007b 3F       		.uleb128 0x3f
 2831 007c 19       		.uleb128 0x19
 2832 007d 03       		.uleb128 0x3
 2833 007e 0E       		.uleb128 0xe
 2834 007f 3A       		.uleb128 0x3a
 2835 0080 0B       		.uleb128 0xb
 2836 0081 3B       		.uleb128 0x3b
 2837 0082 05       		.uleb128 0x5
 2838 0083 27       		.uleb128 0x27
 2839 0084 19       		.uleb128 0x19
 2840 0085 49       		.uleb128 0x49
 2841 0086 13       		.uleb128 0x13
 2842 0087 11       		.uleb128 0x11
 2843 0088 01       		.uleb128 0x1
 2844 0089 12       		.uleb128 0x12
 2845 008a 06       		.uleb128 0x6
 2846 008b 40       		.uleb128 0x40
 2847 008c 18       		.uleb128 0x18
 2848 008d 9742     		.uleb128 0x2117
 2849 008f 19       		.uleb128 0x19
 2850 0090 01       		.uleb128 0x1
 2851 0091 13       		.uleb128 0x13
 2852 0092 00       		.byte	0
 2853 0093 00       		.byte	0
 2854 0094 0C       		.uleb128 0xc
 2855 0095 34       		.uleb128 0x34
 2856 0096 00       		.byte	0
 2857 0097 03       		.uleb128 0x3
 2858 0098 0E       		.uleb128 0xe
 2859 0099 3A       		.uleb128 0x3a
 2860 009a 0B       		.uleb128 0xb
 2861 009b 3B       		.uleb128 0x3b
 2862 009c 05       		.uleb128 0x5
 2863 009d 49       		.uleb128 0x49
 2864 009e 13       		.uleb128 0x13
 2865 009f 02       		.uleb128 0x2
 2866 00a0 17       		.uleb128 0x17
 2867 00a1 00       		.byte	0
 2868 00a2 00       		.byte	0
 2869 00a3 0D       		.uleb128 0xd
 2870 00a4 898201   		.uleb128 0x4109
 2871 00a7 00       		.byte	0
 2872 00a8 11       		.uleb128 0x11
 2873 00a9 01       		.uleb128 0x1
 2874 00aa 31       		.uleb128 0x31
 2875 00ab 13       		.uleb128 0x13
 2876 00ac 00       		.byte	0
 2877 00ad 00       		.byte	0
ARM GAS  C:\Users\HENRYH~1\AppData\Local\Temp\ccMT0gCo.s 			page 78


 2878 00ae 0E       		.uleb128 0xe
 2879 00af 2E       		.uleb128 0x2e
 2880 00b0 01       		.byte	0x1
 2881 00b1 3F       		.uleb128 0x3f
 2882 00b2 19       		.uleb128 0x19
 2883 00b3 03       		.uleb128 0x3
 2884 00b4 0E       		.uleb128 0xe
 2885 00b5 3A       		.uleb128 0x3a
 2886 00b6 0B       		.uleb128 0xb
 2887 00b7 3B       		.uleb128 0x3b
 2888 00b8 0B       		.uleb128 0xb
 2889 00b9 27       		.uleb128 0x27
 2890 00ba 19       		.uleb128 0x19
 2891 00bb 49       		.uleb128 0x49
 2892 00bc 13       		.uleb128 0x13
 2893 00bd 11       		.uleb128 0x11
 2894 00be 01       		.uleb128 0x1
 2895 00bf 12       		.uleb128 0x12
 2896 00c0 06       		.uleb128 0x6
 2897 00c1 40       		.uleb128 0x40
 2898 00c2 18       		.uleb128 0x18
 2899 00c3 9742     		.uleb128 0x2117
 2900 00c5 19       		.uleb128 0x19
 2901 00c6 01       		.uleb128 0x1
 2902 00c7 13       		.uleb128 0x13
 2903 00c8 00       		.byte	0
 2904 00c9 00       		.byte	0
 2905 00ca 0F       		.uleb128 0xf
 2906 00cb 05       		.uleb128 0x5
 2907 00cc 00       		.byte	0
 2908 00cd 03       		.uleb128 0x3
 2909 00ce 0E       		.uleb128 0xe
 2910 00cf 3A       		.uleb128 0x3a
 2911 00d0 0B       		.uleb128 0xb
 2912 00d1 3B       		.uleb128 0x3b
 2913 00d2 05       		.uleb128 0x5
 2914 00d3 49       		.uleb128 0x49
 2915 00d4 13       		.uleb128 0x13
 2916 00d5 02       		.uleb128 0x2
 2917 00d6 17       		.uleb128 0x17
 2918 00d7 00       		.byte	0
 2919 00d8 00       		.byte	0
 2920 00d9 10       		.uleb128 0x10
 2921 00da 05       		.uleb128 0x5
 2922 00db 00       		.byte	0
 2923 00dc 03       		.uleb128 0x3
 2924 00dd 0E       		.uleb128 0xe
 2925 00de 3A       		.uleb128 0x3a
 2926 00df 0B       		.uleb128 0xb
 2927 00e0 3B       		.uleb128 0x3b
 2928 00e1 05       		.uleb128 0x5
 2929 00e2 49       		.uleb128 0x49
 2930 00e3 13       		.uleb128 0x13
 2931 00e4 02       		.uleb128 0x2
 2932 00e5 18       		.uleb128 0x18
 2933 00e6 00       		.byte	0
 2934 00e7 00       		.byte	0
ARM GAS  C:\Users\HENRYH~1\AppData\Local\Temp\ccMT0gCo.s 			page 79


 2935 00e8 11       		.uleb128 0x11
 2936 00e9 05       		.uleb128 0x5
 2937 00ea 00       		.byte	0
 2938 00eb 03       		.uleb128 0x3
 2939 00ec 08       		.uleb128 0x8
 2940 00ed 3A       		.uleb128 0x3a
 2941 00ee 0B       		.uleb128 0xb
 2942 00ef 3B       		.uleb128 0x3b
 2943 00f0 05       		.uleb128 0x5
 2944 00f1 49       		.uleb128 0x49
 2945 00f2 13       		.uleb128 0x13
 2946 00f3 02       		.uleb128 0x2
 2947 00f4 17       		.uleb128 0x17
 2948 00f5 00       		.byte	0
 2949 00f6 00       		.byte	0
 2950 00f7 12       		.uleb128 0x12
 2951 00f8 0F       		.uleb128 0xf
 2952 00f9 00       		.byte	0
 2953 00fa 0B       		.uleb128 0xb
 2954 00fb 0B       		.uleb128 0xb
 2955 00fc 49       		.uleb128 0x49
 2956 00fd 13       		.uleb128 0x13
 2957 00fe 00       		.byte	0
 2958 00ff 00       		.byte	0
 2959 0100 13       		.uleb128 0x13
 2960 0101 2E       		.uleb128 0x2e
 2961 0102 00       		.byte	0
 2962 0103 3F       		.uleb128 0x3f
 2963 0104 19       		.uleb128 0x19
 2964 0105 03       		.uleb128 0x3
 2965 0106 0E       		.uleb128 0xe
 2966 0107 3A       		.uleb128 0x3a
 2967 0108 0B       		.uleb128 0xb
 2968 0109 3B       		.uleb128 0x3b
 2969 010a 05       		.uleb128 0x5
 2970 010b 27       		.uleb128 0x27
 2971 010c 19       		.uleb128 0x19
 2972 010d 49       		.uleb128 0x49
 2973 010e 13       		.uleb128 0x13
 2974 010f 11       		.uleb128 0x11
 2975 0110 01       		.uleb128 0x1
 2976 0111 12       		.uleb128 0x12
 2977 0112 06       		.uleb128 0x6
 2978 0113 40       		.uleb128 0x40
 2979 0114 18       		.uleb128 0x18
 2980 0115 9742     		.uleb128 0x2117
 2981 0117 19       		.uleb128 0x19
 2982 0118 00       		.byte	0
 2983 0119 00       		.byte	0
 2984 011a 14       		.uleb128 0x14
 2985 011b 26       		.uleb128 0x26
 2986 011c 00       		.byte	0
 2987 011d 49       		.uleb128 0x49
 2988 011e 13       		.uleb128 0x13
 2989 011f 00       		.byte	0
 2990 0120 00       		.byte	0
 2991 0121 15       		.uleb128 0x15
ARM GAS  C:\Users\HENRYH~1\AppData\Local\Temp\ccMT0gCo.s 			page 80


 2992 0122 34       		.uleb128 0x34
 2993 0123 00       		.byte	0
 2994 0124 03       		.uleb128 0x3
 2995 0125 0E       		.uleb128 0xe
 2996 0126 3A       		.uleb128 0x3a
 2997 0127 0B       		.uleb128 0xb
 2998 0128 3B       		.uleb128 0x3b
 2999 0129 0B       		.uleb128 0xb
 3000 012a 49       		.uleb128 0x49
 3001 012b 13       		.uleb128 0x13
 3002 012c 02       		.uleb128 0x2
 3003 012d 18       		.uleb128 0x18
 3004 012e 00       		.byte	0
 3005 012f 00       		.byte	0
 3006 0130 16       		.uleb128 0x16
 3007 0131 34       		.uleb128 0x34
 3008 0132 00       		.byte	0
 3009 0133 03       		.uleb128 0x3
 3010 0134 0E       		.uleb128 0xe
 3011 0135 3A       		.uleb128 0x3a
 3012 0136 0B       		.uleb128 0xb
 3013 0137 3B       		.uleb128 0x3b
 3014 0138 0B       		.uleb128 0xb
 3015 0139 49       		.uleb128 0x49
 3016 013a 13       		.uleb128 0x13
 3017 013b 02       		.uleb128 0x2
 3018 013c 17       		.uleb128 0x17
 3019 013d 00       		.byte	0
 3020 013e 00       		.byte	0
 3021 013f 17       		.uleb128 0x17
 3022 0140 34       		.uleb128 0x34
 3023 0141 00       		.byte	0
 3024 0142 03       		.uleb128 0x3
 3025 0143 08       		.uleb128 0x8
 3026 0144 3A       		.uleb128 0x3a
 3027 0145 0B       		.uleb128 0xb
 3028 0146 3B       		.uleb128 0x3b
 3029 0147 0B       		.uleb128 0xb
 3030 0148 49       		.uleb128 0x49
 3031 0149 13       		.uleb128 0x13
 3032 014a 02       		.uleb128 0x2
 3033 014b 17       		.uleb128 0x17
 3034 014c 00       		.byte	0
 3035 014d 00       		.byte	0
 3036 014e 18       		.uleb128 0x18
 3037 014f 898201   		.uleb128 0x4109
 3038 0152 01       		.byte	0x1
 3039 0153 11       		.uleb128 0x11
 3040 0154 01       		.uleb128 0x1
 3041 0155 31       		.uleb128 0x31
 3042 0156 13       		.uleb128 0x13
 3043 0157 01       		.uleb128 0x1
 3044 0158 13       		.uleb128 0x13
 3045 0159 00       		.byte	0
 3046 015a 00       		.byte	0
 3047 015b 19       		.uleb128 0x19
 3048 015c 8A8201   		.uleb128 0x410a
ARM GAS  C:\Users\HENRYH~1\AppData\Local\Temp\ccMT0gCo.s 			page 81


 3049 015f 00       		.byte	0
 3050 0160 02       		.uleb128 0x2
 3051 0161 18       		.uleb128 0x18
 3052 0162 9142     		.uleb128 0x2111
 3053 0164 18       		.uleb128 0x18
 3054 0165 00       		.byte	0
 3055 0166 00       		.byte	0
 3056 0167 1A       		.uleb128 0x1a
 3057 0168 898201   		.uleb128 0x4109
 3058 016b 01       		.byte	0x1
 3059 016c 11       		.uleb128 0x11
 3060 016d 01       		.uleb128 0x1
 3061 016e 31       		.uleb128 0x31
 3062 016f 13       		.uleb128 0x13
 3063 0170 00       		.byte	0
 3064 0171 00       		.byte	0
 3065 0172 1B       		.uleb128 0x1b
 3066 0173 34       		.uleb128 0x34
 3067 0174 00       		.byte	0
 3068 0175 03       		.uleb128 0x3
 3069 0176 0E       		.uleb128 0xe
 3070 0177 3A       		.uleb128 0x3a
 3071 0178 0B       		.uleb128 0xb
 3072 0179 3B       		.uleb128 0x3b
 3073 017a 0B       		.uleb128 0xb
 3074 017b 49       		.uleb128 0x49
 3075 017c 13       		.uleb128 0x13
 3076 017d 3F       		.uleb128 0x3f
 3077 017e 19       		.uleb128 0x19
 3078 017f 02       		.uleb128 0x2
 3079 0180 18       		.uleb128 0x18
 3080 0181 00       		.byte	0
 3081 0182 00       		.byte	0
 3082 0183 1C       		.uleb128 0x1c
 3083 0184 2E       		.uleb128 0x2e
 3084 0185 00       		.byte	0
 3085 0186 3F       		.uleb128 0x3f
 3086 0187 19       		.uleb128 0x19
 3087 0188 3C       		.uleb128 0x3c
 3088 0189 19       		.uleb128 0x19
 3089 018a 6E       		.uleb128 0x6e
 3090 018b 0E       		.uleb128 0xe
 3091 018c 03       		.uleb128 0x3
 3092 018d 0E       		.uleb128 0xe
 3093 018e 3A       		.uleb128 0x3a
 3094 018f 0B       		.uleb128 0xb
 3095 0190 3B       		.uleb128 0x3b
 3096 0191 0B       		.uleb128 0xb
 3097 0192 00       		.byte	0
 3098 0193 00       		.byte	0
 3099 0194 00       		.byte	0
 3100              		.section	.debug_loc,"",%progbits
 3101              	.Ldebug_loc0:
 3102              	.LLST0:
 3103 0000 02000000 		.4byte	.LVL0
 3104 0004 12000000 		.4byte	.LVL1
 3105 0008 0400     		.2byte	0x4
ARM GAS  C:\Users\HENRYH~1\AppData\Local\Temp\ccMT0gCo.s 			page 82


 3106 000a 0A       		.byte	0xa
 3107 000b 000F     		.2byte	0xf00
 3108 000d 9F       		.byte	0x9f
 3109 000e 12000000 		.4byte	.LVL1
 3110 0012 28000000 		.4byte	.LVL4
 3111 0016 0100     		.2byte	0x1
 3112 0018 53       		.byte	0x53
 3113 0019 4A000000 		.4byte	.LVL7
 3114 001d 4E000000 		.4byte	.LVL9
 3115 0021 0100     		.2byte	0x1
 3116 0023 53       		.byte	0x53
 3117 0024 00000000 		.4byte	0
 3118 0028 00000000 		.4byte	0
 3119              	.LLST1:
 3120 002c 02000000 		.4byte	.LVL0
 3121 0030 22000000 		.4byte	.LVL3
 3122 0034 0200     		.2byte	0x2
 3123 0036 31       		.byte	0x31
 3124 0037 9F       		.byte	0x9f
 3125 0038 22000000 		.4byte	.LVL3
 3126 003c 4A000000 		.4byte	.LVL7
 3127 0040 0200     		.2byte	0x2
 3128 0042 30       		.byte	0x30
 3129 0043 9F       		.byte	0x9f
 3130 0044 4A000000 		.4byte	.LVL7
 3131 0048 4C000000 		.4byte	.LVL8
 3132 004c 0200     		.2byte	0x2
 3133 004e 31       		.byte	0x31
 3134 004f 9F       		.byte	0x9f
 3135 0050 4C000000 		.4byte	.LVL8
 3136 0054 5C000000 		.4byte	.LFE4
 3137 0058 0100     		.2byte	0x1
 3138 005a 50       		.byte	0x50
 3139 005b 00000000 		.4byte	0
 3140 005f 00000000 		.4byte	0
 3141              	.LLST2:
 3142 0063 2E000000 		.4byte	.LVL5
 3143 0067 45000000 		.4byte	.LVL6-1
 3144 006b 0100     		.2byte	0x1
 3145 006d 50       		.byte	0x50
 3146 006e 00000000 		.4byte	0
 3147 0072 00000000 		.4byte	0
 3148              	.LLST3:
 3149 0076 00000000 		.4byte	.LVL10
 3150 007a 18000000 		.4byte	.LVL11
 3151 007e 0200     		.2byte	0x2
 3152 0080 31       		.byte	0x31
 3153 0081 9F       		.byte	0x9f
 3154 0082 18000000 		.4byte	.LVL11
 3155 0086 20000000 		.4byte	.LFE5
 3156 008a 0100     		.2byte	0x1
 3157 008c 50       		.byte	0x50
 3158 008d 00000000 		.4byte	0
 3159 0091 00000000 		.4byte	0
 3160              	.LLST4:
 3161 0095 02000000 		.4byte	.LVL12
 3162 0099 42000000 		.4byte	.LVL16
ARM GAS  C:\Users\HENRYH~1\AppData\Local\Temp\ccMT0gCo.s 			page 83


 3163 009d 0400     		.2byte	0x4
 3164 009f 0A       		.byte	0xa
 3165 00a0 2001     		.2byte	0x120
 3166 00a2 9F       		.byte	0x9f
 3167 00a3 42000000 		.4byte	.LVL16
 3168 00a7 5A000000 		.4byte	.LVL20
 3169 00ab 0100     		.2byte	0x1
 3170 00ad 53       		.byte	0x53
 3171 00ae 00000000 		.4byte	0
 3172 00b2 00000000 		.4byte	0
 3173              	.LLST5:
 3174 00b6 02000000 		.4byte	.LVL12
 3175 00ba 58000000 		.4byte	.LVL19
 3176 00be 0200     		.2byte	0x2
 3177 00c0 31       		.byte	0x31
 3178 00c1 9F       		.byte	0x9f
 3179 00c2 58000000 		.4byte	.LVL19
 3180 00c6 6C000000 		.4byte	.LFE2
 3181 00ca 0100     		.2byte	0x1
 3182 00cc 50       		.byte	0x50
 3183 00cd 00000000 		.4byte	0
 3184 00d1 00000000 		.4byte	0
 3185              	.LLST6:
 3186 00d5 06000000 		.4byte	.LVL13
 3187 00d9 1D000000 		.4byte	.LVL14-1
 3188 00dd 0100     		.2byte	0x1
 3189 00df 50       		.byte	0x50
 3190 00e0 00000000 		.4byte	0
 3191 00e4 00000000 		.4byte	0
 3192              	.LLST7:
 3193 00e8 00000000 		.4byte	.LVL21
 3194 00ec 18000000 		.4byte	.LVL22
 3195 00f0 0200     		.2byte	0x2
 3196 00f2 31       		.byte	0x31
 3197 00f3 9F       		.byte	0x9f
 3198 00f4 18000000 		.4byte	.LVL22
 3199 00f8 20000000 		.4byte	.LFE6
 3200 00fc 0100     		.2byte	0x1
 3201 00fe 50       		.byte	0x50
 3202 00ff 00000000 		.4byte	0
 3203 0103 00000000 		.4byte	0
 3204              	.LLST8:
 3205 0107 00000000 		.4byte	.LVL23
 3206 010b 14000000 		.4byte	.LVL25
 3207 010f 0100     		.2byte	0x1
 3208 0111 50       		.byte	0x50
 3209 0112 14000000 		.4byte	.LVL25
 3210 0116 16000000 		.4byte	.LVL26
 3211 011a 0500     		.2byte	0x5
 3212 011c 0C       		.byte	0xc
 3213 011d 16A00040 		.4byte	0x4000a016
 3214 0121 16000000 		.4byte	.LVL26
 3215 0125 18000000 		.4byte	.LVL27
 3216 0129 0100     		.2byte	0x1
 3217 012b 50       		.byte	0x50
 3218 012c 18000000 		.4byte	.LVL27
 3219 0130 1A000000 		.4byte	.LVL28
ARM GAS  C:\Users\HENRYH~1\AppData\Local\Temp\ccMT0gCo.s 			page 84


 3220 0134 0400     		.2byte	0x4
 3221 0136 F3       		.byte	0xf3
 3222 0137 01       		.uleb128 0x1
 3223 0138 50       		.byte	0x50
 3224 0139 9F       		.byte	0x9f
 3225 013a 1A000000 		.4byte	.LVL28
 3226 013e 1C000000 		.4byte	.LVL29
 3227 0142 0100     		.2byte	0x1
 3228 0144 50       		.byte	0x50
 3229 0145 1C000000 		.4byte	.LVL29
 3230 0149 24000000 		.4byte	.LFE7
 3231 014d 0500     		.2byte	0x5
 3232 014f 0C       		.byte	0xc
 3233 0150 16A00040 		.4byte	0x4000a016
 3234 0154 00000000 		.4byte	0
 3235 0158 00000000 		.4byte	0
 3236              	.LLST9:
 3237 015c 00000000 		.4byte	.LVL23
 3238 0160 06000000 		.4byte	.LVL24
 3239 0164 0200     		.2byte	0x2
 3240 0166 32       		.byte	0x32
 3241 0167 9F       		.byte	0x9f
 3242 0168 06000000 		.4byte	.LVL24
 3243 016c 16000000 		.4byte	.LVL26
 3244 0170 0200     		.2byte	0x2
 3245 0172 31       		.byte	0x31
 3246 0173 9F       		.byte	0x9f
 3247 0174 16000000 		.4byte	.LVL26
 3248 0178 1A000000 		.4byte	.LVL28
 3249 017c 0200     		.2byte	0x2
 3250 017e 32       		.byte	0x32
 3251 017f 9F       		.byte	0x9f
 3252 0180 1A000000 		.4byte	.LVL28
 3253 0184 1C000000 		.4byte	.LVL29
 3254 0188 0200     		.2byte	0x2
 3255 018a 31       		.byte	0x31
 3256 018b 9F       		.byte	0x9f
 3257 018c 1C000000 		.4byte	.LVL29
 3258 0190 24000000 		.4byte	.LFE7
 3259 0194 0100     		.2byte	0x1
 3260 0196 50       		.byte	0x50
 3261 0197 00000000 		.4byte	0
 3262 019b 00000000 		.4byte	0
 3263              	.LLST10:
 3264 019f 00000000 		.4byte	.LVL30
 3265 01a3 16000000 		.4byte	.LVL31
 3266 01a7 0100     		.2byte	0x1
 3267 01a9 50       		.byte	0x50
 3268 01aa 16000000 		.4byte	.LVL31
 3269 01ae 18000000 		.4byte	.LVL32
 3270 01b2 0400     		.2byte	0x4
 3271 01b4 F3       		.byte	0xf3
 3272 01b5 01       		.uleb128 0x1
 3273 01b6 50       		.byte	0x50
 3274 01b7 9F       		.byte	0x9f
 3275 01b8 18000000 		.4byte	.LVL32
 3276 01bc 2C000000 		.4byte	.LVL33
ARM GAS  C:\Users\HENRYH~1\AppData\Local\Temp\ccMT0gCo.s 			page 85


 3277 01c0 0100     		.2byte	0x1
 3278 01c2 50       		.byte	0x50
 3279 01c3 2C000000 		.4byte	.LVL33
 3280 01c7 2E000000 		.4byte	.LVL34
 3281 01cb 0400     		.2byte	0x4
 3282 01cd F3       		.byte	0xf3
 3283 01ce 01       		.uleb128 0x1
 3284 01cf 50       		.byte	0x50
 3285 01d0 9F       		.byte	0x9f
 3286 01d1 2E000000 		.4byte	.LVL34
 3287 01d5 30000000 		.4byte	.LVL35
 3288 01d9 0100     		.2byte	0x1
 3289 01db 50       		.byte	0x50
 3290 01dc 30000000 		.4byte	.LVL35
 3291 01e0 32000000 		.4byte	.LVL36
 3292 01e4 0400     		.2byte	0x4
 3293 01e6 F3       		.byte	0xf3
 3294 01e7 01       		.uleb128 0x1
 3295 01e8 50       		.byte	0x50
 3296 01e9 9F       		.byte	0x9f
 3297 01ea 32000000 		.4byte	.LVL36
 3298 01ee 34000000 		.4byte	.LVL37
 3299 01f2 0100     		.2byte	0x1
 3300 01f4 50       		.byte	0x50
 3301 01f5 34000000 		.4byte	.LVL37
 3302 01f9 3C000000 		.4byte	.LFE8
 3303 01fd 0400     		.2byte	0x4
 3304 01ff F3       		.byte	0xf3
 3305 0200 01       		.uleb128 0x1
 3306 0201 50       		.byte	0x50
 3307 0202 9F       		.byte	0x9f
 3308 0203 00000000 		.4byte	0
 3309 0207 00000000 		.4byte	0
 3310              	.LLST11:
 3311 020b 00000000 		.4byte	.LVL30
 3312 020f 34000000 		.4byte	.LVL37
 3313 0213 0200     		.2byte	0x2
 3314 0215 31       		.byte	0x31
 3315 0216 9F       		.byte	0x9f
 3316 0217 34000000 		.4byte	.LVL37
 3317 021b 3C000000 		.4byte	.LFE8
 3318 021f 0100     		.2byte	0x1
 3319 0221 50       		.byte	0x50
 3320 0222 00000000 		.4byte	0
 3321 0226 00000000 		.4byte	0
 3322              	.LLST12:
 3323 022a 00000000 		.4byte	.LVL38
 3324 022e 2E000000 		.4byte	.LVL43
 3325 0232 0100     		.2byte	0x1
 3326 0234 50       		.byte	0x50
 3327 0235 2E000000 		.4byte	.LVL43
 3328 0239 5C000000 		.4byte	.LVL49
 3329 023d 0400     		.2byte	0x4
 3330 023f F3       		.byte	0xf3
 3331 0240 01       		.uleb128 0x1
 3332 0241 50       		.byte	0x50
 3333 0242 9F       		.byte	0x9f
ARM GAS  C:\Users\HENRYH~1\AppData\Local\Temp\ccMT0gCo.s 			page 86


 3334 0243 5C000000 		.4byte	.LVL49
 3335 0247 5E000000 		.4byte	.LVL50
 3336 024b 0100     		.2byte	0x1
 3337 024d 50       		.byte	0x50
 3338 024e 5E000000 		.4byte	.LVL50
 3339 0252 60000000 		.4byte	.LVL51
 3340 0256 0400     		.2byte	0x4
 3341 0258 F3       		.byte	0xf3
 3342 0259 01       		.uleb128 0x1
 3343 025a 50       		.byte	0x50
 3344 025b 9F       		.byte	0x9f
 3345 025c 60000000 		.4byte	.LVL51
 3346 0260 62000000 		.4byte	.LVL52
 3347 0264 0100     		.2byte	0x1
 3348 0266 50       		.byte	0x50
 3349 0267 62000000 		.4byte	.LVL52
 3350 026b 64000000 		.4byte	.LVL53
 3351 026f 0400     		.2byte	0x4
 3352 0271 F3       		.byte	0xf3
 3353 0272 01       		.uleb128 0x1
 3354 0273 50       		.byte	0x50
 3355 0274 9F       		.byte	0x9f
 3356 0275 64000000 		.4byte	.LVL53
 3357 0279 66000000 		.4byte	.LVL54
 3358 027d 0100     		.2byte	0x1
 3359 027f 50       		.byte	0x50
 3360 0280 66000000 		.4byte	.LVL54
 3361 0284 68000000 		.4byte	.LVL55
 3362 0288 0400     		.2byte	0x4
 3363 028a F3       		.byte	0xf3
 3364 028b 01       		.uleb128 0x1
 3365 028c 50       		.byte	0x50
 3366 028d 9F       		.byte	0x9f
 3367 028e 68000000 		.4byte	.LVL55
 3368 0292 6A000000 		.4byte	.LVL56
 3369 0296 0100     		.2byte	0x1
 3370 0298 50       		.byte	0x50
 3371 0299 6A000000 		.4byte	.LVL56
 3372 029d 6C000000 		.4byte	.LVL57
 3373 02a1 0400     		.2byte	0x4
 3374 02a3 F3       		.byte	0xf3
 3375 02a4 01       		.uleb128 0x1
 3376 02a5 50       		.byte	0x50
 3377 02a6 9F       		.byte	0x9f
 3378 02a7 6C000000 		.4byte	.LVL57
 3379 02ab 6E000000 		.4byte	.LVL58
 3380 02af 0100     		.2byte	0x1
 3381 02b1 50       		.byte	0x50
 3382 02b2 6E000000 		.4byte	.LVL58
 3383 02b6 70000000 		.4byte	.LVL59
 3384 02ba 0400     		.2byte	0x4
 3385 02bc F3       		.byte	0xf3
 3386 02bd 01       		.uleb128 0x1
 3387 02be 50       		.byte	0x50
 3388 02bf 9F       		.byte	0x9f
 3389 02c0 70000000 		.4byte	.LVL59
 3390 02c4 72000000 		.4byte	.LVL60
ARM GAS  C:\Users\HENRYH~1\AppData\Local\Temp\ccMT0gCo.s 			page 87


 3391 02c8 0100     		.2byte	0x1
 3392 02ca 50       		.byte	0x50
 3393 02cb 72000000 		.4byte	.LVL60
 3394 02cf 84000000 		.4byte	.LFE9
 3395 02d3 0400     		.2byte	0x4
 3396 02d5 F3       		.byte	0xf3
 3397 02d6 01       		.uleb128 0x1
 3398 02d7 50       		.byte	0x50
 3399 02d8 9F       		.byte	0x9f
 3400 02d9 00000000 		.4byte	0
 3401 02dd 00000000 		.4byte	0
 3402              	.LLST13:
 3403 02e1 00000000 		.4byte	.LVL38
 3404 02e5 46000000 		.4byte	.LVL47
 3405 02e9 0100     		.2byte	0x1
 3406 02eb 52       		.byte	0x52
 3407 02ec 46000000 		.4byte	.LVL47
 3408 02f0 5C000000 		.4byte	.LVL49
 3409 02f4 0400     		.2byte	0x4
 3410 02f6 F3       		.byte	0xf3
 3411 02f7 01       		.uleb128 0x1
 3412 02f8 52       		.byte	0x52
 3413 02f9 9F       		.byte	0x9f
 3414 02fa 5C000000 		.4byte	.LVL49
 3415 02fe 78000000 		.4byte	.LVL63
 3416 0302 0100     		.2byte	0x1
 3417 0304 52       		.byte	0x52
 3418 0305 78000000 		.4byte	.LVL63
 3419 0309 84000000 		.4byte	.LFE9
 3420 030d 0400     		.2byte	0x4
 3421 030f F3       		.byte	0xf3
 3422 0310 01       		.uleb128 0x1
 3423 0311 52       		.byte	0x52
 3424 0312 9F       		.byte	0x9f
 3425 0313 00000000 		.4byte	0
 3426 0317 00000000 		.4byte	0
 3427              	.LLST14:
 3428 031b 00000000 		.4byte	.LVL38
 3429 031f 42000000 		.4byte	.LVL46
 3430 0323 0100     		.2byte	0x1
 3431 0325 53       		.byte	0x53
 3432 0326 42000000 		.4byte	.LVL46
 3433 032a 5C000000 		.4byte	.LVL49
 3434 032e 0400     		.2byte	0x4
 3435 0330 F3       		.byte	0xf3
 3436 0331 01       		.uleb128 0x1
 3437 0332 53       		.byte	0x53
 3438 0333 9F       		.byte	0x9f
 3439 0334 5C000000 		.4byte	.LVL49
 3440 0338 78000000 		.4byte	.LVL63
 3441 033c 0100     		.2byte	0x1
 3442 033e 53       		.byte	0x53
 3443 033f 78000000 		.4byte	.LVL63
 3444 0343 84000000 		.4byte	.LFE9
 3445 0347 0400     		.2byte	0x4
 3446 0349 F3       		.byte	0xf3
 3447 034a 01       		.uleb128 0x1
ARM GAS  C:\Users\HENRYH~1\AppData\Local\Temp\ccMT0gCo.s 			page 88


 3448 034b 53       		.byte	0x53
 3449 034c 9F       		.byte	0x9f
 3450 034d 00000000 		.4byte	0
 3451 0351 00000000 		.4byte	0
 3452              	.LLST15:
 3453 0355 02000000 		.4byte	.LVL39
 3454 0359 24000000 		.4byte	.LVL40
 3455 035d 0200     		.2byte	0x2
 3456 035f 32       		.byte	0x32
 3457 0360 9F       		.byte	0x9f
 3458 0361 24000000 		.4byte	.LVL40
 3459 0365 5C000000 		.4byte	.LVL49
 3460 0369 0200     		.2byte	0x2
 3461 036b 31       		.byte	0x31
 3462 036c 9F       		.byte	0x9f
 3463 036d 5C000000 		.4byte	.LVL49
 3464 0371 74000000 		.4byte	.LVL61
 3465 0375 0200     		.2byte	0x2
 3466 0377 32       		.byte	0x32
 3467 0378 9F       		.byte	0x9f
 3468 0379 74000000 		.4byte	.LVL61
 3469 037d 7A000000 		.4byte	.LVL64
 3470 0381 0200     		.2byte	0x2
 3471 0383 31       		.byte	0x31
 3472 0384 9F       		.byte	0x9f
 3473 0385 7A000000 		.4byte	.LVL64
 3474 0389 84000000 		.4byte	.LFE9
 3475 038d 0100     		.2byte	0x1
 3476 038f 50       		.byte	0x50
 3477 0390 00000000 		.4byte	0
 3478 0394 00000000 		.4byte	0
 3479              	.LLST16:
 3480 0398 28000000 		.4byte	.LVL41
 3481 039c 2E000000 		.4byte	.LVL43
 3482 03a0 0100     		.2byte	0x1
 3483 03a2 54       		.byte	0x54
 3484 03a3 2E000000 		.4byte	.LVL43
 3485 03a7 38000000 		.4byte	.LVL44
 3486 03ab 0100     		.2byte	0x1
 3487 03ad 50       		.byte	0x50
 3488 03ae 38000000 		.4byte	.LVL44
 3489 03b2 40000000 		.4byte	.LVL45
 3490 03b6 0200     		.2byte	0x2
 3491 03b8 30       		.byte	0x30
 3492 03b9 9F       		.byte	0x9f
 3493 03ba 40000000 		.4byte	.LVL45
 3494 03be 4C000000 		.4byte	.LVL48
 3495 03c2 0100     		.2byte	0x1
 3496 03c4 50       		.byte	0x50
 3497 03c5 4C000000 		.4byte	.LVL48
 3498 03c9 5C000000 		.4byte	.LVL49
 3499 03cd 0100     		.2byte	0x1
 3500 03cf 53       		.byte	0x53
 3501 03d0 74000000 		.4byte	.LVL61
 3502 03d4 76000000 		.4byte	.LVL62
 3503 03d8 0100     		.2byte	0x1
 3504 03da 50       		.byte	0x50
ARM GAS  C:\Users\HENRYH~1\AppData\Local\Temp\ccMT0gCo.s 			page 89


 3505 03db 76000000 		.4byte	.LVL62
 3506 03df 78000000 		.4byte	.LVL63
 3507 03e3 0200     		.2byte	0x2
 3508 03e5 75       		.byte	0x75
 3509 03e6 01       		.sleb128 1
 3510 03e7 78000000 		.4byte	.LVL63
 3511 03eb 7A000000 		.4byte	.LVL64
 3512 03ef 0100     		.2byte	0x1
 3513 03f1 53       		.byte	0x53
 3514 03f2 00000000 		.4byte	0
 3515 03f6 00000000 		.4byte	0
 3516              	.LLST17:
 3517 03fa 00000000 		.4byte	.LVL65
 3518 03fe 16000000 		.4byte	.LVL66
 3519 0402 0100     		.2byte	0x1
 3520 0404 50       		.byte	0x50
 3521 0405 16000000 		.4byte	.LVL66
 3522 0409 18000000 		.4byte	.LVL67
 3523 040d 0400     		.2byte	0x4
 3524 040f F3       		.byte	0xf3
 3525 0410 01       		.uleb128 0x1
 3526 0411 50       		.byte	0x50
 3527 0412 9F       		.byte	0x9f
 3528 0413 18000000 		.4byte	.LVL67
 3529 0417 2C000000 		.4byte	.LVL68
 3530 041b 0100     		.2byte	0x1
 3531 041d 50       		.byte	0x50
 3532 041e 2C000000 		.4byte	.LVL68
 3533 0422 2E000000 		.4byte	.LVL69
 3534 0426 0400     		.2byte	0x4
 3535 0428 F3       		.byte	0xf3
 3536 0429 01       		.uleb128 0x1
 3537 042a 50       		.byte	0x50
 3538 042b 9F       		.byte	0x9f
 3539 042c 2E000000 		.4byte	.LVL69
 3540 0430 30000000 		.4byte	.LVL70
 3541 0434 0100     		.2byte	0x1
 3542 0436 50       		.byte	0x50
 3543 0437 30000000 		.4byte	.LVL70
 3544 043b 32000000 		.4byte	.LVL71
 3545 043f 0400     		.2byte	0x4
 3546 0441 F3       		.byte	0xf3
 3547 0442 01       		.uleb128 0x1
 3548 0443 50       		.byte	0x50
 3549 0444 9F       		.byte	0x9f
 3550 0445 32000000 		.4byte	.LVL71
 3551 0449 34000000 		.4byte	.LVL72
 3552 044d 0100     		.2byte	0x1
 3553 044f 50       		.byte	0x50
 3554 0450 34000000 		.4byte	.LVL72
 3555 0454 3C000000 		.4byte	.LFE10
 3556 0458 0400     		.2byte	0x4
 3557 045a F3       		.byte	0xf3
 3558 045b 01       		.uleb128 0x1
 3559 045c 50       		.byte	0x50
 3560 045d 9F       		.byte	0x9f
 3561 045e 00000000 		.4byte	0
ARM GAS  C:\Users\HENRYH~1\AppData\Local\Temp\ccMT0gCo.s 			page 90


 3562 0462 00000000 		.4byte	0
 3563              	.LLST18:
 3564 0466 00000000 		.4byte	.LVL65
 3565 046a 34000000 		.4byte	.LVL72
 3566 046e 0200     		.2byte	0x2
 3567 0470 31       		.byte	0x31
 3568 0471 9F       		.byte	0x9f
 3569 0472 34000000 		.4byte	.LVL72
 3570 0476 3C000000 		.4byte	.LFE10
 3571 047a 0100     		.2byte	0x1
 3572 047c 50       		.byte	0x50
 3573 047d 00000000 		.4byte	0
 3574 0481 00000000 		.4byte	0
 3575              	.LLST19:
 3576 0485 00000000 		.4byte	.LVL73
 3577 0489 16000000 		.4byte	.LVL74
 3578 048d 0100     		.2byte	0x1
 3579 048f 50       		.byte	0x50
 3580 0490 16000000 		.4byte	.LVL74
 3581 0494 18000000 		.4byte	.LVL75
 3582 0498 0400     		.2byte	0x4
 3583 049a F3       		.byte	0xf3
 3584 049b 01       		.uleb128 0x1
 3585 049c 50       		.byte	0x50
 3586 049d 9F       		.byte	0x9f
 3587 049e 18000000 		.4byte	.LVL75
 3588 04a2 2C000000 		.4byte	.LVL76
 3589 04a6 0100     		.2byte	0x1
 3590 04a8 50       		.byte	0x50
 3591 04a9 2C000000 		.4byte	.LVL76
 3592 04ad 2E000000 		.4byte	.LVL77
 3593 04b1 0400     		.2byte	0x4
 3594 04b3 F3       		.byte	0xf3
 3595 04b4 01       		.uleb128 0x1
 3596 04b5 50       		.byte	0x50
 3597 04b6 9F       		.byte	0x9f
 3598 04b7 2E000000 		.4byte	.LVL77
 3599 04bb 30000000 		.4byte	.LVL78
 3600 04bf 0100     		.2byte	0x1
 3601 04c1 50       		.byte	0x50
 3602 04c2 30000000 		.4byte	.LVL78
 3603 04c6 32000000 		.4byte	.LVL79
 3604 04ca 0400     		.2byte	0x4
 3605 04cc F3       		.byte	0xf3
 3606 04cd 01       		.uleb128 0x1
 3607 04ce 50       		.byte	0x50
 3608 04cf 9F       		.byte	0x9f
 3609 04d0 32000000 		.4byte	.LVL79
 3610 04d4 34000000 		.4byte	.LVL80
 3611 04d8 0100     		.2byte	0x1
 3612 04da 50       		.byte	0x50
 3613 04db 34000000 		.4byte	.LVL80
 3614 04df 3C000000 		.4byte	.LFE11
 3615 04e3 0400     		.2byte	0x4
 3616 04e5 F3       		.byte	0xf3
 3617 04e6 01       		.uleb128 0x1
 3618 04e7 50       		.byte	0x50
ARM GAS  C:\Users\HENRYH~1\AppData\Local\Temp\ccMT0gCo.s 			page 91


 3619 04e8 9F       		.byte	0x9f
 3620 04e9 00000000 		.4byte	0
 3621 04ed 00000000 		.4byte	0
 3622              	.LLST20:
 3623 04f1 00000000 		.4byte	.LVL73
 3624 04f5 34000000 		.4byte	.LVL80
 3625 04f9 0200     		.2byte	0x2
 3626 04fb 31       		.byte	0x31
 3627 04fc 9F       		.byte	0x9f
 3628 04fd 34000000 		.4byte	.LVL80
 3629 0501 3C000000 		.4byte	.LFE11
 3630 0505 0100     		.2byte	0x1
 3631 0507 50       		.byte	0x50
 3632 0508 00000000 		.4byte	0
 3633 050c 00000000 		.4byte	0
 3634              	.LLST21:
 3635 0510 00000000 		.4byte	.LVL81
 3636 0514 70000000 		.4byte	.LVL93
 3637 0518 0100     		.2byte	0x1
 3638 051a 50       		.byte	0x50
 3639 051b 70000000 		.4byte	.LVL93
 3640 051f 78000000 		.4byte	.LFE12
 3641 0523 0400     		.2byte	0x4
 3642 0525 F3       		.byte	0xf3
 3643 0526 01       		.uleb128 0x1
 3644 0527 50       		.byte	0x50
 3645 0528 9F       		.byte	0x9f
 3646 0529 00000000 		.4byte	0
 3647 052d 00000000 		.4byte	0
 3648              	.LLST22:
 3649 0531 20000000 		.4byte	.LVL84
 3650 0535 26000000 		.4byte	.LVL85
 3651 0539 0400     		.2byte	0x4
 3652 053b 0A       		.byte	0xa
 3653 053c 000F     		.2byte	0xf00
 3654 053e 9F       		.byte	0x9f
 3655 053f 26000000 		.4byte	.LVL85
 3656 0543 48000000 		.4byte	.LVL88
 3657 0547 0100     		.2byte	0x1
 3658 0549 53       		.byte	0x53
 3659 054a 56000000 		.4byte	.LVL89
 3660 054e 5C000000 		.4byte	.LVL90
 3661 0552 0400     		.2byte	0x4
 3662 0554 0A       		.byte	0xa
 3663 0555 2001     		.2byte	0x120
 3664 0557 9F       		.byte	0x9f
 3665 0558 5C000000 		.4byte	.LVL90
 3666 055c 6E000000 		.4byte	.LVL92
 3667 0560 0100     		.2byte	0x1
 3668 0562 53       		.byte	0x53
 3669 0563 00000000 		.4byte	0
 3670 0567 00000000 		.4byte	0
 3671              	.LLST23:
 3672 056b 02000000 		.4byte	.LVL82
 3673 056f 3C000000 		.4byte	.LVL87
 3674 0573 0200     		.2byte	0x2
 3675 0575 31       		.byte	0x31
ARM GAS  C:\Users\HENRYH~1\AppData\Local\Temp\ccMT0gCo.s 			page 92


 3676 0576 9F       		.byte	0x9f
 3677 0577 3C000000 		.4byte	.LVL87
 3678 057b 78000000 		.4byte	.LFE12
 3679 057f 0100     		.2byte	0x1
 3680 0581 51       		.byte	0x51
 3681 0582 00000000 		.4byte	0
 3682 0586 00000000 		.4byte	0
 3683              	.LLST24:
 3684 058a 02000000 		.4byte	.LVL82
 3685 058e 1A000000 		.4byte	.LVL83
 3686 0592 0200     		.2byte	0x2
 3687 0594 30       		.byte	0x30
 3688 0595 9F       		.byte	0x9f
 3689 0596 1A000000 		.4byte	.LVL83
 3690 059a 72000000 		.4byte	.LVL94
 3691 059e 0100     		.2byte	0x1
 3692 05a0 54       		.byte	0x54
 3693 05a1 00000000 		.4byte	0
 3694 05a5 00000000 		.4byte	0
 3695              	.LLST25:
 3696 05a9 00000000 		.4byte	.LVL95
 3697 05ad 32000000 		.4byte	.LVL99
 3698 05b1 0100     		.2byte	0x1
 3699 05b3 50       		.byte	0x50
 3700 05b4 32000000 		.4byte	.LVL99
 3701 05b8 34000000 		.4byte	.LVL100
 3702 05bc 0400     		.2byte	0x4
 3703 05be F3       		.byte	0xf3
 3704 05bf 01       		.uleb128 0x1
 3705 05c0 50       		.byte	0x50
 3706 05c1 9F       		.byte	0x9f
 3707 05c2 34000000 		.4byte	.LVL100
 3708 05c6 4A000000 		.4byte	.LVL101
 3709 05ca 0100     		.2byte	0x1
 3710 05cc 50       		.byte	0x50
 3711 05cd 4A000000 		.4byte	.LVL101
 3712 05d1 4C000000 		.4byte	.LVL102
 3713 05d5 0400     		.2byte	0x4
 3714 05d7 F3       		.byte	0xf3
 3715 05d8 01       		.uleb128 0x1
 3716 05d9 50       		.byte	0x50
 3717 05da 9F       		.byte	0x9f
 3718 05db 4C000000 		.4byte	.LVL102
 3719 05df 4E000000 		.4byte	.LVL103
 3720 05e3 0100     		.2byte	0x1
 3721 05e5 50       		.byte	0x50
 3722 05e6 4E000000 		.4byte	.LVL103
 3723 05ea 50000000 		.4byte	.LVL104
 3724 05ee 0400     		.2byte	0x4
 3725 05f0 F3       		.byte	0xf3
 3726 05f1 01       		.uleb128 0x1
 3727 05f2 50       		.byte	0x50
 3728 05f3 9F       		.byte	0x9f
 3729 05f4 50000000 		.4byte	.LVL104
 3730 05f8 52000000 		.4byte	.LVL105
 3731 05fc 0100     		.2byte	0x1
 3732 05fe 50       		.byte	0x50
ARM GAS  C:\Users\HENRYH~1\AppData\Local\Temp\ccMT0gCo.s 			page 93


 3733 05ff 52000000 		.4byte	.LVL105
 3734 0603 54000000 		.4byte	.LVL106
 3735 0607 0400     		.2byte	0x4
 3736 0609 F3       		.byte	0xf3
 3737 060a 01       		.uleb128 0x1
 3738 060b 50       		.byte	0x50
 3739 060c 9F       		.byte	0x9f
 3740 060d 54000000 		.4byte	.LVL106
 3741 0611 56000000 		.4byte	.LVL107
 3742 0615 0100     		.2byte	0x1
 3743 0617 50       		.byte	0x50
 3744 0618 56000000 		.4byte	.LVL107
 3745 061c 5C000000 		.4byte	.LFE13
 3746 0620 0400     		.2byte	0x4
 3747 0622 F3       		.byte	0xf3
 3748 0623 01       		.uleb128 0x1
 3749 0624 50       		.byte	0x50
 3750 0625 9F       		.byte	0x9f
 3751 0626 00000000 		.4byte	0
 3752 062a 00000000 		.4byte	0
 3753              	.LLST26:
 3754 062e 00000000 		.4byte	.LVL95
 3755 0632 18000000 		.4byte	.LVL97
 3756 0636 0100     		.2byte	0x1
 3757 0638 51       		.byte	0x51
 3758 0639 18000000 		.4byte	.LVL97
 3759 063d 2A000000 		.4byte	.LVL98
 3760 0641 0100     		.2byte	0x1
 3761 0643 51       		.byte	0x51
 3762 0644 2A000000 		.4byte	.LVL98
 3763 0648 34000000 		.4byte	.LVL100
 3764 064c 0A00     		.2byte	0xa
 3765 064e F3       		.byte	0xf3
 3766 064f 01       		.uleb128 0x1
 3767 0650 51       		.byte	0x51
 3768 0651 0C       		.byte	0xc
 3769 0652 80008000 		.4byte	0x800080
 3770 0656 21       		.byte	0x21
 3771 0657 9F       		.byte	0x9f
 3772 0658 34000000 		.4byte	.LVL100
 3773 065c 50000000 		.4byte	.LVL104
 3774 0660 0100     		.2byte	0x1
 3775 0662 51       		.byte	0x51
 3776 0663 50000000 		.4byte	.LVL104
 3777 0667 54000000 		.4byte	.LVL106
 3778 066b 0A00     		.2byte	0xa
 3779 066d F3       		.byte	0xf3
 3780 066e 01       		.uleb128 0x1
 3781 066f 51       		.byte	0x51
 3782 0670 0C       		.byte	0xc
 3783 0671 80008000 		.4byte	0x800080
 3784 0675 21       		.byte	0x21
 3785 0676 9F       		.byte	0x9f
 3786 0677 54000000 		.4byte	.LVL106
 3787 067b 5C000000 		.4byte	.LFE13
 3788 067f 0100     		.2byte	0x1
 3789 0681 51       		.byte	0x51
ARM GAS  C:\Users\HENRYH~1\AppData\Local\Temp\ccMT0gCo.s 			page 94


 3790 0682 00000000 		.4byte	0
 3791 0686 00000000 		.4byte	0
 3792              	.LLST27:
 3793 068a 00000000 		.4byte	.LVL95
 3794 068e 0E000000 		.4byte	.LVL96
 3795 0692 0200     		.2byte	0x2
 3796 0694 32       		.byte	0x32
 3797 0695 9F       		.byte	0x9f
 3798 0696 0E000000 		.4byte	.LVL96
 3799 069a 4C000000 		.4byte	.LVL102
 3800 069e 0200     		.2byte	0x2
 3801 06a0 31       		.byte	0x31
 3802 06a1 9F       		.byte	0x9f
 3803 06a2 4C000000 		.4byte	.LVL102
 3804 06a6 50000000 		.4byte	.LVL104
 3805 06aa 0200     		.2byte	0x2
 3806 06ac 32       		.byte	0x32
 3807 06ad 9F       		.byte	0x9f
 3808 06ae 50000000 		.4byte	.LVL104
 3809 06b2 56000000 		.4byte	.LVL107
 3810 06b6 0200     		.2byte	0x2
 3811 06b8 31       		.byte	0x31
 3812 06b9 9F       		.byte	0x9f
 3813 06ba 56000000 		.4byte	.LVL107
 3814 06be 5C000000 		.4byte	.LFE13
 3815 06c2 0100     		.2byte	0x1
 3816 06c4 50       		.byte	0x50
 3817 06c5 00000000 		.4byte	0
 3818 06c9 00000000 		.4byte	0
 3819              	.LLST28:
 3820 06cd 00000000 		.4byte	.LVL108
 3821 06d1 0E000000 		.4byte	.LVL109
 3822 06d5 0100     		.2byte	0x1
 3823 06d7 50       		.byte	0x50
 3824 06d8 0E000000 		.4byte	.LVL109
 3825 06dc 10000000 		.4byte	.LVL110
 3826 06e0 0500     		.2byte	0x5
 3827 06e2 0C       		.byte	0xc
 3828 06e3 04A00040 		.4byte	0x4000a004
 3829 06e7 10000000 		.4byte	.LVL110
 3830 06eb 12000000 		.4byte	.LVL111
 3831 06ef 0100     		.2byte	0x1
 3832 06f1 50       		.byte	0x50
 3833 06f2 12000000 		.4byte	.LVL111
 3834 06f6 18000000 		.4byte	.LFE14
 3835 06fa 0500     		.2byte	0x5
 3836 06fc 0C       		.byte	0xc
 3837 06fd 04A00040 		.4byte	0x4000a004
 3838 0701 00000000 		.4byte	0
 3839 0705 00000000 		.4byte	0
 3840              	.LLST29:
 3841 0709 00000000 		.4byte	.LVL108
 3842 070d 12000000 		.4byte	.LVL111
 3843 0711 0200     		.2byte	0x2
 3844 0713 31       		.byte	0x31
 3845 0714 9F       		.byte	0x9f
 3846 0715 12000000 		.4byte	.LVL111
ARM GAS  C:\Users\HENRYH~1\AppData\Local\Temp\ccMT0gCo.s 			page 95


 3847 0719 18000000 		.4byte	.LFE14
 3848 071d 0100     		.2byte	0x1
 3849 071f 50       		.byte	0x50
 3850 0720 00000000 		.4byte	0
 3851 0724 00000000 		.4byte	0
 3852              	.LLST30:
 3853 0728 00000000 		.4byte	.LVL112
 3854 072c 74000000 		.4byte	.LVL113
 3855 0730 0100     		.2byte	0x1
 3856 0732 50       		.byte	0x50
 3857 0733 74000000 		.4byte	.LVL113
 3858 0737 76000000 		.4byte	.LVL114
 3859 073b 0400     		.2byte	0x4
 3860 073d F3       		.byte	0xf3
 3861 073e 01       		.uleb128 0x1
 3862 073f 50       		.byte	0x50
 3863 0740 9F       		.byte	0x9f
 3864 0741 76000000 		.4byte	.LVL114
 3865 0745 78000000 		.4byte	.LVL115
 3866 0749 0100     		.2byte	0x1
 3867 074b 50       		.byte	0x50
 3868 074c 78000000 		.4byte	.LVL115
 3869 0750 7A000000 		.4byte	.LVL116
 3870 0754 0400     		.2byte	0x4
 3871 0756 F3       		.byte	0xf3
 3872 0757 01       		.uleb128 0x1
 3873 0758 50       		.byte	0x50
 3874 0759 9F       		.byte	0x9f
 3875 075a 7A000000 		.4byte	.LVL116
 3876 075e 7C000000 		.4byte	.LVL117
 3877 0762 0100     		.2byte	0x1
 3878 0764 50       		.byte	0x50
 3879 0765 7C000000 		.4byte	.LVL117
 3880 0769 7E000000 		.4byte	.LVL118
 3881 076d 0400     		.2byte	0x4
 3882 076f F3       		.byte	0xf3
 3883 0770 01       		.uleb128 0x1
 3884 0771 50       		.byte	0x50
 3885 0772 9F       		.byte	0x9f
 3886 0773 7E000000 		.4byte	.LVL118
 3887 0777 80000000 		.4byte	.LVL119
 3888 077b 0100     		.2byte	0x1
 3889 077d 50       		.byte	0x50
 3890 077e 80000000 		.4byte	.LVL119
 3891 0782 82000000 		.4byte	.LVL120
 3892 0786 0400     		.2byte	0x4
 3893 0788 F3       		.byte	0xf3
 3894 0789 01       		.uleb128 0x1
 3895 078a 50       		.byte	0x50
 3896 078b 9F       		.byte	0x9f
 3897 078c 82000000 		.4byte	.LVL120
 3898 0790 84000000 		.4byte	.LVL121
 3899 0794 0100     		.2byte	0x1
 3900 0796 50       		.byte	0x50
 3901 0797 84000000 		.4byte	.LVL121
 3902 079b 86000000 		.4byte	.LVL122
 3903 079f 0400     		.2byte	0x4
ARM GAS  C:\Users\HENRYH~1\AppData\Local\Temp\ccMT0gCo.s 			page 96


 3904 07a1 F3       		.byte	0xf3
 3905 07a2 01       		.uleb128 0x1
 3906 07a3 50       		.byte	0x50
 3907 07a4 9F       		.byte	0x9f
 3908 07a5 86000000 		.4byte	.LVL122
 3909 07a9 88000000 		.4byte	.LVL123
 3910 07ad 0100     		.2byte	0x1
 3911 07af 50       		.byte	0x50
 3912 07b0 88000000 		.4byte	.LVL123
 3913 07b4 90000000 		.4byte	.LFE20
 3914 07b8 0400     		.2byte	0x4
 3915 07ba F3       		.byte	0xf3
 3916 07bb 01       		.uleb128 0x1
 3917 07bc 50       		.byte	0x50
 3918 07bd 9F       		.byte	0x9f
 3919 07be 00000000 		.4byte	0
 3920 07c2 00000000 		.4byte	0
 3921              	.LLST31:
 3922 07c6 00000000 		.4byte	.LVL112
 3923 07ca 88000000 		.4byte	.LVL123
 3924 07ce 0200     		.2byte	0x2
 3925 07d0 31       		.byte	0x31
 3926 07d1 9F       		.byte	0x9f
 3927 07d2 88000000 		.4byte	.LVL123
 3928 07d6 90000000 		.4byte	.LFE20
 3929 07da 0100     		.2byte	0x1
 3930 07dc 50       		.byte	0x50
 3931 07dd 00000000 		.4byte	0
 3932 07e1 00000000 		.4byte	0
 3933              	.LLST32:
 3934 07e5 00000000 		.4byte	.LVL124
 3935 07e9 42000000 		.4byte	.LVL125
 3936 07ed 0100     		.2byte	0x1
 3937 07ef 50       		.byte	0x50
 3938 07f0 42000000 		.4byte	.LVL125
 3939 07f4 44000000 		.4byte	.LVL126
 3940 07f8 0400     		.2byte	0x4
 3941 07fa F3       		.byte	0xf3
 3942 07fb 01       		.uleb128 0x1
 3943 07fc 50       		.byte	0x50
 3944 07fd 9F       		.byte	0x9f
 3945 07fe 44000000 		.4byte	.LVL126
 3946 0802 46000000 		.4byte	.LVL127
 3947 0806 0100     		.2byte	0x1
 3948 0808 50       		.byte	0x50
 3949 0809 46000000 		.4byte	.LVL127
 3950 080d 48000000 		.4byte	.LVL128
 3951 0811 0400     		.2byte	0x4
 3952 0813 F3       		.byte	0xf3
 3953 0814 01       		.uleb128 0x1
 3954 0815 50       		.byte	0x50
 3955 0816 9F       		.byte	0x9f
 3956 0817 48000000 		.4byte	.LVL128
 3957 081b 4A000000 		.4byte	.LVL129
 3958 081f 0100     		.2byte	0x1
 3959 0821 50       		.byte	0x50
 3960 0822 4A000000 		.4byte	.LVL129
ARM GAS  C:\Users\HENRYH~1\AppData\Local\Temp\ccMT0gCo.s 			page 97


 3961 0826 54000000 		.4byte	.LFE21
 3962 082a 0400     		.2byte	0x4
 3963 082c F3       		.byte	0xf3
 3964 082d 01       		.uleb128 0x1
 3965 082e 50       		.byte	0x50
 3966 082f 9F       		.byte	0x9f
 3967 0830 00000000 		.4byte	0
 3968 0834 00000000 		.4byte	0
 3969              	.LLST33:
 3970 0838 00000000 		.4byte	.LVL124
 3971 083c 4A000000 		.4byte	.LVL129
 3972 0840 0200     		.2byte	0x2
 3973 0842 31       		.byte	0x31
 3974 0843 9F       		.byte	0x9f
 3975 0844 4A000000 		.4byte	.LVL129
 3976 0848 54000000 		.4byte	.LFE21
 3977 084c 0100     		.2byte	0x1
 3978 084e 50       		.byte	0x50
 3979 084f 00000000 		.4byte	0
 3980 0853 00000000 		.4byte	0
 3981              	.LLST34:
 3982 0857 02000000 		.4byte	.LVL130
 3983 085b 24000000 		.4byte	.LVL135
 3984 085f 0200     		.2byte	0x2
 3985 0861 30       		.byte	0x30
 3986 0862 9F       		.byte	0x9f
 3987 0863 24000000 		.4byte	.LVL135
 3988 0867 48000000 		.4byte	.LVL141
 3989 086b 0100     		.2byte	0x1
 3990 086d 55       		.byte	0x55
 3991 086e 00000000 		.4byte	0
 3992 0872 00000000 		.4byte	0
 3993              	.LLST35:
 3994 0876 02000000 		.4byte	.LVL130
 3995 087a 06000000 		.4byte	.LVL131
 3996 087e 0200     		.2byte	0x2
 3997 0880 30       		.byte	0x30
 3998 0881 9F       		.byte	0x9f
 3999 0882 06000000 		.4byte	.LVL131
 4000 0886 18000000 		.4byte	.LVL133
 4001 088a 0100     		.2byte	0x1
 4002 088c 54       		.byte	0x54
 4003 088d 1A000000 		.4byte	.LVL134
 4004 0891 36000000 		.4byte	.LVL137
 4005 0895 0100     		.2byte	0x1
 4006 0897 54       		.byte	0x54
 4007 0898 38000000 		.4byte	.LVL138
 4008 089c 48000000 		.4byte	.LVL141
 4009 08a0 0100     		.2byte	0x1
 4010 08a2 54       		.byte	0x54
 4011 08a3 00000000 		.4byte	0
 4012 08a7 00000000 		.4byte	0
 4013              	.LLST36:
 4014 08ab 02000000 		.4byte	.LVL142
 4015 08af 2E000000 		.4byte	.LVL145
 4016 08b3 0400     		.2byte	0x4
 4017 08b5 0A       		.byte	0xa
ARM GAS  C:\Users\HENRYH~1\AppData\Local\Temp\ccMT0gCo.s 			page 98


 4018 08b6 000F     		.2byte	0xf00
 4019 08b8 9F       		.byte	0x9f
 4020 08b9 2E000000 		.4byte	.LVL145
 4021 08bd 46000000 		.4byte	.LVL147
 4022 08c1 0100     		.2byte	0x1
 4023 08c3 53       		.byte	0x53
 4024 08c4 BA000000 		.4byte	.LVL158
 4025 08c8 BE000000 		.4byte	.LVL159
 4026 08cc 0100     		.2byte	0x1
 4027 08ce 53       		.byte	0x53
 4028 08cf 00000000 		.4byte	0
 4029 08d3 00000000 		.4byte	0
 4030              	.LLST37:
 4031 08d7 02000000 		.4byte	.LVL142
 4032 08db CC000000 		.4byte	.LVL161
 4033 08df 0200     		.2byte	0x2
 4034 08e1 31       		.byte	0x31
 4035 08e2 9F       		.byte	0x9f
 4036 08e3 CC000000 		.4byte	.LVL161
 4037 08e7 E0000000 		.4byte	.LFE1
 4038 08eb 0100     		.2byte	0x1
 4039 08ed 50       		.byte	0x50
 4040 08ee 00000000 		.4byte	0
 4041 08f2 00000000 		.4byte	0
 4042              	.LLST38:
 4043 08f6 02000000 		.4byte	.LVL142
 4044 08fa 96000000 		.4byte	.LVL155
 4045 08fe 0200     		.2byte	0x2
 4046 0900 31       		.byte	0x31
 4047 0901 9F       		.byte	0x9f
 4048 0902 96000000 		.4byte	.LVL155
 4049 0906 9B000000 		.4byte	.LVL156-1
 4050 090a 0100     		.2byte	0x1
 4051 090c 53       		.byte	0x53
 4052 090d BA000000 		.4byte	.LVL158
 4053 0911 BE000000 		.4byte	.LVL159
 4054 0915 0200     		.2byte	0x2
 4055 0917 31       		.byte	0x31
 4056 0918 9F       		.byte	0x9f
 4057 0919 BE000000 		.4byte	.LVL159
 4058 091d C2000000 		.4byte	.LVL160
 4059 0921 0100     		.2byte	0x1
 4060 0923 53       		.byte	0x53
 4061 0924 00000000 		.4byte	0
 4062 0928 00000000 		.4byte	0
 4063              	.LLST39:
 4064 092c 06000000 		.4byte	.LVL143
 4065 0930 1D000000 		.4byte	.LVL144-1
 4066 0934 0100     		.2byte	0x1
 4067 0936 50       		.byte	0x50
 4068 0937 00000000 		.4byte	0
 4069 093b 00000000 		.4byte	0
 4070              	.LLST40:
 4071 093f 02000000 		.4byte	.LVL162
 4072 0943 0C000000 		.4byte	.LVL163
 4073 0947 0200     		.2byte	0x2
 4074 0949 30       		.byte	0x30
ARM GAS  C:\Users\HENRYH~1\AppData\Local\Temp\ccMT0gCo.s 			page 99


 4075 094a 9F       		.byte	0x9f
 4076 094b 0C000000 		.4byte	.LVL163
 4077 094f 0E000000 		.4byte	.LVL164
 4078 0953 0100     		.2byte	0x1
 4079 0955 50       		.byte	0x50
 4080 0956 0E000000 		.4byte	.LVL164
 4081 095a 10000000 		.4byte	.LVL165
 4082 095e 0200     		.2byte	0x2
 4083 0960 30       		.byte	0x30
 4084 0961 9F       		.byte	0x9f
 4085 0962 10000000 		.4byte	.LVL165
 4086 0966 1B000000 		.4byte	.LVL166-1
 4087 096a 0100     		.2byte	0x1
 4088 096c 50       		.byte	0x50
 4089 096d 1C000000 		.4byte	.LVL166
 4090 0971 24000000 		.4byte	.LFE3
 4091 0975 0100     		.2byte	0x1
 4092 0977 50       		.byte	0x50
 4093 0978 00000000 		.4byte	0
 4094 097c 00000000 		.4byte	0
 4095              		.section	.debug_aranges,"",%progbits
 4096 0000 C4000000 		.4byte	0xc4
 4097 0004 0200     		.2byte	0x2
 4098 0006 00000000 		.4byte	.Ldebug_info0
 4099 000a 04       		.byte	0x4
 4100 000b 00       		.byte	0
 4101 000c 0000     		.2byte	0
 4102 000e 0000     		.2byte	0
 4103 0010 00000000 		.4byte	.LFB4
 4104 0014 5C000000 		.4byte	.LFE4-.LFB4
 4105 0018 00000000 		.4byte	.LFB5
 4106 001c 20000000 		.4byte	.LFE5-.LFB5
 4107 0020 00000000 		.4byte	.LFB2
 4108 0024 6C000000 		.4byte	.LFE2-.LFB2
 4109 0028 00000000 		.4byte	.LFB6
 4110 002c 20000000 		.4byte	.LFE6-.LFB6
 4111 0030 00000000 		.4byte	.LFB7
 4112 0034 24000000 		.4byte	.LFE7-.LFB7
 4113 0038 00000000 		.4byte	.LFB8
 4114 003c 3C000000 		.4byte	.LFE8-.LFB8
 4115 0040 00000000 		.4byte	.LFB9
 4116 0044 84000000 		.4byte	.LFE9-.LFB9
 4117 0048 00000000 		.4byte	.LFB10
 4118 004c 3C000000 		.4byte	.LFE10-.LFB10
 4119 0050 00000000 		.4byte	.LFB11
 4120 0054 3C000000 		.4byte	.LFE11-.LFB11
 4121 0058 00000000 		.4byte	.LFB12
 4122 005c 78000000 		.4byte	.LFE12-.LFB12
 4123 0060 00000000 		.4byte	.LFB13
 4124 0064 5C000000 		.4byte	.LFE13-.LFB13
 4125 0068 00000000 		.4byte	.LFB14
 4126 006c 18000000 		.4byte	.LFE14-.LFB14
 4127 0070 00000000 		.4byte	.LFB15
 4128 0074 18000000 		.4byte	.LFE15-.LFB15
 4129 0078 00000000 		.4byte	.LFB16
 4130 007c 18000000 		.4byte	.LFE16-.LFB16
 4131 0080 00000000 		.4byte	.LFB17
ARM GAS  C:\Users\HENRYH~1\AppData\Local\Temp\ccMT0gCo.s 			page 100


 4132 0084 0C000000 		.4byte	.LFE17-.LFB17
 4133 0088 00000000 		.4byte	.LFB18
 4134 008c 0C000000 		.4byte	.LFE18-.LFB18
 4135 0090 00000000 		.4byte	.LFB19
 4136 0094 10000000 		.4byte	.LFE19-.LFB19
 4137 0098 00000000 		.4byte	.LFB20
 4138 009c 90000000 		.4byte	.LFE20-.LFB20
 4139 00a0 00000000 		.4byte	.LFB21
 4140 00a4 54000000 		.4byte	.LFE21-.LFB21
 4141 00a8 00000000 		.4byte	.LFB0
 4142 00ac 50000000 		.4byte	.LFE0-.LFB0
 4143 00b0 00000000 		.4byte	.LFB1
 4144 00b4 E0000000 		.4byte	.LFE1-.LFB1
 4145 00b8 00000000 		.4byte	.LFB3
 4146 00bc 24000000 		.4byte	.LFE3-.LFB3
 4147 00c0 00000000 		.4byte	0
 4148 00c4 00000000 		.4byte	0
 4149              		.section	.debug_ranges,"",%progbits
 4150              	.Ldebug_ranges0:
 4151 0000 00000000 		.4byte	.LFB4
 4152 0004 5C000000 		.4byte	.LFE4
 4153 0008 00000000 		.4byte	.LFB5
 4154 000c 20000000 		.4byte	.LFE5
 4155 0010 00000000 		.4byte	.LFB2
 4156 0014 6C000000 		.4byte	.LFE2
 4157 0018 00000000 		.4byte	.LFB6
 4158 001c 20000000 		.4byte	.LFE6
 4159 0020 00000000 		.4byte	.LFB7
 4160 0024 24000000 		.4byte	.LFE7
 4161 0028 00000000 		.4byte	.LFB8
 4162 002c 3C000000 		.4byte	.LFE8
 4163 0030 00000000 		.4byte	.LFB9
 4164 0034 84000000 		.4byte	.LFE9
 4165 0038 00000000 		.4byte	.LFB10
 4166 003c 3C000000 		.4byte	.LFE10
 4167 0040 00000000 		.4byte	.LFB11
 4168 0044 3C000000 		.4byte	.LFE11
 4169 0048 00000000 		.4byte	.LFB12
 4170 004c 78000000 		.4byte	.LFE12
 4171 0050 00000000 		.4byte	.LFB13
 4172 0054 5C000000 		.4byte	.LFE13
 4173 0058 00000000 		.4byte	.LFB14
 4174 005c 18000000 		.4byte	.LFE14
 4175 0060 00000000 		.4byte	.LFB15
 4176 0064 18000000 		.4byte	.LFE15
 4177 0068 00000000 		.4byte	.LFB16
 4178 006c 18000000 		.4byte	.LFE16
 4179 0070 00000000 		.4byte	.LFB17
 4180 0074 0C000000 		.4byte	.LFE17
 4181 0078 00000000 		.4byte	.LFB18
 4182 007c 0C000000 		.4byte	.LFE18
 4183 0080 00000000 		.4byte	.LFB19
 4184 0084 10000000 		.4byte	.LFE19
 4185 0088 00000000 		.4byte	.LFB20
 4186 008c 90000000 		.4byte	.LFE20
 4187 0090 00000000 		.4byte	.LFB21
 4188 0094 54000000 		.4byte	.LFE21
ARM GAS  C:\Users\HENRYH~1\AppData\Local\Temp\ccMT0gCo.s 			page 101


 4189 0098 00000000 		.4byte	.LFB0
 4190 009c 50000000 		.4byte	.LFE0
 4191 00a0 00000000 		.4byte	.LFB1
 4192 00a4 E0000000 		.4byte	.LFE1
 4193 00a8 00000000 		.4byte	.LFB3
 4194 00ac 24000000 		.4byte	.LFE3
 4195 00b0 00000000 		.4byte	0
 4196 00b4 00000000 		.4byte	0
 4197              		.section	.debug_line,"",%progbits
 4198              	.Ldebug_line0:
 4199 0000 7A030000 		.section	.debug_str,"MS",%progbits,1
 4199      02005400 
 4199      00000201 
 4199      FB0E0D00 
 4199      01010101 
 4200              	.LASF69:
 4201 0000 43414E5F 		.ascii	"CAN_GetRXErrorCount\000"
 4201      47657452 
 4201      58457272 
 4201      6F72436F 
 4201      756E7400 
 4202              	.LASF10:
 4203 0014 75696E74 		.ascii	"uint16\000"
 4203      313600
 4204              	.LASF55:
 4205 001b 72657365 		.ascii	"reset\000"
 4205      7400
 4206              	.LASF82:
 4207 0021 43794578 		.ascii	"CyExitCriticalSection\000"
 4207      69744372 
 4207      69746963 
 4207      616C5365 
 4207      6374696F 
 4208              	.LASF57:
 4209 0037 65646765 		.ascii	"edge\000"
 4209      00
 4210              	.LASF80:
 4211 003c 43414E5F 		.ascii	"CAN_Start\000"
 4211      53746172 
 4211      7400
 4212              	.LASF75:
 4213 0046 43414E5F 		.ascii	"CAN_RxTxBuffersConfig\000"
 4213      52785478 
 4213      42756666 
 4213      65727343 
 4213      6F6E6669 
 4214              	.LASF42:
 4215 005c 43414E5F 		.ascii	"CAN_Stop\000"
 4215      53746F70 
 4215      00
 4216              	.LASF7:
 4217 0065 6C6F6E67 		.ascii	"long long unsigned int\000"
 4217      206C6F6E 
 4217      6720756E 
 4217      7369676E 
 4217      65642069 
 4218              	.LASF29:
ARM GAS  C:\Users\HENRYH~1\AppData\Local\Temp\ccMT0gCo.s 			page 102


 4219 007c 7478636D 		.ascii	"txcmd\000"
 4219      6400
 4220              	.LASF34:
 4221 0082 7278616D 		.ascii	"rxamrd\000"
 4221      726400
 4222              	.LASF88:
 4223 0089 43414E5F 		.ascii	"CAN_initVar\000"
 4223      696E6974 
 4223      56617200 
 4224              	.LASF48:
 4225 0095 62697472 		.ascii	"bitrate\000"
 4225      61746500 
 4226              	.LASF6:
 4227 009d 6C6F6E67 		.ascii	"long long int\000"
 4227      206C6F6E 
 4227      6720696E 
 4227      7400
 4228              	.LASF0:
 4229 00ab 7369676E 		.ascii	"signed char\000"
 4229      65642063 
 4229      68617200 
 4230              	.LASF45:
 4231 00b7 43414E5F 		.ascii	"CAN_GlobalIntDisable\000"
 4231      476C6F62 
 4231      616C496E 
 4231      74446973 
 4231      61626C65 
 4232              	.LASF87:
 4233 00cc 433A5C55 		.ascii	"C:\\Users\\Henry Hernandez\\Desktop\\CAN\\NODO_2.cy"
 4233      73657273 
 4233      5C48656E 
 4233      72792048 
 4233      65726E61 
 4234 00fa 64736E00 		.ascii	"dsn\000"
 4235              	.LASF4:
 4236 00fe 6C6F6E67 		.ascii	"long int\000"
 4236      20696E74 
 4236      00
 4237              	.LASF33:
 4238 0107 72786461 		.ascii	"rxdata\000"
 4238      746100
 4239              	.LASF16:
 4240 010e 72656731 		.ascii	"reg16\000"
 4240      3600
 4241              	.LASF9:
 4242 0114 75696E74 		.ascii	"uint8\000"
 4242      3800
 4243              	.LASF60:
 4244 011a 72756E53 		.ascii	"runState\000"
 4244      74617465 
 4244      00
 4245              	.LASF25:
 4246 0123 7278616D 		.ascii	"rxamr\000"
 4246      7200
 4247              	.LASF13:
 4248 0129 646F7562 		.ascii	"double\000"
 4248      6C6500
ARM GAS  C:\Users\HENRYH~1\AppData\Local\Temp\ccMT0gCo.s 			page 103


 4249              	.LASF11:
 4250 0130 75696E74 		.ascii	"uint32\000"
 4250      333200
 4251              	.LASF21:
 4252 0137 62797465 		.ascii	"byte\000"
 4252      00
 4253              	.LASF65:
 4254 013c 6D61736B 		.ascii	"mask\000"
 4254      00
 4255              	.LASF67:
 4256 0141 43414E5F 		.ascii	"CAN_GetRXErrorFlag\000"
 4256      47657452 
 4256      58457272 
 4256      6F72466C 
 4256      616700
 4257              	.LASF64:
 4258 0154 43414E5F 		.ascii	"CAN_SetIrqMask\000"
 4258      53657449 
 4258      72714D61 
 4258      736B00
 4259              	.LASF8:
 4260 0163 756E7369 		.ascii	"unsigned int\000"
 4260      676E6564 
 4260      20696E74 
 4260      00
 4261              	.LASF5:
 4262 0170 6C6F6E67 		.ascii	"long unsigned int\000"
 4262      20756E73 
 4262      69676E65 
 4262      6420696E 
 4262      7400
 4263              	.LASF39:
 4264 0182 74696D65 		.ascii	"timeout\000"
 4264      6F757400 
 4265              	.LASF58:
 4266 018a 43414E5F 		.ascii	"CAN_SetOpMode\000"
 4266      5365744F 
 4266      704D6F64 
 4266      6500
 4267              	.LASF81:
 4268 0198 4379456E 		.ascii	"CyEnterCriticalSection\000"
 4268      74657243 
 4268      72697469 
 4268      63616C53 
 4268      65637469 
 4269              	.LASF3:
 4270 01af 73686F72 		.ascii	"short unsigned int\000"
 4270      7420756E 
 4270      7369676E 
 4270      65642069 
 4270      6E7400
 4271              	.LASF36:
 4272 01c2 43414E5F 		.ascii	"CAN_RX_STRUCT\000"
 4272      52585F53 
 4272      54525543 
 4272      5400
 4273              	.LASF76:
ARM GAS  C:\Users\HENRYH~1\AppData\Local\Temp\ccMT0gCo.s 			page 104


 4274 01d0 43414E5F 		.ascii	"CAN_RXConfigStruct\000"
 4274      5258436F 
 4274      6E666967 
 4274      53747275 
 4274      637400
 4275              	.LASF43:
 4276 01e3 43414E5F 		.ascii	"CAN_GlobalIntEnable\000"
 4276      476C6F62 
 4276      616C496E 
 4276      74456E61 
 4276      626C6500 
 4277              	.LASF83:
 4278 01f7 4379496E 		.ascii	"CyIntSetVector\000"
 4278      74536574 
 4278      56656374 
 4278      6F7200
 4279              	.LASF27:
 4280 0206 43414E5F 		.ascii	"CAN_RX_CFG\000"
 4280      52585F43 
 4280      464700
 4281              	.LASF59:
 4282 0211 6F704D6F 		.ascii	"opMode\000"
 4282      646500
 4283              	.LASF47:
 4284 0218 43414E5F 		.ascii	"CAN_SetArbiter\000"
 4284      53657441 
 4284      72626974 
 4284      657200
 4285              	.LASF68:
 4286 0227 43414E5F 		.ascii	"CAN_GetTXErrorCount\000"
 4286      47657454 
 4286      58457272 
 4286      6F72436F 
 4286      756E7400 
 4287              	.LASF72:
 4288 023b 7278436F 		.ascii	"rxConfig\000"
 4288      6E666967 
 4288      00
 4289              	.LASF37:
 4290 0244 74786461 		.ascii	"txdata\000"
 4290      746100
 4291              	.LASF17:
 4292 024b 72656733 		.ascii	"reg32\000"
 4292      3200
 4293              	.LASF78:
 4294 0251 43414E5F 		.ascii	"CAN_Init\000"
 4294      496E6974 
 4294      00
 4295              	.LASF62:
 4296 025a 72656741 		.ascii	"regAddr\000"
 4296      64647200 
 4297              	.LASF53:
 4298 0262 63666754 		.ascii	"cfgTemp\000"
 4298      656D7000 
 4299              	.LASF23:
 4300 026a 72786D61 		.ascii	"rxmailbox\000"
 4300      696C626F 
ARM GAS  C:\Users\HENRYH~1\AppData\Local\Temp\ccMT0gCo.s 			page 105


 4300      7800
 4301              	.LASF22:
 4302 0274 43414E5F 		.ascii	"CAN_REG_32\000"
 4302      5245475F 
 4302      333200
 4303              	.LASF19:
 4304 027f 73697A65 		.ascii	"sizetype\000"
 4304      74797065 
 4304      00
 4305              	.LASF18:
 4306 0288 6C6F6E67 		.ascii	"long double\000"
 4306      20646F75 
 4306      626C6500 
 4307              	.LASF70:
 4308 0294 43414E5F 		.ascii	"CAN_GetErrorState\000"
 4308      47657445 
 4308      72726F72 
 4308      53746174 
 4308      6500
 4309              	.LASF32:
 4310 02a6 72786964 		.ascii	"rxid\000"
 4310      00
 4311              	.LASF84:
 4312 02ab 4379496E 		.ascii	"CyIntSetPriority\000"
 4312      74536574 
 4312      5072696F 
 4312      72697479 
 4312      00
 4313              	.LASF61:
 4314 02bc 43414E5F 		.ascii	"CAN_RXRegisterInit\000"
 4314      52585265 
 4314      67697374 
 4314      6572496E 
 4314      697400
 4315              	.LASF12:
 4316 02cf 666C6F61 		.ascii	"float\000"
 4316      7400
 4317              	.LASF15:
 4318 02d5 72656738 		.ascii	"reg8\000"
 4318      00
 4319              	.LASF1:
 4320 02da 756E7369 		.ascii	"unsigned char\000"
 4320      676E6564 
 4320      20636861 
 4320      7200
 4321              	.LASF2:
 4322 02e8 73686F72 		.ascii	"short int\000"
 4322      7420696E 
 4322      7400
 4323              	.LASF66:
 4324 02f2 43414E5F 		.ascii	"CAN_GetTXErrorFlag\000"
 4324      47657454 
 4324      58457272 
 4324      6F72466C 
 4324      616700
 4325              	.LASF44:
 4326 0305 43414E5F 		.ascii	"CAN_Enable\000"
ARM GAS  C:\Users\HENRYH~1\AppData\Local\Temp\ccMT0gCo.s 			page 106


 4326      456E6162 
 4326      6C6500
 4327              	.LASF38:
 4328 0310 43414E5F 		.ascii	"CAN_TX_STRUCT\000"
 4328      54585F53 
 4328      54525543 
 4328      5400
 4329              	.LASF86:
 4330 031e 47656E65 		.ascii	"Generated_Source\\PSoC5\\CAN.c\000"
 4330      72617465 
 4330      645F536F 
 4330      75726365 
 4330      5C50536F 
 4331              	.LASF85:
 4332 033b 474E5520 		.ascii	"GNU C11 5.4.1 20160609 (release) [ARM/embedded-5-br"
 4332      43313120 
 4332      352E342E 
 4332      31203230 
 4332      31363036 
 4333 036e 616E6368 		.ascii	"anch revision 237715] -mcpu=cortex-m3 -mthumb -g -O"
 4333      20726576 
 4333      6973696F 
 4333      6E203233 
 4333      37373135 
 4334 03a1 67202D66 		.ascii	"g -ffunction-sections -ffat-lto-objects\000"
 4334      66756E63 
 4334      74696F6E 
 4334      2D736563 
 4334      74696F6E 
 4335              	.LASF46:
 4336 03c9 43414E5F 		.ascii	"CAN_SetPreScaler\000"
 4336      53657450 
 4336      72655363 
 4336      616C6572 
 4336      00
 4337              	.LASF14:
 4338 03da 63686172 		.ascii	"char\000"
 4338      00
 4339              	.LASF56:
 4340 03df 43414E5F 		.ascii	"CAN_SetEdgeMode\000"
 4340      53657445 
 4340      6467654D 
 4340      6F646500 
 4341              	.LASF63:
 4342 03ef 636F6E66 		.ascii	"config\000"
 4342      696700
 4343              	.LASF73:
 4344 03f6 43414E5F 		.ascii	"CAN_TxBufConfig\000"
 4344      54784275 
 4344      66436F6E 
 4344      66696700 
 4345              	.LASF79:
 4346 0406 6C6F6361 		.ascii	"localResult\000"
 4346      6C526573 
 4346      756C7400 
 4347              	.LASF77:
 4348 0412 43414E5F 		.ascii	"CAN_TXConfigStruct\000"
ARM GAS  C:\Users\HENRYH~1\AppData\Local\Temp\ccMT0gCo.s 			page 107


 4348      5458436F 
 4348      6E666967 
 4348      53747275 
 4348      637400
 4349              	.LASF20:
 4350 0425 43414E5F 		.ascii	"CAN_DATA_BYTES\000"
 4350      44415441 
 4350      5F425954 
 4350      455300
 4351              	.LASF28:
 4352 0434 74786D61 		.ascii	"txmailbox\000"
 4352      696C626F 
 4352      7800
 4353              	.LASF51:
 4354 043e 63666754 		.ascii	"cfgTseg1\000"
 4354      73656731 
 4354      00
 4355              	.LASF52:
 4356 0447 63666754 		.ascii	"cfgTseg2\000"
 4356      73656732 
 4356      00
 4357              	.LASF50:
 4358 0450 43414E5F 		.ascii	"CAN_SetTsegSample\000"
 4358      53657454 
 4358      73656753 
 4358      616D706C 
 4358      6500
 4359              	.LASF24:
 4360 0462 7278636D 		.ascii	"rxcmd\000"
 4360      6400
 4361              	.LASF74:
 4362 0468 7478436F 		.ascii	"txConfig\000"
 4362      6E666967 
 4362      00
 4363              	.LASF41:
 4364 0471 656E6162 		.ascii	"enableInterrupts\000"
 4364      6C65496E 
 4364      74657272 
 4364      75707473 
 4364      00
 4365              	.LASF71:
 4366 0482 43414E5F 		.ascii	"CAN_RxBufConfig\000"
 4366      52784275 
 4366      66436F6E 
 4366      66696700 
 4367              	.LASF30:
 4368 0492 74786964 		.ascii	"txid\000"
 4368      00
 4369              	.LASF26:
 4370 0497 72786163 		.ascii	"rxacr\000"
 4370      7200
 4371              	.LASF49:
 4372 049d 61726269 		.ascii	"arbiter\000"
 4372      74657200 
 4373              	.LASF35:
 4374 04a5 72786163 		.ascii	"rxacrd\000"
 4374      726400
ARM GAS  C:\Users\HENRYH~1\AppData\Local\Temp\ccMT0gCo.s 			page 108


 4375              	.LASF31:
 4376 04ac 43414E5F 		.ascii	"CAN_TX_CFG\000"
 4376      54585F43 
 4376      464700
 4377              	.LASF40:
 4378 04b7 72657375 		.ascii	"result\000"
 4378      6C7400
 4379              	.LASF54:
 4380 04be 43414E5F 		.ascii	"CAN_SetRestartType\000"
 4380      53657452 
 4380      65737461 
 4380      72745479 
 4380      706500
 4381              		.ident	"GCC: (GNU Tools for ARM Embedded Processors) 5.4.1 20160609 (release) [ARM/embedded-5-bran
