ARM GAS  C:\Users\HENRYH~1\AppData\Local\Temp\ccMT0gCo.s 			page 1


   1              		.syntax unified
   2              		.cpu cortex-m3
   3              		.fpu softvfp
   4              		.eabi_attribute 20, 1
   5              		.eabi_attribute 21, 1
   6              		.eabi_attribute 23, 3
   7              		.eabi_attribute 24, 1
   8              		.eabi_attribute 25, 1
   9              		.eabi_attribute 26, 1
  10              		.eabi_attribute 30, 1
  11              		.eabi_attribute 34, 1
  12              		.eabi_attribute 18, 4
  13              		.thumb
  14              		.syntax unified
  15              		.file	"CAN.c"
  16              		.text
  17              	.Ltext0:
  18              		.cfi_sections	.debug_frame
  19              		.section	.text.CAN_Stop,"ax",%progbits
  20              		.align	2
  21              		.global	CAN_Stop
  22              		.thumb
  23              		.thumb_func
  24              		.type	CAN_Stop, %function
  25              	CAN_Stop:
  26              	.LFB4:
  27              		.file 1 "Generated_Source\\PSoC5\\CAN.c"
   1:Generated_Source\PSoC5/CAN.c **** /*******************************************************************************
   2:Generated_Source\PSoC5/CAN.c **** * File Name: CAN.c
   3:Generated_Source\PSoC5/CAN.c **** * Version 3.0
   4:Generated_Source\PSoC5/CAN.c **** *
   5:Generated_Source\PSoC5/CAN.c **** * Description:
   6:Generated_Source\PSoC5/CAN.c **** *  The CAN Component provides functionality of Control Area Network.
   7:Generated_Source\PSoC5/CAN.c **** *  The two types of mailbox configuration available are "Full" and "Basic".
   8:Generated_Source\PSoC5/CAN.c **** *
   9:Generated_Source\PSoC5/CAN.c **** * Note:
  10:Generated_Source\PSoC5/CAN.c **** *  The CAN configuration is put as constant to ROM and can be changed
  11:Generated_Source\PSoC5/CAN.c **** *  only directly by the registers written by the user.
  12:Generated_Source\PSoC5/CAN.c **** *
  13:Generated_Source\PSoC5/CAN.c **** ********************************************************************************
  14:Generated_Source\PSoC5/CAN.c **** * Copyright 2008-2015, Cypress Semiconductor Corporation.  All rights reserved.
  15:Generated_Source\PSoC5/CAN.c **** * You may use this file only in accordance with the license, terms, conditions,
  16:Generated_Source\PSoC5/CAN.c **** * disclaimers, and limitations in the end user license agreement accompanying
  17:Generated_Source\PSoC5/CAN.c **** * the software package with which this file was provided.
  18:Generated_Source\PSoC5/CAN.c **** *******************************************************************************/
  19:Generated_Source\PSoC5/CAN.c **** 
  20:Generated_Source\PSoC5/CAN.c **** #include "CAN.h"
  21:Generated_Source\PSoC5/CAN.c **** 
  22:Generated_Source\PSoC5/CAN.c **** uint8 CAN_initVar = 0u;
  23:Generated_Source\PSoC5/CAN.c **** 
  24:Generated_Source\PSoC5/CAN.c **** 
  25:Generated_Source\PSoC5/CAN.c **** /*******************************************************************************
  26:Generated_Source\PSoC5/CAN.c **** * FUNCTION NAME:   CAN_RxTxBuffersConfig
  27:Generated_Source\PSoC5/CAN.c **** ********************************************************************************
  28:Generated_Source\PSoC5/CAN.c **** *
  29:Generated_Source\PSoC5/CAN.c **** * Summary:
  30:Generated_Source\PSoC5/CAN.c **** *  Inits/Restores default CAN Rx and Tx Buffers control registers configuration
ARM GAS  C:\Users\HENRYH~1\AppData\Local\Temp\ccMT0gCo.s 			page 2


  31:Generated_Source\PSoC5/CAN.c **** *  provided by the customizer.
  32:Generated_Source\PSoC5/CAN.c **** *
  33:Generated_Source\PSoC5/CAN.c **** * Parameters:
  34:Generated_Source\PSoC5/CAN.c **** *  None.
  35:Generated_Source\PSoC5/CAN.c **** *
  36:Generated_Source\PSoC5/CAN.c **** * Return:
  37:Generated_Source\PSoC5/CAN.c **** *  The indication whether the configuration has been accepted or rejected.
  38:Generated_Source\PSoC5/CAN.c **** *   Define                             Description
  39:Generated_Source\PSoC5/CAN.c **** *    CYRET_SUCCESS                      The function passed successfully
  40:Generated_Source\PSoC5/CAN.c **** *    CAN_FAIL              The function failed
  41:Generated_Source\PSoC5/CAN.c **** *
  42:Generated_Source\PSoC5/CAN.c **** * Side Effects:
  43:Generated_Source\PSoC5/CAN.c **** *  All the Rx and Tx Buffers control registers will be reset to their initial
  44:Generated_Source\PSoC5/CAN.c **** *  values.
  45:Generated_Source\PSoC5/CAN.c **** *
  46:Generated_Source\PSoC5/CAN.c **** *******************************************************************************/
  47:Generated_Source\PSoC5/CAN.c **** uint8 CAN_RxTxBuffersConfig(void) 
  48:Generated_Source\PSoC5/CAN.c **** {
  49:Generated_Source\PSoC5/CAN.c ****     /* Initial values of CAN RX and TX registers */
  50:Generated_Source\PSoC5/CAN.c ****     static const CAN_RX_CFG CYCODE CAN_RXConfigStruct[] =
  51:Generated_Source\PSoC5/CAN.c ****     {
  52:Generated_Source\PSoC5/CAN.c ****         { 0u, 0x28u, 0x1FFFF9u, 0x400000u },
  53:Generated_Source\PSoC5/CAN.c ****         { 1u, 0x0u, 0x0u, 0x0u },
  54:Generated_Source\PSoC5/CAN.c ****         { 2u, 0x0u, 0x0u, 0x0u },
  55:Generated_Source\PSoC5/CAN.c ****         { 3u, 0x0u, 0x0u, 0x0u },
  56:Generated_Source\PSoC5/CAN.c ****         { 4u, 0x0u, 0x0u, 0x0u },
  57:Generated_Source\PSoC5/CAN.c ****         { 5u, 0x0u, 0x0u, 0x0u },
  58:Generated_Source\PSoC5/CAN.c ****         { 6u, 0x0u, 0x0u, 0x0u },
  59:Generated_Source\PSoC5/CAN.c ****         { 7u, 0x0u, 0x0u, 0x0u },
  60:Generated_Source\PSoC5/CAN.c ****         { 8u, 0x0u, 0x0u, 0x0u },
  61:Generated_Source\PSoC5/CAN.c ****         { 9u, 0x0u, 0x0u, 0x0u },
  62:Generated_Source\PSoC5/CAN.c ****         { 10u, 0x0u, 0x0u, 0x0u },
  63:Generated_Source\PSoC5/CAN.c ****         { 11u, 0x0u, 0x0u, 0x0u },
  64:Generated_Source\PSoC5/CAN.c ****         { 12u, 0x0u, 0x0u, 0x0u },
  65:Generated_Source\PSoC5/CAN.c ****         { 13u, 0x0u, 0x0u, 0x0u },
  66:Generated_Source\PSoC5/CAN.c ****         { 14u, 0x0u, 0x0u, 0x0u },
  67:Generated_Source\PSoC5/CAN.c ****         { 15u, 0x0u, 0x0u, 0x0u }
  68:Generated_Source\PSoC5/CAN.c ****     };
  69:Generated_Source\PSoC5/CAN.c **** 
  70:Generated_Source\PSoC5/CAN.c ****     static const CAN_TX_CFG CYCODE CAN_TXConfigStruct[] =
  71:Generated_Source\PSoC5/CAN.c ****     {
  72:Generated_Source\PSoC5/CAN.c ****         { 0u, 0x80000u, 0x200000u },
  73:Generated_Source\PSoC5/CAN.c ****         { 1u, 0x880008u, 0x0u },
  74:Generated_Source\PSoC5/CAN.c ****         { 2u, 0x880008u, 0x0u },
  75:Generated_Source\PSoC5/CAN.c ****         { 3u, 0x880008u, 0x0u },
  76:Generated_Source\PSoC5/CAN.c ****         { 4u, 0x880008u, 0x0u },
  77:Generated_Source\PSoC5/CAN.c ****         { 5u, 0x880008u, 0x0u },
  78:Generated_Source\PSoC5/CAN.c ****         { 6u, 0x880008u, 0x0u },
  79:Generated_Source\PSoC5/CAN.c ****         { 7u, 0x880008u, 0x0u }
  80:Generated_Source\PSoC5/CAN.c ****     };
  81:Generated_Source\PSoC5/CAN.c **** 
  82:Generated_Source\PSoC5/CAN.c ****     uint8 result = CYRET_SUCCESS;
  83:Generated_Source\PSoC5/CAN.c ****     uint8 i;
  84:Generated_Source\PSoC5/CAN.c **** 
  85:Generated_Source\PSoC5/CAN.c ****     /* Initialize TX mailboxes */
  86:Generated_Source\PSoC5/CAN.c ****     for (i = 0u; i < CAN_NUMBER_OF_TX_MAILBOXES; i++)
  87:Generated_Source\PSoC5/CAN.c ****     {
ARM GAS  C:\Users\HENRYH~1\AppData\Local\Temp\ccMT0gCo.s 			page 3


  88:Generated_Source\PSoC5/CAN.c ****         if (CAN_TxBufConfig((const CAN_TX_CFG *)
  89:Generated_Source\PSoC5/CAN.c ****             (&CAN_TXConfigStruct[i])) != CYRET_SUCCESS)
  90:Generated_Source\PSoC5/CAN.c ****         {
  91:Generated_Source\PSoC5/CAN.c ****             result = CAN_FAIL;
  92:Generated_Source\PSoC5/CAN.c ****             break;
  93:Generated_Source\PSoC5/CAN.c ****         }
  94:Generated_Source\PSoC5/CAN.c ****     }
  95:Generated_Source\PSoC5/CAN.c **** 
  96:Generated_Source\PSoC5/CAN.c ****     if (result == CYRET_SUCCESS)
  97:Generated_Source\PSoC5/CAN.c ****     {
  98:Generated_Source\PSoC5/CAN.c ****         /* Initialize RX mailboxes */
  99:Generated_Source\PSoC5/CAN.c ****         for (i = 0u; i < CAN_NUMBER_OF_RX_MAILBOXES; i++)
 100:Generated_Source\PSoC5/CAN.c ****         {
 101:Generated_Source\PSoC5/CAN.c ****             if (CAN_RxBufConfig((const CAN_RX_CFG *)
 102:Generated_Source\PSoC5/CAN.c ****                 (&CAN_RXConfigStruct[i])) != CYRET_SUCCESS)
 103:Generated_Source\PSoC5/CAN.c ****             {
 104:Generated_Source\PSoC5/CAN.c ****                 result = CAN_FAIL;
 105:Generated_Source\PSoC5/CAN.c ****                 break;
 106:Generated_Source\PSoC5/CAN.c ****             }
 107:Generated_Source\PSoC5/CAN.c ****         }
 108:Generated_Source\PSoC5/CAN.c ****     }
 109:Generated_Source\PSoC5/CAN.c **** 
 110:Generated_Source\PSoC5/CAN.c ****     return (result);
 111:Generated_Source\PSoC5/CAN.c **** }
 112:Generated_Source\PSoC5/CAN.c **** 
 113:Generated_Source\PSoC5/CAN.c **** 
 114:Generated_Source\PSoC5/CAN.c **** /*******************************************************************************
 115:Generated_Source\PSoC5/CAN.c **** * FUNCTION NAME:   CAN_Init
 116:Generated_Source\PSoC5/CAN.c **** ********************************************************************************
 117:Generated_Source\PSoC5/CAN.c **** *
 118:Generated_Source\PSoC5/CAN.c **** * Summary:
 119:Generated_Source\PSoC5/CAN.c **** *  Inits/Restores default CAN configuration provided by the customizer.
 120:Generated_Source\PSoC5/CAN.c **** *
 121:Generated_Source\PSoC5/CAN.c **** * Parameters:
 122:Generated_Source\PSoC5/CAN.c **** *  None.
 123:Generated_Source\PSoC5/CAN.c **** *
 124:Generated_Source\PSoC5/CAN.c **** * Return:
 125:Generated_Source\PSoC5/CAN.c **** *  The indication whether the configuration has been accepted or rejected.
 126:Generated_Source\PSoC5/CAN.c **** *   Define                             Description
 127:Generated_Source\PSoC5/CAN.c **** *    CYRET_SUCCESS                      The function passed successfully
 128:Generated_Source\PSoC5/CAN.c **** *    CAN_FAIL              The function failed
 129:Generated_Source\PSoC5/CAN.c **** *
 130:Generated_Source\PSoC5/CAN.c **** * Side Effects:
 131:Generated_Source\PSoC5/CAN.c **** *  All the registers will be reset to their initial values. This will
 132:Generated_Source\PSoC5/CAN.c **** *  re-initialize the component with the following exceptions - it will not clear
 133:Generated_Source\PSoC5/CAN.c **** *  data from the mailboxes.
 134:Generated_Source\PSoC5/CAN.c **** *  Enable power to the CAN Core.
 135:Generated_Source\PSoC5/CAN.c **** *
 136:Generated_Source\PSoC5/CAN.c **** *******************************************************************************/
 137:Generated_Source\PSoC5/CAN.c **** uint8 CAN_Init(void) 
 138:Generated_Source\PSoC5/CAN.c **** {
 139:Generated_Source\PSoC5/CAN.c ****     uint32 timeout = CAN_MODE_STATE_STOP_TIMEOUT;
 140:Generated_Source\PSoC5/CAN.c ****     uint8 result = CAN_FAIL;
 141:Generated_Source\PSoC5/CAN.c ****     uint8 localResult = CAN_FAIL;
 142:Generated_Source\PSoC5/CAN.c **** 
 143:Generated_Source\PSoC5/CAN.c ****     #if (CY_PSOC3 || CY_PSOC5)
 144:Generated_Source\PSoC5/CAN.c ****         uint8 enableInterrupts;
ARM GAS  C:\Users\HENRYH~1\AppData\Local\Temp\ccMT0gCo.s 			page 4


 145:Generated_Source\PSoC5/CAN.c **** 
 146:Generated_Source\PSoC5/CAN.c ****         enableInterrupts = CyEnterCriticalSection();
 147:Generated_Source\PSoC5/CAN.c ****         /* Enable CAN block in Active mode */
 148:Generated_Source\PSoC5/CAN.c ****         CAN_PM_ACT_CFG_REG |= CAN_ACT_PWR_EN;
 149:Generated_Source\PSoC5/CAN.c ****         /* Enable CAN block in Alternate Active (Standby) mode */
 150:Generated_Source\PSoC5/CAN.c ****         CAN_PM_STBY_CFG_REG |= CAN_STBY_PWR_EN;
 151:Generated_Source\PSoC5/CAN.c ****         CyExitCriticalSection(enableInterrupts);
 152:Generated_Source\PSoC5/CAN.c **** 
 153:Generated_Source\PSoC5/CAN.c ****         /* Sets CAN controller to stop mode */
 154:Generated_Source\PSoC5/CAN.c ****         CAN_CMD_REG.byte[0u] &= (uint8) (~CAN_MODE_MASK);
 155:Generated_Source\PSoC5/CAN.c **** 
 156:Generated_Source\PSoC5/CAN.c ****         /* Timeout for CAN state machine to switch mode to Stop */
 157:Generated_Source\PSoC5/CAN.c ****         while ((timeout != 0u) && ((CAN_CMD_REG.byte[0u] & CAN_MODE_MASK) != 0u))
 158:Generated_Source\PSoC5/CAN.c ****         {
 159:Generated_Source\PSoC5/CAN.c ****             timeout--;
 160:Generated_Source\PSoC5/CAN.c ****         }
 161:Generated_Source\PSoC5/CAN.c ****     #else  /* CY_PSOC4 */
 162:Generated_Source\PSoC5/CAN.c ****         /* Enable CAN IP Block */
 163:Generated_Source\PSoC5/CAN.c ****         CAN_CNTL_REG = CAN_IP_ENABLE;
 164:Generated_Source\PSoC5/CAN.c **** 
 165:Generated_Source\PSoC5/CAN.c ****         /* Sets CAN controller to stop mode */
 166:Generated_Source\PSoC5/CAN.c ****         CAN_CMD_REG &= (uint32) (~((uint32) CAN_MODE_MASK));
 167:Generated_Source\PSoC5/CAN.c **** 
 168:Generated_Source\PSoC5/CAN.c ****         /* Timeout for CAN state machine to switch mode to Stop */
 169:Generated_Source\PSoC5/CAN.c ****         while ((timeout != 0u) && ((CAN_CMD_REG & CAN_MODE_MASK) != 0u))
 170:Generated_Source\PSoC5/CAN.c ****         {
 171:Generated_Source\PSoC5/CAN.c ****             timeout--;
 172:Generated_Source\PSoC5/CAN.c ****         }
 173:Generated_Source\PSoC5/CAN.c ****     #endif /* CY_PSOC3 || CY_PSOC5 */
 174:Generated_Source\PSoC5/CAN.c ****         if (timeout != 0u)
 175:Generated_Source\PSoC5/CAN.c ****         {
 176:Generated_Source\PSoC5/CAN.c ****             /* Disable Interrupt. */
 177:Generated_Source\PSoC5/CAN.c ****         CyIntDisable(CAN_ISR_NUMBER);
 178:Generated_Source\PSoC5/CAN.c **** 
 179:Generated_Source\PSoC5/CAN.c ****         /* Set the ISR to point to the CAN_ISR Interrupt. */
 180:Generated_Source\PSoC5/CAN.c ****         (void) CyIntSetVector(CAN_ISR_NUMBER, & CAN_ISR);
 181:Generated_Source\PSoC5/CAN.c **** 
 182:Generated_Source\PSoC5/CAN.c ****         /* Set the priority. */
 183:Generated_Source\PSoC5/CAN.c ****         CyIntSetPriority(CAN_ISR_NUMBER, CAN_ISR_PRIORITY);
 184:Generated_Source\PSoC5/CAN.c **** 
 185:Generated_Source\PSoC5/CAN.c ****             if (CAN_SetPreScaler(CAN_BITRATE) == CYRET_SUCCESS)
 186:Generated_Source\PSoC5/CAN.c ****             {
 187:Generated_Source\PSoC5/CAN.c ****                 if (CAN_SetArbiter(CAN_ARBITER) == CYRET_SUCCESS)
 188:Generated_Source\PSoC5/CAN.c ****                 {
 189:Generated_Source\PSoC5/CAN.c ****                     #if (!(CY_PSOC3 || CY_PSOC5))
 190:Generated_Source\PSoC5/CAN.c ****                         if (CAN_SetSwapDataEndianness(CAN_SWAP_DATA_END) == CYRET_SUCCESS)
 191:Generated_Source\PSoC5/CAN.c ****                     #endif /* (!(CY_PSOC3 || CY_PSOC5)) */
 192:Generated_Source\PSoC5/CAN.c ****                         {
 193:Generated_Source\PSoC5/CAN.c ****                             if (CAN_SetTsegSample(CAN_CFG_REG_TSEG1,
 194:Generated_Source\PSoC5/CAN.c ****                                 CAN_CFG_REG_TSEG2, CAN_CFG_REG_SJW,
 195:Generated_Source\PSoC5/CAN.c ****                                 CAN_SAMPLING_MODE) == CYRET_SUCCESS)
 196:Generated_Source\PSoC5/CAN.c ****                             {
 197:Generated_Source\PSoC5/CAN.c ****                                 if (CAN_SetRestartType(CAN_RESET_TYPE) == CYRET_SUCCESS)
 198:Generated_Source\PSoC5/CAN.c ****                                 {
 199:Generated_Source\PSoC5/CAN.c ****                                     if (CAN_SetEdgeMode(CAN_SYNC_EDGE) == CYRET_SUCCESS)
 200:Generated_Source\PSoC5/CAN.c ****                                     {
 201:Generated_Source\PSoC5/CAN.c ****                                         localResult = CYRET_SUCCESS;
ARM GAS  C:\Users\HENRYH~1\AppData\Local\Temp\ccMT0gCo.s 			page 5


 202:Generated_Source\PSoC5/CAN.c ****                                     }
 203:Generated_Source\PSoC5/CAN.c ****                                 }
 204:Generated_Source\PSoC5/CAN.c ****                             }
 205:Generated_Source\PSoC5/CAN.c ****                         }
 206:Generated_Source\PSoC5/CAN.c ****                 }
 207:Generated_Source\PSoC5/CAN.c ****             }
 208:Generated_Source\PSoC5/CAN.c **** 
 209:Generated_Source\PSoC5/CAN.c ****             if (localResult == CYRET_SUCCESS)
 210:Generated_Source\PSoC5/CAN.c ****             {
 211:Generated_Source\PSoC5/CAN.c ****                 if (CAN_RxTxBuffersConfig() == CYRET_SUCCESS)
 212:Generated_Source\PSoC5/CAN.c ****                 {
 213:Generated_Source\PSoC5/CAN.c ****                     /* Write IRQ Mask */
 214:Generated_Source\PSoC5/CAN.c ****                     if (CAN_SetIrqMask(CAN_INIT_INTERRUPT_MASK) ==
 215:Generated_Source\PSoC5/CAN.c ****                         CYRET_SUCCESS)
 216:Generated_Source\PSoC5/CAN.c ****                     {
 217:Generated_Source\PSoC5/CAN.c ****                         /* Set CAN Operation Mode to Active mode always */
 218:Generated_Source\PSoC5/CAN.c ****                         #if (CY_PSOC3 || CY_PSOC5)
 219:Generated_Source\PSoC5/CAN.c ****                             CAN_CMD_REG.byte[0u] = CAN_INITIAL_MODE;
 220:Generated_Source\PSoC5/CAN.c ****                             if ((CAN_CMD_REG.byte[0u] & CAN_MODE_MASK) == 0u)
 221:Generated_Source\PSoC5/CAN.c ****                         #else  /* CY_PSOC4 */
 222:Generated_Source\PSoC5/CAN.c ****                             CAN_CMD_REG &= (uint32) (~((uint32) CAN_OPMODE_FIELD_MASK));
 223:Generated_Source\PSoC5/CAN.c ****                             if ((CAN_CMD_REG & CAN_OPMODE_FIELD_MASK) == 0u)
 224:Generated_Source\PSoC5/CAN.c ****                         #endif /* CY_PSOC3 || CY_PSOC5 */
 225:Generated_Source\PSoC5/CAN.c ****                             {
 226:Generated_Source\PSoC5/CAN.c ****                                 result = CYRET_SUCCESS;
 227:Generated_Source\PSoC5/CAN.c ****                             }
 228:Generated_Source\PSoC5/CAN.c ****                     }
 229:Generated_Source\PSoC5/CAN.c ****                 }
 230:Generated_Source\PSoC5/CAN.c ****             }
 231:Generated_Source\PSoC5/CAN.c ****         }
 232:Generated_Source\PSoC5/CAN.c **** 
 233:Generated_Source\PSoC5/CAN.c ****     return (result);
 234:Generated_Source\PSoC5/CAN.c **** }
 235:Generated_Source\PSoC5/CAN.c **** 
 236:Generated_Source\PSoC5/CAN.c **** 
 237:Generated_Source\PSoC5/CAN.c **** /*******************************************************************************
 238:Generated_Source\PSoC5/CAN.c **** * Function Name: CAN_Enable
 239:Generated_Source\PSoC5/CAN.c **** ********************************************************************************
 240:Generated_Source\PSoC5/CAN.c **** *
 241:Generated_Source\PSoC5/CAN.c **** * Summary:
 242:Generated_Source\PSoC5/CAN.c **** *  This function enables the CAN Component and ISR of CAN Component.
 243:Generated_Source\PSoC5/CAN.c **** *
 244:Generated_Source\PSoC5/CAN.c **** * Parameters:
 245:Generated_Source\PSoC5/CAN.c **** *  None.
 246:Generated_Source\PSoC5/CAN.c **** *
 247:Generated_Source\PSoC5/CAN.c **** * Return:
 248:Generated_Source\PSoC5/CAN.c **** *  The indication whether the register is written and verified.
 249:Generated_Source\PSoC5/CAN.c **** *   Define                             Description
 250:Generated_Source\PSoC5/CAN.c **** *    CYRET_SUCCESS                      The function passed successfully
 251:Generated_Source\PSoC5/CAN.c **** *    CAN_FAIL              The function failed
 252:Generated_Source\PSoC5/CAN.c **** *
 253:Generated_Source\PSoC5/CAN.c **** *******************************************************************************/
 254:Generated_Source\PSoC5/CAN.c **** uint8 CAN_Enable(void) 
 255:Generated_Source\PSoC5/CAN.c **** {
 256:Generated_Source\PSoC5/CAN.c ****     uint32 timeout = CAN_MODE_STATE_RUN_TIMEOUT;
 257:Generated_Source\PSoC5/CAN.c ****     uint8 result = CAN_FAIL;
 258:Generated_Source\PSoC5/CAN.c **** 
ARM GAS  C:\Users\HENRYH~1\AppData\Local\Temp\ccMT0gCo.s 			page 6


 259:Generated_Source\PSoC5/CAN.c ****     #if (CY_PSOC3 || CY_PSOC5)
 260:Generated_Source\PSoC5/CAN.c ****         uint8 enableInterrupts;
 261:Generated_Source\PSoC5/CAN.c **** 
 262:Generated_Source\PSoC5/CAN.c ****         enableInterrupts = CyEnterCriticalSection();
 263:Generated_Source\PSoC5/CAN.c **** 
 264:Generated_Source\PSoC5/CAN.c ****         /* Enable CAN block in Active mode */
 265:Generated_Source\PSoC5/CAN.c ****         CAN_PM_ACT_CFG_REG |= CAN_ACT_PWR_EN;
 266:Generated_Source\PSoC5/CAN.c **** 
 267:Generated_Source\PSoC5/CAN.c ****         /* Enable CAN block in Alternate Active (Standby) mode */
 268:Generated_Source\PSoC5/CAN.c ****         CAN_PM_STBY_CFG_REG |= CAN_STBY_PWR_EN;
 269:Generated_Source\PSoC5/CAN.c **** 
 270:Generated_Source\PSoC5/CAN.c ****         CyExitCriticalSection(enableInterrupts);
 271:Generated_Source\PSoC5/CAN.c ****     #endif /* CY_PSOC3 || CY_PSOC5 */
 272:Generated_Source\PSoC5/CAN.c **** 
 273:Generated_Source\PSoC5/CAN.c ****     /* Clear interrupts status */
 274:Generated_Source\PSoC5/CAN.c ****     CY_SET_REG32(CAN_INT_SR_PTR, CAN_INIT_INTERRUPT_MASK);
 275:Generated_Source\PSoC5/CAN.c ****     (void) CAN_GlobalIntEnable();
 276:Generated_Source\PSoC5/CAN.c **** 
 277:Generated_Source\PSoC5/CAN.c ****     /* Enable isr */
 278:Generated_Source\PSoC5/CAN.c ****     CyIntEnable(CAN_ISR_NUMBER);
 279:Generated_Source\PSoC5/CAN.c **** 
 280:Generated_Source\PSoC5/CAN.c ****     /* Sets CAN controller to run mode */
 281:Generated_Source\PSoC5/CAN.c ****     CY_SET_REG32(CAN_CMD_PTR, CY_GET_REG32(CAN_CMD_PTR) | CAN_MODE_MASK);
 282:Generated_Source\PSoC5/CAN.c **** 
 283:Generated_Source\PSoC5/CAN.c ****     /* Timeout for CAN state machine to switch mode to Run */
 284:Generated_Source\PSoC5/CAN.c ****     while ((timeout != 0u) && ((CY_GET_REG32(CAN_CMD_PTR) & CAN_MODE_MASK) == 0u))
 285:Generated_Source\PSoC5/CAN.c ****     {
 286:Generated_Source\PSoC5/CAN.c ****         timeout--;
 287:Generated_Source\PSoC5/CAN.c ****     }
 288:Generated_Source\PSoC5/CAN.c **** 
 289:Generated_Source\PSoC5/CAN.c ****     if (timeout != 0u)
 290:Generated_Source\PSoC5/CAN.c ****     {
 291:Generated_Source\PSoC5/CAN.c ****         result = CYRET_SUCCESS;
 292:Generated_Source\PSoC5/CAN.c ****     }
 293:Generated_Source\PSoC5/CAN.c **** 
 294:Generated_Source\PSoC5/CAN.c ****     return (result);
 295:Generated_Source\PSoC5/CAN.c **** }
 296:Generated_Source\PSoC5/CAN.c **** 
 297:Generated_Source\PSoC5/CAN.c **** 
 298:Generated_Source\PSoC5/CAN.c **** /*******************************************************************************
 299:Generated_Source\PSoC5/CAN.c **** * FUNCTION NAME:   CAN_Start
 300:Generated_Source\PSoC5/CAN.c **** ********************************************************************************
 301:Generated_Source\PSoC5/CAN.c **** *
 302:Generated_Source\PSoC5/CAN.c **** * Summary:
 303:Generated_Source\PSoC5/CAN.c **** *  This function sets CAN Component into the Run mode. Starts Rate Counter if
 304:Generated_Source\PSoC5/CAN.c **** *  polling mailboxes are available.
 305:Generated_Source\PSoC5/CAN.c **** *
 306:Generated_Source\PSoC5/CAN.c **** * Parameters:
 307:Generated_Source\PSoC5/CAN.c **** *  None.
 308:Generated_Source\PSoC5/CAN.c **** *
 309:Generated_Source\PSoC5/CAN.c **** * Return:
 310:Generated_Source\PSoC5/CAN.c **** *  The indication whether the register is written and verified.
 311:Generated_Source\PSoC5/CAN.c **** *   Define                             Description
 312:Generated_Source\PSoC5/CAN.c **** *    CYRET_SUCCESS                      The function passed successfully
 313:Generated_Source\PSoC5/CAN.c **** *    CAN_FAIL              The function failed
 314:Generated_Source\PSoC5/CAN.c **** *
 315:Generated_Source\PSoC5/CAN.c **** * Global variables:
ARM GAS  C:\Users\HENRYH~1\AppData\Local\Temp\ccMT0gCo.s 			page 7


 316:Generated_Source\PSoC5/CAN.c **** *  CAN_initVar - used to check the initial configuration, modified
 317:Generated_Source\PSoC5/CAN.c **** *  on the first function call.
 318:Generated_Source\PSoC5/CAN.c **** *
 319:Generated_Source\PSoC5/CAN.c **** * Reentrant:
 320:Generated_Source\PSoC5/CAN.c **** *  No.
 321:Generated_Source\PSoC5/CAN.c **** *
 322:Generated_Source\PSoC5/CAN.c **** *******************************************************************************/
 323:Generated_Source\PSoC5/CAN.c **** uint8 CAN_Start(void) 
 324:Generated_Source\PSoC5/CAN.c **** {
 325:Generated_Source\PSoC5/CAN.c ****     uint8 result = CYRET_SUCCESS;
 326:Generated_Source\PSoC5/CAN.c **** 
 327:Generated_Source\PSoC5/CAN.c ****     if (CAN_initVar == 0u)
 328:Generated_Source\PSoC5/CAN.c ****     {
 329:Generated_Source\PSoC5/CAN.c ****         result = CAN_Init();
 330:Generated_Source\PSoC5/CAN.c ****     }
 331:Generated_Source\PSoC5/CAN.c **** 
 332:Generated_Source\PSoC5/CAN.c ****     if (result == CYRET_SUCCESS)
 333:Generated_Source\PSoC5/CAN.c ****     {
 334:Generated_Source\PSoC5/CAN.c ****         CAN_initVar = 1u;
 335:Generated_Source\PSoC5/CAN.c ****         result = CAN_Enable();
 336:Generated_Source\PSoC5/CAN.c ****     }
 337:Generated_Source\PSoC5/CAN.c **** 
 338:Generated_Source\PSoC5/CAN.c ****     return (result);
 339:Generated_Source\PSoC5/CAN.c **** }
 340:Generated_Source\PSoC5/CAN.c **** 
 341:Generated_Source\PSoC5/CAN.c **** 
 342:Generated_Source\PSoC5/CAN.c **** /*******************************************************************************
 343:Generated_Source\PSoC5/CAN.c **** * FUNCTION NAME:   CAN_Stop
 344:Generated_Source\PSoC5/CAN.c **** ********************************************************************************
 345:Generated_Source\PSoC5/CAN.c **** *
 346:Generated_Source\PSoC5/CAN.c **** * Summary:
 347:Generated_Source\PSoC5/CAN.c **** *  This function sets CAN Component into the Stop mode.
 348:Generated_Source\PSoC5/CAN.c **** *
 349:Generated_Source\PSoC5/CAN.c **** * Parameters:
 350:Generated_Source\PSoC5/CAN.c **** *  None.
 351:Generated_Source\PSoC5/CAN.c **** *
 352:Generated_Source\PSoC5/CAN.c **** * Return:
 353:Generated_Source\PSoC5/CAN.c **** *  The indication whether the register is written and verified.
 354:Generated_Source\PSoC5/CAN.c **** *   Define                             Description
 355:Generated_Source\PSoC5/CAN.c **** *    CYRET_SUCCESS                      The function passed successfully
 356:Generated_Source\PSoC5/CAN.c **** *    CAN_FAIL              The function failed
 357:Generated_Source\PSoC5/CAN.c **** *
 358:Generated_Source\PSoC5/CAN.c **** * Side Effects:
 359:Generated_Source\PSoC5/CAN.c **** *  Disable power to CAN Core in case of PSoC 3/5.
 360:Generated_Source\PSoC5/CAN.c **** *  Pending message in the Tx buffer of PSoC 3/5 will not be aborted on calling
 361:Generated_Source\PSoC5/CAN.c **** *  the CAN_Stop() API. User has to abort all pending messages
 362:Generated_Source\PSoC5/CAN.c **** *  before calling the CAN_Stop() function to make sure that the
 363:Generated_Source\PSoC5/CAN.c **** *  block stops all the message transmission immediately.
 364:Generated_Source\PSoC5/CAN.c **** *
 365:Generated_Source\PSoC5/CAN.c **** *******************************************************************************/
 366:Generated_Source\PSoC5/CAN.c **** uint8 CAN_Stop(void) 
 367:Generated_Source\PSoC5/CAN.c **** {
  28              		.loc 1 367 0
  29              		.cfi_startproc
  30              		@ args = 0, pretend = 0, frame = 0
  31              		@ frame_needed = 0, uses_anonymous_args = 0
  32 0000 08B5     		push	{r3, lr}
ARM GAS  C:\Users\HENRYH~1\AppData\Local\Temp\ccMT0gCo.s 			page 8


  33              		.cfi_def_cfa_offset 8
  34              		.cfi_offset 3, -8
  35              		.cfi_offset 14, -4
  36              	.LVL0:
 368:Generated_Source\PSoC5/CAN.c ****     uint32 timeout = CAN_MODE_STATE_STOP_TIMEOUT;
 369:Generated_Source\PSoC5/CAN.c ****     uint8 result = CAN_FAIL;
 370:Generated_Source\PSoC5/CAN.c **** 
 371:Generated_Source\PSoC5/CAN.c ****     #if (CY_PSOC3 || CY_PSOC5)
 372:Generated_Source\PSoC5/CAN.c ****         uint8 enableInterrupts;
 373:Generated_Source\PSoC5/CAN.c ****     #endif /* CY_PSOC3 || CY_PSOC5 */
 374:Generated_Source\PSoC5/CAN.c **** 
 375:Generated_Source\PSoC5/CAN.c ****     /* Set CAN controller to stop mode */
 376:Generated_Source\PSoC5/CAN.c ****     CY_SET_REG32(CAN_CMD_PTR, (CY_GET_REG32(CAN_CMD_PTR) &
  37              		.loc 1 376 0
  38 0002 134A     		ldr	r2, .L8
  39 0004 1368     		ldr	r3, [r2]
  40 0006 23F00103 		bic	r3, r3, #1
  41 000a 1360     		str	r3, [r2]
 368:Generated_Source\PSoC5/CAN.c ****     uint32 timeout = CAN_MODE_STATE_STOP_TIMEOUT;
  42              		.loc 1 368 0
  43 000c 4FF47063 		mov	r3, #3840
 377:Generated_Source\PSoC5/CAN.c ****                                             ((uint32) (~((uint32)CAN_MODE_MASK)))));
 378:Generated_Source\PSoC5/CAN.c **** 
 379:Generated_Source\PSoC5/CAN.c ****     /* Timeout for CAN state machine to switch mode to Stop */
 380:Generated_Source\PSoC5/CAN.c ****     while ((timeout != 0u) && ((CY_GET_REG32(CAN_CMD_PTR) & CAN_MODE_MASK) != 0u))
  44              		.loc 1 380 0
  45 0010 00E0     		b	.L2
  46              	.LVL1:
  47              	.L4:
 381:Generated_Source\PSoC5/CAN.c ****     {
 382:Generated_Source\PSoC5/CAN.c ****         timeout--;
  48              		.loc 1 382 0
  49 0012 013B     		subs	r3, r3, #1
  50              	.LVL2:
  51              	.L2:
 380:Generated_Source\PSoC5/CAN.c ****     {
  52              		.loc 1 380 0
  53 0014 23B1     		cbz	r3, .L3
 380:Generated_Source\PSoC5/CAN.c ****     {
  54              		.loc 1 380 0 is_stmt 0 discriminator 1
  55 0016 0E4A     		ldr	r2, .L8
  56 0018 1268     		ldr	r2, [r2]
  57 001a 12F0010F 		tst	r2, #1
  58 001e F8D1     		bne	.L4
  59              	.L3:
 383:Generated_Source\PSoC5/CAN.c ****     }
 384:Generated_Source\PSoC5/CAN.c **** 
 385:Generated_Source\PSoC5/CAN.c ****     /* Verify that bit is cleared */
 386:Generated_Source\PSoC5/CAN.c ****     if (timeout != 0u)
  60              		.loc 1 386 0 is_stmt 1
  61 0020 9BB1     		cbz	r3, .L6
  62              	.LVL3:
 387:Generated_Source\PSoC5/CAN.c ****     {
 388:Generated_Source\PSoC5/CAN.c ****         result = CYRET_SUCCESS;
 389:Generated_Source\PSoC5/CAN.c **** 
 390:Generated_Source\PSoC5/CAN.c ****         /* Disable isr */
 391:Generated_Source\PSoC5/CAN.c ****     CyIntDisable(CAN_ISR_NUMBER);
ARM GAS  C:\Users\HENRYH~1\AppData\Local\Temp\ccMT0gCo.s 			page 9


  63              		.loc 1 391 0
  64 0022 4FF48032 		mov	r2, #65536
  65 0026 0B4B     		ldr	r3, .L8+4
  66              	.LVL4:
  67 0028 1A60     		str	r2, [r3]
 392:Generated_Source\PSoC5/CAN.c **** 
 393:Generated_Source\PSoC5/CAN.c ****         #if (CY_PSOC3 || CY_PSOC5)
 394:Generated_Source\PSoC5/CAN.c ****             enableInterrupts = CyEnterCriticalSection();
  68              		.loc 1 394 0
  69 002a FFF7FEFF 		bl	CyEnterCriticalSection
  70              	.LVL5:
 395:Generated_Source\PSoC5/CAN.c **** 
 396:Generated_Source\PSoC5/CAN.c ****             /* Disable CAN block in Active mode */
 397:Generated_Source\PSoC5/CAN.c ****             CAN_PM_ACT_CFG_REG &= (uint8) (~CAN_ACT_PWR_EN);
  71              		.loc 1 397 0
  72 002e 0A4A     		ldr	r2, .L8+8
  73 0030 1378     		ldrb	r3, [r2]	@ zero_extendqisi2
  74 0032 03F0FE03 		and	r3, r3, #254
  75 0036 1370     		strb	r3, [r2]
 398:Generated_Source\PSoC5/CAN.c **** 
 399:Generated_Source\PSoC5/CAN.c ****             /* Disable CAN block in Alternate Active (Standby) mode template */
 400:Generated_Source\PSoC5/CAN.c ****             CAN_PM_STBY_CFG_REG &= (uint8) (~CAN_STBY_PWR_EN);
  76              		.loc 1 400 0
  77 0038 1032     		adds	r2, r2, #16
  78 003a 1378     		ldrb	r3, [r2]	@ zero_extendqisi2
  79 003c 03F0FE03 		and	r3, r3, #254
  80 0040 1370     		strb	r3, [r2]
 401:Generated_Source\PSoC5/CAN.c **** 
 402:Generated_Source\PSoC5/CAN.c ****             CyExitCriticalSection(enableInterrupts);
  81              		.loc 1 402 0
  82 0042 FFF7FEFF 		bl	CyExitCriticalSection
  83              	.LVL6:
 388:Generated_Source\PSoC5/CAN.c **** 
  84              		.loc 1 388 0
  85 0046 0020     		movs	r0, #0
  86 0048 08BD     		pop	{r3, pc}
  87              	.LVL7:
  88              	.L6:
 369:Generated_Source\PSoC5/CAN.c **** 
  89              		.loc 1 369 0
  90 004a 0120     		movs	r0, #1
  91              	.LVL8:
 403:Generated_Source\PSoC5/CAN.c ****         #endif /* CY_PSOC3 || CY_PSOC5 */
 404:Generated_Source\PSoC5/CAN.c ****     }
 405:Generated_Source\PSoC5/CAN.c **** 
 406:Generated_Source\PSoC5/CAN.c ****     return (result);
 407:Generated_Source\PSoC5/CAN.c **** }
  92              		.loc 1 407 0
  93 004c 08BD     		pop	{r3, pc}
  94              	.LVL9:
  95              	.L9:
  96 004e 00BF     		.align	2
  97              	.L8:
  98 0050 10A00040 		.word	1073782800
  99 0054 80E100E0 		.word	-536813184
 100 0058 A6430040 		.word	1073759142
 101              		.cfi_endproc
ARM GAS  C:\Users\HENRYH~1\AppData\Local\Temp\ccMT0gCo.s 			page 10


 102              	.LFE4:
 103              		.size	CAN_Stop, .-CAN_Stop
 104              		.section	.text.CAN_GlobalIntEnable,"ax",%progbits
 105              		.align	2
 106              		.global	CAN_GlobalIntEnable
 107              		.thumb
 108              		.thumb_func
 109              		.type	CAN_GlobalIntEnable, %function
 110              	CAN_GlobalIntEnable:
 111              	.LFB5:
 408:Generated_Source\PSoC5/CAN.c **** 
 409:Generated_Source\PSoC5/CAN.c **** 
 410:Generated_Source\PSoC5/CAN.c **** /*******************************************************************************
 411:Generated_Source\PSoC5/CAN.c **** * FUNCTION NAME:   CAN_GlobalIntEnable
 412:Generated_Source\PSoC5/CAN.c **** ********************************************************************************
 413:Generated_Source\PSoC5/CAN.c **** *
 414:Generated_Source\PSoC5/CAN.c **** * Summary:
 415:Generated_Source\PSoC5/CAN.c **** *  This function enables Global Interrupts from CAN Core.
 416:Generated_Source\PSoC5/CAN.c **** *
 417:Generated_Source\PSoC5/CAN.c **** * Parameters:
 418:Generated_Source\PSoC5/CAN.c **** *  None.
 419:Generated_Source\PSoC5/CAN.c **** *
 420:Generated_Source\PSoC5/CAN.c **** * Return:
 421:Generated_Source\PSoC5/CAN.c **** *  The indication whether the register is written and verified.
 422:Generated_Source\PSoC5/CAN.c **** *   Define                             Description
 423:Generated_Source\PSoC5/CAN.c **** *    CYRET_SUCCESS                      The function passed successfully
 424:Generated_Source\PSoC5/CAN.c **** *    CAN_FAIL              The function failed
 425:Generated_Source\PSoC5/CAN.c **** *
 426:Generated_Source\PSoC5/CAN.c **** *******************************************************************************/
 427:Generated_Source\PSoC5/CAN.c **** uint8 CAN_GlobalIntEnable(void) 
 428:Generated_Source\PSoC5/CAN.c **** {
 112              		.loc 1 428 0
 113              		.cfi_startproc
 114              		@ args = 0, pretend = 0, frame = 0
 115              		@ frame_needed = 0, uses_anonymous_args = 0
 116              		@ link register save eliminated.
 117              	.LVL10:
 429:Generated_Source\PSoC5/CAN.c ****     uint8 result = CAN_FAIL;
 430:Generated_Source\PSoC5/CAN.c **** 
 431:Generated_Source\PSoC5/CAN.c ****     #if (CY_PSOC3 || CY_PSOC5)
 432:Generated_Source\PSoC5/CAN.c ****         CAN_INT_EN_REG.byte[0u] |= CAN_GLOBAL_INT_MASK;
 118              		.loc 1 432 0
 119 0000 064B     		ldr	r3, .L13
 120 0002 1A78     		ldrb	r2, [r3]	@ zero_extendqisi2
 121 0004 42F00102 		orr	r2, r2, #1
 122 0008 1A70     		strb	r2, [r3]
 433:Generated_Source\PSoC5/CAN.c **** 
 434:Generated_Source\PSoC5/CAN.c ****         /* Verify that bit is set */
 435:Generated_Source\PSoC5/CAN.c ****         if ((CAN_INT_EN_REG.byte[0u] & CAN_GLOBAL_INT_MASK) != 0u)
 123              		.loc 1 435 0
 124 000a 1B78     		ldrb	r3, [r3]	@ zero_extendqisi2
 125 000c 13F0010F 		tst	r3, #1
 126 0010 01D1     		bne	.L12
 429:Generated_Source\PSoC5/CAN.c ****     uint8 result = CAN_FAIL;
 127              		.loc 1 429 0
 128 0012 0120     		movs	r0, #1
 129 0014 7047     		bx	lr
ARM GAS  C:\Users\HENRYH~1\AppData\Local\Temp\ccMT0gCo.s 			page 11


 130              	.L12:
 436:Generated_Source\PSoC5/CAN.c ****         {
 437:Generated_Source\PSoC5/CAN.c ****             result = CYRET_SUCCESS;
 131              		.loc 1 437 0
 132 0016 0020     		movs	r0, #0
 133              	.LVL11:
 438:Generated_Source\PSoC5/CAN.c ****         }
 439:Generated_Source\PSoC5/CAN.c ****     #else  /* CY_PSOC4 */
 440:Generated_Source\PSoC5/CAN.c ****         CAN_INT_EN_REG |= CAN_GLOBAL_INT_MASK;
 441:Generated_Source\PSoC5/CAN.c ****         /* Verify that bit is set */
 442:Generated_Source\PSoC5/CAN.c ****         if ((CAN_INT_EN_REG & CAN_GLOBAL_INT_MASK) != 0u)
 443:Generated_Source\PSoC5/CAN.c ****         {
 444:Generated_Source\PSoC5/CAN.c ****             result = CYRET_SUCCESS;
 445:Generated_Source\PSoC5/CAN.c ****         }
 446:Generated_Source\PSoC5/CAN.c ****     #endif /* CY_PSOC3 || CY_PSOC5 */
 447:Generated_Source\PSoC5/CAN.c **** 
 448:Generated_Source\PSoC5/CAN.c ****     return (result);
 449:Generated_Source\PSoC5/CAN.c **** }
 134              		.loc 1 449 0
 135 0018 7047     		bx	lr
 136              	.L14:
 137 001a 00BF     		.align	2
 138              	.L13:
 139 001c 04A00040 		.word	1073782788
 140              		.cfi_endproc
 141              	.LFE5:
 142              		.size	CAN_GlobalIntEnable, .-CAN_GlobalIntEnable
 143              		.section	.text.CAN_Enable,"ax",%progbits
 144              		.align	2
 145              		.global	CAN_Enable
 146              		.thumb
 147              		.thumb_func
 148              		.type	CAN_Enable, %function
 149              	CAN_Enable:
 150              	.LFB2:
 255:Generated_Source\PSoC5/CAN.c ****     uint32 timeout = CAN_MODE_STATE_RUN_TIMEOUT;
 151              		.loc 1 255 0
 152              		.cfi_startproc
 153              		@ args = 0, pretend = 0, frame = 0
 154              		@ frame_needed = 0, uses_anonymous_args = 0
 155 0000 08B5     		push	{r3, lr}
 156              		.cfi_def_cfa_offset 8
 157              		.cfi_offset 3, -8
 158              		.cfi_offset 14, -4
 159              	.LVL12:
 262:Generated_Source\PSoC5/CAN.c **** 
 160              		.loc 1 262 0
 161 0002 FFF7FEFF 		bl	CyEnterCriticalSection
 162              	.LVL13:
 265:Generated_Source\PSoC5/CAN.c **** 
 163              		.loc 1 265 0
 164 0006 154A     		ldr	r2, .L22
 165 0008 1378     		ldrb	r3, [r2]	@ zero_extendqisi2
 166 000a 43F00103 		orr	r3, r3, #1
 167 000e 1370     		strb	r3, [r2]
 268:Generated_Source\PSoC5/CAN.c **** 
 168              		.loc 1 268 0
ARM GAS  C:\Users\HENRYH~1\AppData\Local\Temp\ccMT0gCo.s 			page 12


 169 0010 1032     		adds	r2, r2, #16
 170 0012 1378     		ldrb	r3, [r2]	@ zero_extendqisi2
 171 0014 43F00103 		orr	r3, r3, #1
 172 0018 1370     		strb	r3, [r2]
 270:Generated_Source\PSoC5/CAN.c ****     #endif /* CY_PSOC3 || CY_PSOC5 */
 173              		.loc 1 270 0
 174 001a FFF7FEFF 		bl	CyExitCriticalSection
 175              	.LVL14:
 274:Generated_Source\PSoC5/CAN.c ****     (void) CAN_GlobalIntEnable();
 176              		.loc 1 274 0
 177 001e 41F20122 		movw	r2, #4609
 178 0022 0F4B     		ldr	r3, .L22+4
 179 0024 1A60     		str	r2, [r3]
 275:Generated_Source\PSoC5/CAN.c **** 
 180              		.loc 1 275 0
 181 0026 FFF7FEFF 		bl	CAN_GlobalIntEnable
 182              	.LVL15:
 278:Generated_Source\PSoC5/CAN.c **** 
 183              		.loc 1 278 0
 184 002a 4FF48032 		mov	r2, #65536
 185 002e 0D4B     		ldr	r3, .L22+8
 186 0030 1A60     		str	r2, [r3]
 281:Generated_Source\PSoC5/CAN.c **** 
 187              		.loc 1 281 0
 188 0032 0D4A     		ldr	r2, .L22+12
 189 0034 1368     		ldr	r3, [r2]
 190 0036 43F00103 		orr	r3, r3, #1
 191 003a 1360     		str	r3, [r2]
 256:Generated_Source\PSoC5/CAN.c ****     uint8 result = CAN_FAIL;
 192              		.loc 1 256 0
 193 003c 4FF49073 		mov	r3, #288
 284:Generated_Source\PSoC5/CAN.c ****     {
 194              		.loc 1 284 0
 195 0040 00E0     		b	.L16
 196              	.LVL16:
 197              	.L18:
 286:Generated_Source\PSoC5/CAN.c ****     }
 198              		.loc 1 286 0
 199 0042 013B     		subs	r3, r3, #1
 200              	.LVL17:
 201              	.L16:
 284:Generated_Source\PSoC5/CAN.c ****     {
 202              		.loc 1 284 0
 203 0044 23B1     		cbz	r3, .L17
 284:Generated_Source\PSoC5/CAN.c ****     {
 204              		.loc 1 284 0 is_stmt 0 discriminator 1
 205 0046 084A     		ldr	r2, .L22+12
 206 0048 1268     		ldr	r2, [r2]
 207 004a 12F0010F 		tst	r2, #1
 208 004e F8D0     		beq	.L18
 209              	.L17:
 289:Generated_Source\PSoC5/CAN.c ****     {
 210              		.loc 1 289 0 is_stmt 1
 211 0050 0BB9     		cbnz	r3, .L20
 257:Generated_Source\PSoC5/CAN.c **** 
 212              		.loc 1 257 0
 213 0052 0120     		movs	r0, #1
ARM GAS  C:\Users\HENRYH~1\AppData\Local\Temp\ccMT0gCo.s 			page 13


 214 0054 08BD     		pop	{r3, pc}
 215              	.LVL18:
 216              	.L20:
 291:Generated_Source\PSoC5/CAN.c ****     }
 217              		.loc 1 291 0
 218 0056 0020     		movs	r0, #0
 219              	.LVL19:
 295:Generated_Source\PSoC5/CAN.c **** 
 220              		.loc 1 295 0
 221 0058 08BD     		pop	{r3, pc}
 222              	.LVL20:
 223              	.L23:
 224 005a 00BF     		.align	2
 225              	.L22:
 226 005c A6430040 		.word	1073759142
 227 0060 00A00040 		.word	1073782784
 228 0064 00E100E0 		.word	-536813312
 229 0068 10A00040 		.word	1073782800
 230              		.cfi_endproc
 231              	.LFE2:
 232              		.size	CAN_Enable, .-CAN_Enable
 233              		.section	.text.CAN_GlobalIntDisable,"ax",%progbits
 234              		.align	2
 235              		.global	CAN_GlobalIntDisable
 236              		.thumb
 237              		.thumb_func
 238              		.type	CAN_GlobalIntDisable, %function
 239              	CAN_GlobalIntDisable:
 240              	.LFB6:
 450:Generated_Source\PSoC5/CAN.c **** 
 451:Generated_Source\PSoC5/CAN.c **** 
 452:Generated_Source\PSoC5/CAN.c **** /*******************************************************************************
 453:Generated_Source\PSoC5/CAN.c **** * FUNCTION NAME:   CAN_GlobalIntDisable
 454:Generated_Source\PSoC5/CAN.c **** ********************************************************************************
 455:Generated_Source\PSoC5/CAN.c **** *
 456:Generated_Source\PSoC5/CAN.c **** * Summary:
 457:Generated_Source\PSoC5/CAN.c **** *  This function disables Global Interrupts from CAN Core.
 458:Generated_Source\PSoC5/CAN.c **** *
 459:Generated_Source\PSoC5/CAN.c **** * Parameters:
 460:Generated_Source\PSoC5/CAN.c **** *  None.
 461:Generated_Source\PSoC5/CAN.c **** *
 462:Generated_Source\PSoC5/CAN.c **** * Return:
 463:Generated_Source\PSoC5/CAN.c **** *  The indication whether the register is written and verified.
 464:Generated_Source\PSoC5/CAN.c **** *   Define                             Description
 465:Generated_Source\PSoC5/CAN.c **** *    CYRET_SUCCESS                      The function passed successfully
 466:Generated_Source\PSoC5/CAN.c **** *    CAN_FAIL              The function failed
 467:Generated_Source\PSoC5/CAN.c **** *
 468:Generated_Source\PSoC5/CAN.c **** *******************************************************************************/
 469:Generated_Source\PSoC5/CAN.c **** uint8 CAN_GlobalIntDisable(void) 
 470:Generated_Source\PSoC5/CAN.c **** {
 241              		.loc 1 470 0
 242              		.cfi_startproc
 243              		@ args = 0, pretend = 0, frame = 0
 244              		@ frame_needed = 0, uses_anonymous_args = 0
 245              		@ link register save eliminated.
 246              	.LVL21:
 471:Generated_Source\PSoC5/CAN.c ****     uint8 result = CAN_FAIL;
ARM GAS  C:\Users\HENRYH~1\AppData\Local\Temp\ccMT0gCo.s 			page 14


 472:Generated_Source\PSoC5/CAN.c **** 
 473:Generated_Source\PSoC5/CAN.c ****     #if (CY_PSOC3 || CY_PSOC5)
 474:Generated_Source\PSoC5/CAN.c ****         CAN_INT_EN_REG.byte[0u] &= (uint8) (~CAN_GLOBAL_INT_MASK);
 247              		.loc 1 474 0
 248 0000 064B     		ldr	r3, .L27
 249 0002 1A78     		ldrb	r2, [r3]	@ zero_extendqisi2
 250 0004 02F0FE02 		and	r2, r2, #254
 251 0008 1A70     		strb	r2, [r3]
 475:Generated_Source\PSoC5/CAN.c **** 
 476:Generated_Source\PSoC5/CAN.c ****         /* Verify that bit is cleared */
 477:Generated_Source\PSoC5/CAN.c ****         if ((CAN_INT_EN_REG.byte[0u] & CAN_GLOBAL_INT_MASK) == 0u)
 252              		.loc 1 477 0
 253 000a 1B78     		ldrb	r3, [r3]	@ zero_extendqisi2
 254 000c 13F0010F 		tst	r3, #1
 255 0010 01D0     		beq	.L26
 471:Generated_Source\PSoC5/CAN.c ****     uint8 result = CAN_FAIL;
 256              		.loc 1 471 0
 257 0012 0120     		movs	r0, #1
 258 0014 7047     		bx	lr
 259              	.L26:
 478:Generated_Source\PSoC5/CAN.c ****         {
 479:Generated_Source\PSoC5/CAN.c ****             result = CYRET_SUCCESS;
 260              		.loc 1 479 0
 261 0016 0020     		movs	r0, #0
 262              	.LVL22:
 480:Generated_Source\PSoC5/CAN.c ****         }
 481:Generated_Source\PSoC5/CAN.c ****     #else  /* CY_PSOC4 */
 482:Generated_Source\PSoC5/CAN.c ****         CAN_INT_EN_REG &= (uint32) (~((uint32) CAN_GLOBAL_INT_MASK));
 483:Generated_Source\PSoC5/CAN.c **** 
 484:Generated_Source\PSoC5/CAN.c ****         /* Verify that bit is cleared */
 485:Generated_Source\PSoC5/CAN.c ****         if ((CAN_INT_EN_REG & CAN_GLOBAL_INT_MASK) == 0u)
 486:Generated_Source\PSoC5/CAN.c ****         {
 487:Generated_Source\PSoC5/CAN.c ****             result = CYRET_SUCCESS;
 488:Generated_Source\PSoC5/CAN.c ****         }
 489:Generated_Source\PSoC5/CAN.c ****     #endif /* CY_PSOC3 || CY_PSOC5 */
 490:Generated_Source\PSoC5/CAN.c **** 
 491:Generated_Source\PSoC5/CAN.c ****     return (result);
 492:Generated_Source\PSoC5/CAN.c **** }
 263              		.loc 1 492 0
 264 0018 7047     		bx	lr
 265              	.L28:
 266 001a 00BF     		.align	2
 267              	.L27:
 268 001c 04A00040 		.word	1073782788
 269              		.cfi_endproc
 270              	.LFE6:
 271              		.size	CAN_GlobalIntDisable, .-CAN_GlobalIntDisable
 272              		.section	.text.CAN_SetPreScaler,"ax",%progbits
 273              		.align	2
 274              		.global	CAN_SetPreScaler
 275              		.thumb
 276              		.thumb_func
 277              		.type	CAN_SetPreScaler, %function
 278              	CAN_SetPreScaler:
 279              	.LFB7:
 493:Generated_Source\PSoC5/CAN.c **** 
 494:Generated_Source\PSoC5/CAN.c **** 
ARM GAS  C:\Users\HENRYH~1\AppData\Local\Temp\ccMT0gCo.s 			page 15


 495:Generated_Source\PSoC5/CAN.c **** /*******************************************************************************
 496:Generated_Source\PSoC5/CAN.c **** * FUNCTION NAME:   CAN_SetPreScaler
 497:Generated_Source\PSoC5/CAN.c **** ********************************************************************************
 498:Generated_Source\PSoC5/CAN.c **** *
 499:Generated_Source\PSoC5/CAN.c **** * Summary:
 500:Generated_Source\PSoC5/CAN.c **** *  This function sets PreScaler for generating the time quantum which defines
 501:Generated_Source\PSoC5/CAN.c **** *  the time quanta. The values between 0x0 and 0x7FFF are valid.
 502:Generated_Source\PSoC5/CAN.c **** *
 503:Generated_Source\PSoC5/CAN.c **** * Parameters:
 504:Generated_Source\PSoC5/CAN.c **** *  bitrate: PreScaler value.
 505:Generated_Source\PSoC5/CAN.c **** *   Value           Description
 506:Generated_Source\PSoC5/CAN.c **** *    0               One time quantum equals 1 clock cycle
 507:Generated_Source\PSoC5/CAN.c **** *    1               One time quantum equals 2 clock cycles
 508:Generated_Source\PSoC5/CAN.c **** *    ...             ...
 509:Generated_Source\PSoC5/CAN.c **** *    32767           One time quantum equals 32768 clock cycles
 510:Generated_Source\PSoC5/CAN.c **** *
 511:Generated_Source\PSoC5/CAN.c **** * Return:
 512:Generated_Source\PSoC5/CAN.c **** *  The indication whether the register is written and verified.
 513:Generated_Source\PSoC5/CAN.c **** *   Define                             Description
 514:Generated_Source\PSoC5/CAN.c **** *    CYRET_SUCCESS                      The function passed successfully
 515:Generated_Source\PSoC5/CAN.c **** *    CAN_FAIL              The function failed
 516:Generated_Source\PSoC5/CAN.c **** *    CAN_OUT_OF_RANGE      The function parameter is out of range
 517:Generated_Source\PSoC5/CAN.c **** *
 518:Generated_Source\PSoC5/CAN.c **** *******************************************************************************/
 519:Generated_Source\PSoC5/CAN.c **** uint8 CAN_SetPreScaler(uint16 bitrate) 
 520:Generated_Source\PSoC5/CAN.c **** {
 280              		.loc 1 520 0
 281              		.cfi_startproc
 282              		@ args = 0, pretend = 0, frame = 0
 283              		@ frame_needed = 0, uses_anonymous_args = 0
 284              		@ link register save eliminated.
 285              	.LVL23:
 521:Generated_Source\PSoC5/CAN.c ****     uint8 result = CAN_OUT_OF_RANGE;
 522:Generated_Source\PSoC5/CAN.c **** 
 523:Generated_Source\PSoC5/CAN.c ****     if (bitrate <= CAN_BITRATE_MASK)
 286              		.loc 1 523 0
 287 0000 10F4004F 		tst	r0, #32768
 288 0004 07D1     		bne	.L31
 289              	.LVL24:
 524:Generated_Source\PSoC5/CAN.c ****     {
 525:Generated_Source\PSoC5/CAN.c ****         result = CAN_FAIL;
 526:Generated_Source\PSoC5/CAN.c **** 
 527:Generated_Source\PSoC5/CAN.c ****         #if (CY_PSOC3 || CY_PSOC5)
 528:Generated_Source\PSoC5/CAN.c ****             /* Set prescaler */
 529:Generated_Source\PSoC5/CAN.c ****             CY_SET_REG16((reg16 *) (&CAN_CFG_REG.byte[2u]), bitrate);
 290              		.loc 1 529 0
 291 0006 064B     		ldr	r3, .L33
 292 0008 1880     		strh	r0, [r3]	@ movhi
 530:Generated_Source\PSoC5/CAN.c **** 
 531:Generated_Source\PSoC5/CAN.c ****             /* Verify that prescaler is set */
 532:Generated_Source\PSoC5/CAN.c ****             if (CY_GET_REG16((reg16 *) (&CAN_CFG_REG.byte[2u])) == bitrate)
 293              		.loc 1 532 0
 294 000a 1B88     		ldrh	r3, [r3]
 295 000c 9BB2     		uxth	r3, r3
 296 000e 9842     		cmp	r0, r3
 297 0010 03D0     		beq	.L32
 525:Generated_Source\PSoC5/CAN.c **** 
ARM GAS  C:\Users\HENRYH~1\AppData\Local\Temp\ccMT0gCo.s 			page 16


 298              		.loc 1 525 0
 299 0012 0120     		movs	r0, #1
 300              	.LVL25:
 301 0014 7047     		bx	lr
 302              	.LVL26:
 303              	.L31:
 521:Generated_Source\PSoC5/CAN.c **** 
 304              		.loc 1 521 0
 305 0016 0220     		movs	r0, #2
 306              	.LVL27:
 307 0018 7047     		bx	lr
 308              	.LVL28:
 309              	.L32:
 533:Generated_Source\PSoC5/CAN.c ****             {
 534:Generated_Source\PSoC5/CAN.c ****                 result = CYRET_SUCCESS;
 310              		.loc 1 534 0
 311 001a 0020     		movs	r0, #0
 312              	.LVL29:
 535:Generated_Source\PSoC5/CAN.c ****             }
 536:Generated_Source\PSoC5/CAN.c ****         #else  /* CY_PSOC4 */
 537:Generated_Source\PSoC5/CAN.c ****             /* Set prescaler */
 538:Generated_Source\PSoC5/CAN.c ****             CAN_CFG_REG = (CAN_CFG_REG & (uint32) (~CAN_BITRATE_MASK_SHIFTED)) |
 539:Generated_Source\PSoC5/CAN.c ****             (uint32) ((uint32) bitrate << CAN_BITRATE_SHIFT);
 540:Generated_Source\PSoC5/CAN.c **** 
 541:Generated_Source\PSoC5/CAN.c ****             /* Verify that prescaler is set */
 542:Generated_Source\PSoC5/CAN.c ****             if ((CAN_CFG_REG & CAN_BITRATE_MASK_SHIFTED) ==
 543:Generated_Source\PSoC5/CAN.c ****                ((uint32) ((uint32) bitrate << CAN_BITRATE_SHIFT)))
 544:Generated_Source\PSoC5/CAN.c ****             {
 545:Generated_Source\PSoC5/CAN.c ****                 result = CYRET_SUCCESS;
 546:Generated_Source\PSoC5/CAN.c ****             }
 547:Generated_Source\PSoC5/CAN.c ****         #endif /* CY_PSOC3 || CY_PSOC5 */
 548:Generated_Source\PSoC5/CAN.c ****     }
 549:Generated_Source\PSoC5/CAN.c **** 
 550:Generated_Source\PSoC5/CAN.c ****     return (result);
 551:Generated_Source\PSoC5/CAN.c **** }
 313              		.loc 1 551 0
 314 001c 7047     		bx	lr
 315              	.L34:
 316 001e 00BF     		.align	2
 317              	.L33:
 318 0020 16A00040 		.word	1073782806
 319              		.cfi_endproc
 320              	.LFE7:
 321              		.size	CAN_SetPreScaler, .-CAN_SetPreScaler
 322              		.section	.text.CAN_SetArbiter,"ax",%progbits
 323              		.align	2
 324              		.global	CAN_SetArbiter
 325              		.thumb
 326              		.thumb_func
 327              		.type	CAN_SetArbiter, %function
 328              	CAN_SetArbiter:
 329              	.LFB8:
 552:Generated_Source\PSoC5/CAN.c **** 
 553:Generated_Source\PSoC5/CAN.c **** 
 554:Generated_Source\PSoC5/CAN.c **** /*******************************************************************************
 555:Generated_Source\PSoC5/CAN.c **** * FUNCTION NAME:   CAN_SetArbiter
 556:Generated_Source\PSoC5/CAN.c **** ********************************************************************************
ARM GAS  C:\Users\HENRYH~1\AppData\Local\Temp\ccMT0gCo.s 			page 17


 557:Generated_Source\PSoC5/CAN.c **** *
 558:Generated_Source\PSoC5/CAN.c **** * Summary:
 559:Generated_Source\PSoC5/CAN.c **** *  This function sets the arbitration type for transmit mailboxes. The types of
 560:Generated_Source\PSoC5/CAN.c **** *  the arbiters are Round Robin and Fixed Priority. Values 0 and 1 are valid.
 561:Generated_Source\PSoC5/CAN.c **** *
 562:Generated_Source\PSoC5/CAN.c **** * Parameters:
 563:Generated_Source\PSoC5/CAN.c **** *  arbiter: The arbitration type for transmit mailboxes.
 564:Generated_Source\PSoC5/CAN.c **** *   Value                              Description
 565:Generated_Source\PSoC5/CAN.c **** *    CAN_ROUND_ROBIN       The Round Robin arbitration
 566:Generated_Source\PSoC5/CAN.c **** *    CAN_FIXED_PRIORITY    The Fixed Priority arbitration.
 567:Generated_Source\PSoC5/CAN.c **** *
 568:Generated_Source\PSoC5/CAN.c **** * Return:
 569:Generated_Source\PSoC5/CAN.c **** *  The indication whether the register is written and verified.
 570:Generated_Source\PSoC5/CAN.c **** *   Define                             Description
 571:Generated_Source\PSoC5/CAN.c **** *    CYRET_SUCCESS                      The function passed successfully
 572:Generated_Source\PSoC5/CAN.c **** *    CAN_FAIL              The function failed
 573:Generated_Source\PSoC5/CAN.c **** *
 574:Generated_Source\PSoC5/CAN.c **** *******************************************************************************/
 575:Generated_Source\PSoC5/CAN.c **** uint8 CAN_SetArbiter(uint8 arbiter) 
 576:Generated_Source\PSoC5/CAN.c **** {
 330              		.loc 1 576 0
 331              		.cfi_startproc
 332              		@ args = 0, pretend = 0, frame = 0
 333              		@ frame_needed = 0, uses_anonymous_args = 0
 334              		@ link register save eliminated.
 335              	.LVL30:
 577:Generated_Source\PSoC5/CAN.c ****     uint8 result = CAN_FAIL;
 578:Generated_Source\PSoC5/CAN.c **** 
 579:Generated_Source\PSoC5/CAN.c ****     #if (CY_PSOC3 || CY_PSOC5)
 580:Generated_Source\PSoC5/CAN.c ****         if (arbiter == CAN_ROUND_ROBIN)
 336              		.loc 1 580 0
 337 0000 50B9     		cbnz	r0, .L36
 581:Generated_Source\PSoC5/CAN.c ****         {
 582:Generated_Source\PSoC5/CAN.c ****             CAN_CFG_REG.byte[1u] &= (uint8) (~CAN_ARBITRATION_MASK);
 338              		.loc 1 582 0
 339 0002 0D4B     		ldr	r3, .L40
 340 0004 5A78     		ldrb	r2, [r3, #1]	@ zero_extendqisi2
 341 0006 02F0EF02 		and	r2, r2, #239
 342 000a 5A70     		strb	r2, [r3, #1]
 583:Generated_Source\PSoC5/CAN.c **** 
 584:Generated_Source\PSoC5/CAN.c ****             /* Verify that bit is cleared */
 585:Generated_Source\PSoC5/CAN.c ****             if ((CAN_CFG_REG.byte[1u] & CAN_ARBITRATION_MASK) == 0u)
 343              		.loc 1 585 0
 344 000c 5B78     		ldrb	r3, [r3, #1]	@ zero_extendqisi2
 345 000e 13F0100F 		tst	r3, #16
 346 0012 0CD0     		beq	.L38
 577:Generated_Source\PSoC5/CAN.c **** 
 347              		.loc 1 577 0
 348 0014 0120     		movs	r0, #1
 349              	.LVL31:
 350 0016 7047     		bx	lr
 351              	.LVL32:
 352              	.L36:
 586:Generated_Source\PSoC5/CAN.c ****             {
 587:Generated_Source\PSoC5/CAN.c ****                 result = CYRET_SUCCESS;
 588:Generated_Source\PSoC5/CAN.c ****             }
 589:Generated_Source\PSoC5/CAN.c ****         }
ARM GAS  C:\Users\HENRYH~1\AppData\Local\Temp\ccMT0gCo.s 			page 18


 590:Generated_Source\PSoC5/CAN.c ****         else    /* Fixed Priority */
 591:Generated_Source\PSoC5/CAN.c ****         {
 592:Generated_Source\PSoC5/CAN.c ****             CAN_CFG_REG.byte[1u] |= CAN_ARBITRATION_MASK;
 353              		.loc 1 592 0
 354 0018 074B     		ldr	r3, .L40
 355 001a 5A78     		ldrb	r2, [r3, #1]	@ zero_extendqisi2
 356 001c 42F01002 		orr	r2, r2, #16
 357 0020 5A70     		strb	r2, [r3, #1]
 593:Generated_Source\PSoC5/CAN.c **** 
 594:Generated_Source\PSoC5/CAN.c ****             /* Verify that bit is set */
 595:Generated_Source\PSoC5/CAN.c ****             if ((CAN_CFG_REG.byte[1u] & CAN_ARBITRATION_MASK) != 0u)
 358              		.loc 1 595 0
 359 0022 5B78     		ldrb	r3, [r3, #1]	@ zero_extendqisi2
 360 0024 13F0100F 		tst	r3, #16
 361 0028 03D1     		bne	.L39
 577:Generated_Source\PSoC5/CAN.c **** 
 362              		.loc 1 577 0
 363 002a 0120     		movs	r0, #1
 364              	.LVL33:
 365 002c 7047     		bx	lr
 366              	.LVL34:
 367              	.L38:
 587:Generated_Source\PSoC5/CAN.c ****             }
 368              		.loc 1 587 0
 369 002e 0020     		movs	r0, #0
 370              	.LVL35:
 371 0030 7047     		bx	lr
 372              	.LVL36:
 373              	.L39:
 596:Generated_Source\PSoC5/CAN.c ****             {
 597:Generated_Source\PSoC5/CAN.c ****                 result = CYRET_SUCCESS;
 374              		.loc 1 597 0
 375 0032 0020     		movs	r0, #0
 376              	.LVL37:
 598:Generated_Source\PSoC5/CAN.c ****             }
 599:Generated_Source\PSoC5/CAN.c ****         }
 600:Generated_Source\PSoC5/CAN.c ****     #else  /* CY_PSOC4 */
 601:Generated_Source\PSoC5/CAN.c ****         if (arbiter == CAN_ROUND_ROBIN)
 602:Generated_Source\PSoC5/CAN.c ****         {
 603:Generated_Source\PSoC5/CAN.c ****             CAN_CFG_REG &= (uint32) (~CAN_ARBITRATION_MASK);
 604:Generated_Source\PSoC5/CAN.c **** 
 605:Generated_Source\PSoC5/CAN.c ****             /* Verify that bit is cleared */
 606:Generated_Source\PSoC5/CAN.c ****             if ((CAN_CFG_REG & CAN_ARBITRATION_MASK) == 0u)
 607:Generated_Source\PSoC5/CAN.c ****             {
 608:Generated_Source\PSoC5/CAN.c ****                 result = CYRET_SUCCESS;
 609:Generated_Source\PSoC5/CAN.c ****             }
 610:Generated_Source\PSoC5/CAN.c ****         }
 611:Generated_Source\PSoC5/CAN.c ****         else    /* Fixed priority */
 612:Generated_Source\PSoC5/CAN.c ****         {
 613:Generated_Source\PSoC5/CAN.c ****             CAN_CFG_REG |= CAN_ARBITRATION_MASK;
 614:Generated_Source\PSoC5/CAN.c **** 
 615:Generated_Source\PSoC5/CAN.c ****             /* Verify that bit is set */
 616:Generated_Source\PSoC5/CAN.c ****             if ((CAN_CFG_REG & CAN_ARBITRATION_MASK) != 0u)
 617:Generated_Source\PSoC5/CAN.c ****             {
 618:Generated_Source\PSoC5/CAN.c ****                 result = CYRET_SUCCESS;
 619:Generated_Source\PSoC5/CAN.c ****             }
 620:Generated_Source\PSoC5/CAN.c ****         }
ARM GAS  C:\Users\HENRYH~1\AppData\Local\Temp\ccMT0gCo.s 			page 19


 621:Generated_Source\PSoC5/CAN.c ****     #endif /* CY_PSOC3 || CY_PSOC5 */
 622:Generated_Source\PSoC5/CAN.c **** 
 623:Generated_Source\PSoC5/CAN.c ****     return (result);
 624:Generated_Source\PSoC5/CAN.c **** }
 377              		.loc 1 624 0
 378 0034 7047     		bx	lr
 379              	.L41:
 380 0036 00BF     		.align	2
 381              	.L40:
 382 0038 14A00040 		.word	1073782804
 383              		.cfi_endproc
 384              	.LFE8:
 385              		.size	CAN_SetArbiter, .-CAN_SetArbiter
 386              		.section	.text.CAN_SetTsegSample,"ax",%progbits
 387              		.align	2
 388              		.global	CAN_SetTsegSample
 389              		.thumb
 390              		.thumb_func
 391              		.type	CAN_SetTsegSample, %function
 392              	CAN_SetTsegSample:
 393              	.LFB9:
 625:Generated_Source\PSoC5/CAN.c **** 
 626:Generated_Source\PSoC5/CAN.c **** 
 627:Generated_Source\PSoC5/CAN.c **** /*******************************************************************************
 628:Generated_Source\PSoC5/CAN.c **** * FUNCTION NAME: CAN_SetTsegSample
 629:Generated_Source\PSoC5/CAN.c **** ********************************************************************************
 630:Generated_Source\PSoC5/CAN.c **** *
 631:Generated_Source\PSoC5/CAN.c **** * Summary:
 632:Generated_Source\PSoC5/CAN.c **** *  This function configures: Time segment 1, Time segment 2, Sampling Mode
 633:Generated_Source\PSoC5/CAN.c **** *  and Synchronization Jump Width.
 634:Generated_Source\PSoC5/CAN.c **** *
 635:Generated_Source\PSoC5/CAN.c **** * Parameters:
 636:Generated_Source\PSoC5/CAN.c **** *  cfgTseg1: The length of time segment 1, values between 0x2 and 0xF are valid;
 637:Generated_Source\PSoC5/CAN.c **** *  cfgTseg2: The length of time segment 2, values between 0x1 and 0x7 are valid;
 638:Generated_Source\PSoC5/CAN.c **** *  sjw: Synchronization Jump Width, value between 0x0 and 0x3 are valid;
 639:Generated_Source\PSoC5/CAN.c **** *  sm: Sampling Mode.
 640:Generated_Source\PSoC5/CAN.c **** *   Define                               Description
 641:Generated_Source\PSoC5/CAN.c **** *   CAN_ONE_SAMPLE_POINT     One sampling point is used
 642:Generated_Source\PSoC5/CAN.c **** *   CAN_THREE_SAMPLE_POINTS  Three sampling points are used
 643:Generated_Source\PSoC5/CAN.c **** *
 644:Generated_Source\PSoC5/CAN.c **** * Return:
 645:Generated_Source\PSoC5/CAN.c **** *  The indication whether the register is written and verified.
 646:Generated_Source\PSoC5/CAN.c **** *   Define                             Description
 647:Generated_Source\PSoC5/CAN.c **** *    CYRET_SUCCESS                      The function passed successfully
 648:Generated_Source\PSoC5/CAN.c **** *    CAN_FAIL              The function failed
 649:Generated_Source\PSoC5/CAN.c **** *    CAN_OUT_OF_RANGE      The function parameter is out of range
 650:Generated_Source\PSoC5/CAN.c **** *
 651:Generated_Source\PSoC5/CAN.c **** *******************************************************************************/
 652:Generated_Source\PSoC5/CAN.c **** uint8 CAN_SetTsegSample(uint8 cfgTseg1, uint8 cfgTseg2, uint8 sjw, uint8 sm)
 653:Generated_Source\PSoC5/CAN.c ****                                      
 654:Generated_Source\PSoC5/CAN.c **** {
 394              		.loc 1 654 0
 395              		.cfi_startproc
 396              		@ args = 0, pretend = 0, frame = 0
 397              		@ frame_needed = 0, uses_anonymous_args = 0
 398              		@ link register save eliminated.
 399              	.LVL38:
ARM GAS  C:\Users\HENRYH~1\AppData\Local\Temp\ccMT0gCo.s 			page 20


 400 0000 30B4     		push	{r4, r5}
 401              		.cfi_def_cfa_offset 8
 402              		.cfi_offset 4, -8
 403              		.cfi_offset 5, -4
 404              	.LVL39:
 655:Generated_Source\PSoC5/CAN.c ****     uint8 result = CAN_OUT_OF_RANGE;
 656:Generated_Source\PSoC5/CAN.c ****     uint8 cfgTemp;
 657:Generated_Source\PSoC5/CAN.c **** 
 658:Generated_Source\PSoC5/CAN.c ****     if ((cfgTseg1 >= CAN_CFG_REG_TSEG1_LOWER_LIMIT) && (cfgTseg1 <=
 405              		.loc 1 658 0
 406 0002 841E     		subs	r4, r0, #2
 407 0004 E4B2     		uxtb	r4, r4
 408 0006 0D2C     		cmp	r4, #13
 409 0008 28D8     		bhi	.L46
 659:Generated_Source\PSoC5/CAN.c ****          CAN_CFG_REG_TSEG1_UPPER_LIMIT))
 660:Generated_Source\PSoC5/CAN.c ****     {
 661:Generated_Source\PSoC5/CAN.c ****         if (((cfgTseg2 >= CAN_CFG_REG_TSEG2_LOWER_LIMIT) &&
 410              		.loc 1 661 0
 411 000a 8C1E     		subs	r4, r1, #2
 412 000c E4B2     		uxtb	r4, r4
 413 000e 052C     		cmp	r4, #5
 414 0010 02D9     		bls	.L44
 662:Generated_Source\PSoC5/CAN.c ****              (cfgTseg2 <= CAN_CFG_REG_TSEG2_UPPER_LIMIT)) || ((sm == CAN_ONE_SAMPLE_POINT) &&
 415              		.loc 1 662 0
 416 0012 2BBB     		cbnz	r3, .L47
 417              		.loc 1 662 0 is_stmt 0 discriminator 1
 418 0014 0129     		cmp	r1, #1
 419 0016 25D1     		bne	.L48
 420              	.L44:
 663:Generated_Source\PSoC5/CAN.c ****              (cfgTseg2 == CAN_CFG_REG_TSEG2_EXCEPTION)))
 664:Generated_Source\PSoC5/CAN.c ****         {
 665:Generated_Source\PSoC5/CAN.c ****             if ((sjw <= CAN_CFG_REG_SJW_LOWER_LIMIT) && (sjw <= cfgTseg1) && (sjw <= cfgTseg2))
 421              		.loc 1 665 0 is_stmt 1
 422 0018 032A     		cmp	r2, #3
 423 001a 25D8     		bhi	.L49
 424              		.loc 1 665 0 is_stmt 0 discriminator 1
 425 001c 9042     		cmp	r0, r2
 426 001e 25D3     		bcc	.L50
 427              		.loc 1 665 0 discriminator 2
 428 0020 9142     		cmp	r1, r2
 429 0022 25D3     		bcc	.L51
 430              	.LVL40:
 666:Generated_Source\PSoC5/CAN.c ****             {
 667:Generated_Source\PSoC5/CAN.c ****                 result = CAN_FAIL;
 668:Generated_Source\PSoC5/CAN.c **** 
 669:Generated_Source\PSoC5/CAN.c ****                 #if (CY_PSOC3 || CY_PSOC5)
 670:Generated_Source\PSoC5/CAN.c ****                     cfgTemp = CAN_CFG_REG.byte[1];
 431              		.loc 1 670 0 is_stmt 1
 432 0024 164D     		ldr	r5, .L56
 433 0026 6C78     		ldrb	r4, [r5, #1]	@ zero_extendqisi2
 434              	.LVL41:
 671:Generated_Source\PSoC5/CAN.c ****                     cfgTemp &= (uint8) (~CAN_CFG_REG_TSEG1_MASK);
 435              		.loc 1 671 0
 436 0028 04F0F004 		and	r4, r4, #240
 437              	.LVL42:
 672:Generated_Source\PSoC5/CAN.c ****                     cfgTemp |= cfgTseg1;
 438              		.loc 1 672 0
ARM GAS  C:\Users\HENRYH~1\AppData\Local\Temp\ccMT0gCo.s 			page 21


 439 002c 2043     		orrs	r0, r0, r4
 440              	.LVL43:
 673:Generated_Source\PSoC5/CAN.c **** 
 674:Generated_Source\PSoC5/CAN.c ****                     /* Write register byte 1 */
 675:Generated_Source\PSoC5/CAN.c ****                     CAN_CFG_REG.byte[1u] = cfgTemp;
 441              		.loc 1 675 0
 442 002e 6870     		strb	r0, [r5, #1]
 676:Generated_Source\PSoC5/CAN.c **** 
 677:Generated_Source\PSoC5/CAN.c ****                     /* Verify 1st byte of CAN_CFG_REG register */
 678:Generated_Source\PSoC5/CAN.c ****                     if (CAN_CFG_REG.byte[1u] == cfgTemp)
 443              		.loc 1 678 0
 444 0030 6C78     		ldrb	r4, [r5, #1]	@ zero_extendqisi2
 445 0032 E4B2     		uxtb	r4, r4
 446 0034 A042     		cmp	r0, r4
 447 0036 1DD1     		bne	.L52
 448              	.LVL44:
 679:Generated_Source\PSoC5/CAN.c ****                     {
 680:Generated_Source\PSoC5/CAN.c ****                         cfgTemp = 0u;
 681:Generated_Source\PSoC5/CAN.c ****                         /* Set appropriate bits */
 682:Generated_Source\PSoC5/CAN.c ****                         if (sm != CAN_ONE_SAMPLE_POINT)
 449              		.loc 1 682 0
 450 0038 0BB9     		cbnz	r3, .L53
 680:Generated_Source\PSoC5/CAN.c ****                         /* Set appropriate bits */
 451              		.loc 1 680 0
 452 003a 0020     		movs	r0, #0
 453 003c 00E0     		b	.L45
 454              	.L53:
 683:Generated_Source\PSoC5/CAN.c ****                         {
 684:Generated_Source\PSoC5/CAN.c ****                             cfgTemp = CAN_SAMPLE_MODE_MASK;
 455              		.loc 1 684 0
 456 003e 0220     		movs	r0, #2
 457              	.L45:
 458              	.LVL45:
 685:Generated_Source\PSoC5/CAN.c ****                         }
 686:Generated_Source\PSoC5/CAN.c ****                         cfgTemp |= ((uint8) (cfgTseg2 << CAN_CFG_REG_TSEG2_SHIFT)) |
 459              		.loc 1 686 0
 460 0040 4B01     		lsls	r3, r1, #5
 461              	.LVL46:
 462 0042 DBB2     		uxtb	r3, r3
 687:Generated_Source\PSoC5/CAN.c ****                                    ((uint8) (sjw << CAN_CFG_REG_SJW_SHIFT));
 463              		.loc 1 687 0
 464 0044 9200     		lsls	r2, r2, #2
 465              	.LVL47:
 466 0046 D2B2     		uxtb	r2, r2
 686:Generated_Source\PSoC5/CAN.c ****                                    ((uint8) (sjw << CAN_CFG_REG_SJW_SHIFT));
 467              		.loc 1 686 0
 468 0048 1343     		orrs	r3, r3, r2
 469 004a 0343     		orrs	r3, r3, r0
 470              	.LVL48:
 688:Generated_Source\PSoC5/CAN.c **** 
 689:Generated_Source\PSoC5/CAN.c ****                         /* Write register byte 0 */
 690:Generated_Source\PSoC5/CAN.c ****                         CAN_CFG_REG.byte[0u] = cfgTemp;
 471              		.loc 1 690 0
 472 004c 0C4A     		ldr	r2, .L56
 473 004e 1370     		strb	r3, [r2]
 691:Generated_Source\PSoC5/CAN.c **** 
 692:Generated_Source\PSoC5/CAN.c ****                         /* Verify 1st byte of CAN_CFG_REG register */
ARM GAS  C:\Users\HENRYH~1\AppData\Local\Temp\ccMT0gCo.s 			page 22


 693:Generated_Source\PSoC5/CAN.c ****                         if (CAN_CFG_REG.byte[0u] == cfgTemp)
 474              		.loc 1 693 0
 475 0050 1278     		ldrb	r2, [r2]	@ zero_extendqisi2
 476 0052 D2B2     		uxtb	r2, r2
 477 0054 9342     		cmp	r3, r2
 478 0056 0FD0     		beq	.L54
 667:Generated_Source\PSoC5/CAN.c **** 
 479              		.loc 1 667 0
 480 0058 0120     		movs	r0, #1
 481 005a 0EE0     		b	.L43
 482              	.LVL49:
 483              	.L46:
 655:Generated_Source\PSoC5/CAN.c ****     uint8 cfgTemp;
 484              		.loc 1 655 0
 485 005c 0220     		movs	r0, #2
 486              	.LVL50:
 487 005e 0CE0     		b	.L43
 488              	.LVL51:
 489              	.L47:
 490 0060 0220     		movs	r0, #2
 491              	.LVL52:
 492 0062 0AE0     		b	.L43
 493              	.LVL53:
 494              	.L48:
 495 0064 0220     		movs	r0, #2
 496              	.LVL54:
 497 0066 08E0     		b	.L43
 498              	.LVL55:
 499              	.L49:
 500 0068 0220     		movs	r0, #2
 501              	.LVL56:
 502 006a 06E0     		b	.L43
 503              	.LVL57:
 504              	.L50:
 505 006c 0220     		movs	r0, #2
 506              	.LVL58:
 507 006e 04E0     		b	.L43
 508              	.LVL59:
 509              	.L51:
 510 0070 0220     		movs	r0, #2
 511              	.LVL60:
 512 0072 02E0     		b	.L43
 513              	.LVL61:
 514              	.L52:
 667:Generated_Source\PSoC5/CAN.c **** 
 515              		.loc 1 667 0
 516 0074 0120     		movs	r0, #1
 517              	.LVL62:
 518 0076 00E0     		b	.L43
 519              	.LVL63:
 520              	.L54:
 694:Generated_Source\PSoC5/CAN.c ****                         {
 695:Generated_Source\PSoC5/CAN.c ****                             result = CYRET_SUCCESS;
 521              		.loc 1 695 0
 522 0078 0020     		movs	r0, #0
 523              	.LVL64:
 524              	.L43:
ARM GAS  C:\Users\HENRYH~1\AppData\Local\Temp\ccMT0gCo.s 			page 23


 696:Generated_Source\PSoC5/CAN.c ****                         }
 697:Generated_Source\PSoC5/CAN.c ****                     }
 698:Generated_Source\PSoC5/CAN.c ****                 #else  /* CY_PSOC4 */
 699:Generated_Source\PSoC5/CAN.c ****                     cfgTemp = (uint8) (CAN_CFG_REG >> CAN_CFG_REG_TSEG1_SHIFT);
 700:Generated_Source\PSoC5/CAN.c ****                     cfgTemp &= (uint8) (~CAN_CFG_REG_TSEG1_MASK);
 701:Generated_Source\PSoC5/CAN.c ****                     cfgTemp |= cfgTseg1;
 702:Generated_Source\PSoC5/CAN.c **** 
 703:Generated_Source\PSoC5/CAN.c ****                     /* Write register byte 1 */
 704:Generated_Source\PSoC5/CAN.c ****                     CAN_CFG_REG =
 705:Generated_Source\PSoC5/CAN.c ****                     (CAN_CFG_REG & (uint32) (~((uint32) ((uint32) CAN_CFG_REG_TSEG1_MASK <<
 706:Generated_Source\PSoC5/CAN.c ****                     CAN_CFG_REG_TSEG1_SHIFT)))) |
 707:Generated_Source\PSoC5/CAN.c ****                     (uint32) ((uint32) cfgTemp << CAN_CFG_REG_TSEG1_SHIFT);
 708:Generated_Source\PSoC5/CAN.c **** 
 709:Generated_Source\PSoC5/CAN.c ****                     /* Verify 1st byte of CAN_CFG_REG register */
 710:Generated_Source\PSoC5/CAN.c ****                     if ((CAN_CFG_REG & (uint32) ((uint32) CAN_CFG_REG_TSEG1_MASK <<
 711:Generated_Source\PSoC5/CAN.c ****                        CAN_CFG_REG_TSEG1_SHIFT)) == (uint32) ((uint32) ((uint32) cfgTemp &
 712:Generated_Source\PSoC5/CAN.c ****                        CAN_CFG_REG_TSEG1_MASK) << CAN_CFG_REG_TSEG1_SHIFT))
 713:Generated_Source\PSoC5/CAN.c ****                     {
 714:Generated_Source\PSoC5/CAN.c ****                         cfgTemp = 0u;
 715:Generated_Source\PSoC5/CAN.c ****                         /* Set appropriate bits */
 716:Generated_Source\PSoC5/CAN.c ****                         if (sm != CAN_ONE_SAMPLE_POINT)
 717:Generated_Source\PSoC5/CAN.c ****                         {
 718:Generated_Source\PSoC5/CAN.c ****                             cfgTemp = CAN_SAMPLE_MODE_MASK;
 719:Generated_Source\PSoC5/CAN.c ****                         }
 720:Generated_Source\PSoC5/CAN.c ****                         cfgTemp |= ((uint8) (cfgTseg2 << CAN_CFG_REG_TSEG2_SHIFT)) |
 721:Generated_Source\PSoC5/CAN.c ****                                    ((uint8) (sjw << CAN_CFG_REG_SJW_SHIFT));
 722:Generated_Source\PSoC5/CAN.c **** 
 723:Generated_Source\PSoC5/CAN.c ****                         /* Write register byte 0 */
 724:Generated_Source\PSoC5/CAN.c ****                         CAN_CFG_REG = (CAN_CFG_REG &
 725:Generated_Source\PSoC5/CAN.c ****                         (uint32) (~((uint32) (CAN_CFG_REG_TSEG2_MASK | CAN_CFG_REG_SJW_MASK |
 726:Generated_Source\PSoC5/CAN.c ****                         CAN_SAMPLE_MODE_MASK)))) | cfgTemp;
 727:Generated_Source\PSoC5/CAN.c **** 
 728:Generated_Source\PSoC5/CAN.c ****                         /* Verify 1st byte of CAN_CFG_REG register */
 729:Generated_Source\PSoC5/CAN.c ****                         if ((CAN_CFG_REG & (CAN_CFG_REG_TSEG2_MASK |
 730:Generated_Source\PSoC5/CAN.c ****                            CAN_CFG_REG_SJW_MASK | CAN_SAMPLE_MODE_MASK)) == cfgTemp)
 731:Generated_Source\PSoC5/CAN.c ****                         {
 732:Generated_Source\PSoC5/CAN.c ****                             result = CYRET_SUCCESS;
 733:Generated_Source\PSoC5/CAN.c ****                         }
 734:Generated_Source\PSoC5/CAN.c ****                     }
 735:Generated_Source\PSoC5/CAN.c ****                 #endif /* CY_PSOC3 || CY_PSOC5 */
 736:Generated_Source\PSoC5/CAN.c ****             }
 737:Generated_Source\PSoC5/CAN.c ****         }
 738:Generated_Source\PSoC5/CAN.c ****     }
 739:Generated_Source\PSoC5/CAN.c **** 
 740:Generated_Source\PSoC5/CAN.c ****     return (result);
 741:Generated_Source\PSoC5/CAN.c **** }
 525              		.loc 1 741 0
 526 007a 30BC     		pop	{r4, r5}
 527              		.cfi_restore 5
 528              		.cfi_restore 4
 529              		.cfi_def_cfa_offset 0
 530 007c 7047     		bx	lr
 531              	.L57:
 532 007e 00BF     		.align	2
 533              	.L56:
 534 0080 14A00040 		.word	1073782804
 535              		.cfi_endproc
ARM GAS  C:\Users\HENRYH~1\AppData\Local\Temp\ccMT0gCo.s 			page 24


 536              	.LFE9:
 537              		.size	CAN_SetTsegSample, .-CAN_SetTsegSample
 538              		.section	.text.CAN_SetRestartType,"ax",%progbits
 539              		.align	2
 540              		.global	CAN_SetRestartType
 541              		.thumb
 542              		.thumb_func
 543              		.type	CAN_SetRestartType, %function
 544              	CAN_SetRestartType:
 545              	.LFB10:
 742:Generated_Source\PSoC5/CAN.c **** 
 743:Generated_Source\PSoC5/CAN.c **** 
 744:Generated_Source\PSoC5/CAN.c **** /*******************************************************************************
 745:Generated_Source\PSoC5/CAN.c **** * FUNCTION NAME:   CAN_SetRestartType
 746:Generated_Source\PSoC5/CAN.c **** ********************************************************************************
 747:Generated_Source\PSoC5/CAN.c **** *
 748:Generated_Source\PSoC5/CAN.c **** * Summary:
 749:Generated_Source\PSoC5/CAN.c **** *  This function sets the Reset type. The types of Reset are Automatic and
 750:Generated_Source\PSoC5/CAN.c **** *  Manual. Manual Reset is the recommended setting.
 751:Generated_Source\PSoC5/CAN.c **** *
 752:Generated_Source\PSoC5/CAN.c **** * Parameters:
 753:Generated_Source\PSoC5/CAN.c **** *  reset: Reset Type.
 754:Generated_Source\PSoC5/CAN.c **** *   Define                             Description
 755:Generated_Source\PSoC5/CAN.c **** *    CAN_MANUAL_RESTART    After Bus-Off, CAN must be restarted
 756:Generated_Source\PSoC5/CAN.c **** *                                       manually. This is the recommended
 757:Generated_Source\PSoC5/CAN.c **** *                                       setting.
 758:Generated_Source\PSoC5/CAN.c **** *    CAN_AUTO_RESTART      After Bus-Off, CAN restarts
 759:Generated_Source\PSoC5/CAN.c **** *                                       automatically after 128 groups of 11
 760:Generated_Source\PSoC5/CAN.c **** *                                       recessive bits.
 761:Generated_Source\PSoC5/CAN.c **** *
 762:Generated_Source\PSoC5/CAN.c **** * Return:
 763:Generated_Source\PSoC5/CAN.c **** *  The indication whether the register is written and verified.
 764:Generated_Source\PSoC5/CAN.c **** *   Define                             Description
 765:Generated_Source\PSoC5/CAN.c **** *    CYRET_SUCCESS                      The function passed successfully
 766:Generated_Source\PSoC5/CAN.c **** *    CAN_FAIL              The function failed
 767:Generated_Source\PSoC5/CAN.c **** *
 768:Generated_Source\PSoC5/CAN.c **** *******************************************************************************/
 769:Generated_Source\PSoC5/CAN.c **** uint8 CAN_SetRestartType(uint8 reset) 
 770:Generated_Source\PSoC5/CAN.c **** {
 546              		.loc 1 770 0
 547              		.cfi_startproc
 548              		@ args = 0, pretend = 0, frame = 0
 549              		@ frame_needed = 0, uses_anonymous_args = 0
 550              		@ link register save eliminated.
 551              	.LVL65:
 771:Generated_Source\PSoC5/CAN.c ****     uint8 result = CAN_FAIL;
 772:Generated_Source\PSoC5/CAN.c **** 
 773:Generated_Source\PSoC5/CAN.c ****     #if (CY_PSOC3 || CY_PSOC5)
 774:Generated_Source\PSoC5/CAN.c ****         if (reset == CAN_MANUAL_RESTART)
 552              		.loc 1 774 0
 553 0000 50B9     		cbnz	r0, .L59
 775:Generated_Source\PSoC5/CAN.c ****         {
 776:Generated_Source\PSoC5/CAN.c ****             CAN_CFG_REG.byte[0u] &= (uint8) (~CAN_RESET_MASK);
 554              		.loc 1 776 0
 555 0002 0D4B     		ldr	r3, .L63
 556 0004 1A78     		ldrb	r2, [r3]	@ zero_extendqisi2
 557 0006 02F0EF02 		and	r2, r2, #239
ARM GAS  C:\Users\HENRYH~1\AppData\Local\Temp\ccMT0gCo.s 			page 25


 558 000a 1A70     		strb	r2, [r3]
 777:Generated_Source\PSoC5/CAN.c **** 
 778:Generated_Source\PSoC5/CAN.c ****             /* Verify that bit is cleared */
 779:Generated_Source\PSoC5/CAN.c ****             if ((CAN_CFG_REG.byte[0u] & CAN_RESET_MASK) == 0u)
 559              		.loc 1 779 0
 560 000c 1B78     		ldrb	r3, [r3]	@ zero_extendqisi2
 561 000e 13F0100F 		tst	r3, #16
 562 0012 0CD0     		beq	.L61
 771:Generated_Source\PSoC5/CAN.c **** 
 563              		.loc 1 771 0
 564 0014 0120     		movs	r0, #1
 565              	.LVL66:
 566 0016 7047     		bx	lr
 567              	.LVL67:
 568              	.L59:
 780:Generated_Source\PSoC5/CAN.c ****             {
 781:Generated_Source\PSoC5/CAN.c ****                 result = CYRET_SUCCESS;
 782:Generated_Source\PSoC5/CAN.c ****             }
 783:Generated_Source\PSoC5/CAN.c ****         }
 784:Generated_Source\PSoC5/CAN.c ****         else    /* Automatic restart */
 785:Generated_Source\PSoC5/CAN.c ****         {
 786:Generated_Source\PSoC5/CAN.c ****             CAN_CFG_REG.byte[0u] |= CAN_RESET_MASK;
 569              		.loc 1 786 0
 570 0018 074B     		ldr	r3, .L63
 571 001a 1A78     		ldrb	r2, [r3]	@ zero_extendqisi2
 572 001c 42F01002 		orr	r2, r2, #16
 573 0020 1A70     		strb	r2, [r3]
 787:Generated_Source\PSoC5/CAN.c **** 
 788:Generated_Source\PSoC5/CAN.c ****             /* Verify that bit is set */
 789:Generated_Source\PSoC5/CAN.c ****             if ((CAN_CFG_REG.byte[0u] & CAN_RESET_MASK) != 0u)
 574              		.loc 1 789 0
 575 0022 1B78     		ldrb	r3, [r3]	@ zero_extendqisi2
 576 0024 13F0100F 		tst	r3, #16
 577 0028 03D1     		bne	.L62
 771:Generated_Source\PSoC5/CAN.c **** 
 578              		.loc 1 771 0
 579 002a 0120     		movs	r0, #1
 580              	.LVL68:
 581 002c 7047     		bx	lr
 582              	.LVL69:
 583              	.L61:
 781:Generated_Source\PSoC5/CAN.c ****             }
 584              		.loc 1 781 0
 585 002e 0020     		movs	r0, #0
 586              	.LVL70:
 587 0030 7047     		bx	lr
 588              	.LVL71:
 589              	.L62:
 790:Generated_Source\PSoC5/CAN.c ****             {
 791:Generated_Source\PSoC5/CAN.c ****                 result = CYRET_SUCCESS;
 590              		.loc 1 791 0
 591 0032 0020     		movs	r0, #0
 592              	.LVL72:
 792:Generated_Source\PSoC5/CAN.c ****             }
 793:Generated_Source\PSoC5/CAN.c ****         }
 794:Generated_Source\PSoC5/CAN.c ****     #else  /* CY_PSOC4 */
 795:Generated_Source\PSoC5/CAN.c ****         if (reset == CAN_MANUAL_RESTART)
ARM GAS  C:\Users\HENRYH~1\AppData\Local\Temp\ccMT0gCo.s 			page 26


 796:Generated_Source\PSoC5/CAN.c ****         {
 797:Generated_Source\PSoC5/CAN.c ****             CAN_CFG_REG &= (uint32) (~((uint32) CAN_RESET_MASK));
 798:Generated_Source\PSoC5/CAN.c **** 
 799:Generated_Source\PSoC5/CAN.c ****             /* Verify that bit is cleared */
 800:Generated_Source\PSoC5/CAN.c ****             if ((CAN_CFG_REG & CAN_RESET_MASK) == 0u)
 801:Generated_Source\PSoC5/CAN.c ****             {
 802:Generated_Source\PSoC5/CAN.c ****                 result = CYRET_SUCCESS;
 803:Generated_Source\PSoC5/CAN.c ****             }
 804:Generated_Source\PSoC5/CAN.c ****         }
 805:Generated_Source\PSoC5/CAN.c ****         else    /* Automatic restart */
 806:Generated_Source\PSoC5/CAN.c ****         {
 807:Generated_Source\PSoC5/CAN.c ****             CAN_CFG_REG |= CAN_RESET_MASK;
 808:Generated_Source\PSoC5/CAN.c **** 
 809:Generated_Source\PSoC5/CAN.c ****             /* Verify that bit is set */
 810:Generated_Source\PSoC5/CAN.c ****             if ((CAN_CFG_REG & CAN_RESET_MASK) != 0u)
 811:Generated_Source\PSoC5/CAN.c ****             {
 812:Generated_Source\PSoC5/CAN.c ****                 result = CYRET_SUCCESS;
 813:Generated_Source\PSoC5/CAN.c ****             }
 814:Generated_Source\PSoC5/CAN.c ****         }
 815:Generated_Source\PSoC5/CAN.c ****     #endif /* CY_PSOC3 || CY_PSOC5 */
 816:Generated_Source\PSoC5/CAN.c **** 
 817:Generated_Source\PSoC5/CAN.c ****     return (result);
 818:Generated_Source\PSoC5/CAN.c **** }
 593              		.loc 1 818 0
 594 0034 7047     		bx	lr
 595              	.L64:
 596 0036 00BF     		.align	2
 597              	.L63:
 598 0038 14A00040 		.word	1073782804
 599              		.cfi_endproc
 600              	.LFE10:
 601              		.size	CAN_SetRestartType, .-CAN_SetRestartType
 602              		.section	.text.CAN_SetEdgeMode,"ax",%progbits
 603              		.align	2
 604              		.global	CAN_SetEdgeMode
 605              		.thumb
 606              		.thumb_func
 607              		.type	CAN_SetEdgeMode, %function
 608              	CAN_SetEdgeMode:
 609              	.LFB11:
 819:Generated_Source\PSoC5/CAN.c **** 
 820:Generated_Source\PSoC5/CAN.c **** 
 821:Generated_Source\PSoC5/CAN.c **** /*******************************************************************************
 822:Generated_Source\PSoC5/CAN.c **** * FUNCTION NAME:   CAN_SetEdgeMode
 823:Generated_Source\PSoC5/CAN.c **** ********************************************************************************
 824:Generated_Source\PSoC5/CAN.c **** *
 825:Generated_Source\PSoC5/CAN.c **** * Summary:
 826:Generated_Source\PSoC5/CAN.c **** *  This function sets Edge Mode. The modes are 'R' to 'D'(Recessive to Dominant)
 827:Generated_Source\PSoC5/CAN.c **** *  and Both edges are used.
 828:Generated_Source\PSoC5/CAN.c **** *
 829:Generated_Source\PSoC5/CAN.c **** * Parameters:
 830:Generated_Source\PSoC5/CAN.c **** *  edge: Edge Mode.
 831:Generated_Source\PSoC5/CAN.c **** *   Define                             Description
 832:Generated_Source\PSoC5/CAN.c **** *    CAN_EDGE_R_TO_D       The edge from R to D is used for
 833:Generated_Source\PSoC5/CAN.c **** *                                       synchronization
 834:Generated_Source\PSoC5/CAN.c **** *    CAN_BOTH_EDGES        Both edges are used
 835:Generated_Source\PSoC5/CAN.c **** *
ARM GAS  C:\Users\HENRYH~1\AppData\Local\Temp\ccMT0gCo.s 			page 27


 836:Generated_Source\PSoC5/CAN.c **** * Return:
 837:Generated_Source\PSoC5/CAN.c **** *  The indication whether the register is written and verified.
 838:Generated_Source\PSoC5/CAN.c **** *   Define                             Description
 839:Generated_Source\PSoC5/CAN.c **** *    CYRET_SUCCESS                      The function passed successfully
 840:Generated_Source\PSoC5/CAN.c **** *    CAN_FAIL              The function failed
 841:Generated_Source\PSoC5/CAN.c **** *
 842:Generated_Source\PSoC5/CAN.c **** *******************************************************************************/
 843:Generated_Source\PSoC5/CAN.c **** uint8 CAN_SetEdgeMode(uint8 edge) 
 844:Generated_Source\PSoC5/CAN.c **** {
 610              		.loc 1 844 0
 611              		.cfi_startproc
 612              		@ args = 0, pretend = 0, frame = 0
 613              		@ frame_needed = 0, uses_anonymous_args = 0
 614              		@ link register save eliminated.
 615              	.LVL73:
 845:Generated_Source\PSoC5/CAN.c ****     uint8 result = CAN_FAIL;
 846:Generated_Source\PSoC5/CAN.c **** 
 847:Generated_Source\PSoC5/CAN.c ****     #if (CY_PSOC3 || CY_PSOC5)
 848:Generated_Source\PSoC5/CAN.c ****         if (edge == CAN_EDGE_R_TO_D)
 616              		.loc 1 848 0
 617 0000 50B9     		cbnz	r0, .L66
 849:Generated_Source\PSoC5/CAN.c ****         {
 850:Generated_Source\PSoC5/CAN.c ****             /* Recessive to Dominant is used for synchronization */
 851:Generated_Source\PSoC5/CAN.c ****             CAN_CFG_REG.byte[0u] &= (uint8) (~CAN_EDGE_MODE_MASK);
 618              		.loc 1 851 0
 619 0002 0D4B     		ldr	r3, .L70
 620 0004 1A78     		ldrb	r2, [r3]	@ zero_extendqisi2
 621 0006 02F0FE02 		and	r2, r2, #254
 622 000a 1A70     		strb	r2, [r3]
 852:Generated_Source\PSoC5/CAN.c **** 
 853:Generated_Source\PSoC5/CAN.c ****             /* Verify that bit is cleared */
 854:Generated_Source\PSoC5/CAN.c ****             if ((CAN_CFG_REG.byte[0u] & CAN_EDGE_MODE_MASK) == 0u)
 623              		.loc 1 854 0
 624 000c 1B78     		ldrb	r3, [r3]	@ zero_extendqisi2
 625 000e 13F0010F 		tst	r3, #1
 626 0012 0CD0     		beq	.L68
 845:Generated_Source\PSoC5/CAN.c **** 
 627              		.loc 1 845 0
 628 0014 0120     		movs	r0, #1
 629              	.LVL74:
 630 0016 7047     		bx	lr
 631              	.LVL75:
 632              	.L66:
 855:Generated_Source\PSoC5/CAN.c ****             {
 856:Generated_Source\PSoC5/CAN.c ****                 result = CYRET_SUCCESS;
 857:Generated_Source\PSoC5/CAN.c ****             }
 858:Generated_Source\PSoC5/CAN.c ****         }
 859:Generated_Source\PSoC5/CAN.c ****         else
 860:Generated_Source\PSoC5/CAN.c ****         {
 861:Generated_Source\PSoC5/CAN.c ****             /* Both edges to be used */
 862:Generated_Source\PSoC5/CAN.c ****             CAN_CFG_REG.byte[0u] |= CAN_EDGE_MODE_MASK;
 633              		.loc 1 862 0
 634 0018 074B     		ldr	r3, .L70
 635 001a 1A78     		ldrb	r2, [r3]	@ zero_extendqisi2
 636 001c 42F00102 		orr	r2, r2, #1
 637 0020 1A70     		strb	r2, [r3]
 863:Generated_Source\PSoC5/CAN.c **** 
ARM GAS  C:\Users\HENRYH~1\AppData\Local\Temp\ccMT0gCo.s 			page 28


 864:Generated_Source\PSoC5/CAN.c ****             /* Verify that bit is set */
 865:Generated_Source\PSoC5/CAN.c ****             if ((CAN_CFG_REG.byte[0u] & CAN_EDGE_MODE_MASK) != 0u)
 638              		.loc 1 865 0
 639 0022 1B78     		ldrb	r3, [r3]	@ zero_extendqisi2
 640 0024 13F0010F 		tst	r3, #1
 641 0028 03D1     		bne	.L69
 845:Generated_Source\PSoC5/CAN.c **** 
 642              		.loc 1 845 0
 643 002a 0120     		movs	r0, #1
 644              	.LVL76:
 645 002c 7047     		bx	lr
 646              	.LVL77:
 647              	.L68:
 856:Generated_Source\PSoC5/CAN.c ****             }
 648              		.loc 1 856 0
 649 002e 0020     		movs	r0, #0
 650              	.LVL78:
 651 0030 7047     		bx	lr
 652              	.LVL79:
 653              	.L69:
 866:Generated_Source\PSoC5/CAN.c ****             {
 867:Generated_Source\PSoC5/CAN.c ****                 result = CYRET_SUCCESS;
 654              		.loc 1 867 0
 655 0032 0020     		movs	r0, #0
 656              	.LVL80:
 868:Generated_Source\PSoC5/CAN.c ****             }
 869:Generated_Source\PSoC5/CAN.c ****         }
 870:Generated_Source\PSoC5/CAN.c ****     #else  /* CY_PSOC4 */
 871:Generated_Source\PSoC5/CAN.c ****         if (edge == CAN_EDGE_R_TO_D)
 872:Generated_Source\PSoC5/CAN.c ****         {
 873:Generated_Source\PSoC5/CAN.c ****             /* Recessive to Dominant is used for synchronization */
 874:Generated_Source\PSoC5/CAN.c ****             CAN_CFG_REG &= (uint32) (~((uint32) CAN_EDGE_MODE_MASK));
 875:Generated_Source\PSoC5/CAN.c **** 
 876:Generated_Source\PSoC5/CAN.c ****             /* Verify that bit is cleared */
 877:Generated_Source\PSoC5/CAN.c ****             if ((CAN_CFG_REG & CAN_EDGE_MODE_MASK) == 0u)
 878:Generated_Source\PSoC5/CAN.c ****             {
 879:Generated_Source\PSoC5/CAN.c ****                 result = CYRET_SUCCESS;
 880:Generated_Source\PSoC5/CAN.c ****             }
 881:Generated_Source\PSoC5/CAN.c ****         }
 882:Generated_Source\PSoC5/CAN.c ****         else
 883:Generated_Source\PSoC5/CAN.c ****         {
 884:Generated_Source\PSoC5/CAN.c ****             /* Both edges to be used */
 885:Generated_Source\PSoC5/CAN.c ****             CAN_CFG_REG |= CAN_EDGE_MODE_MASK;
 886:Generated_Source\PSoC5/CAN.c **** 
 887:Generated_Source\PSoC5/CAN.c ****             /* Verify that bit is set */
 888:Generated_Source\PSoC5/CAN.c ****             if ((CAN_CFG_REG & CAN_EDGE_MODE_MASK) != 0u)
 889:Generated_Source\PSoC5/CAN.c ****             {
 890:Generated_Source\PSoC5/CAN.c ****                 result = CYRET_SUCCESS;
 891:Generated_Source\PSoC5/CAN.c ****             }
 892:Generated_Source\PSoC5/CAN.c ****         }
 893:Generated_Source\PSoC5/CAN.c ****     #endif /* CY_PSOC3 || CY_PSOC5 */
 894:Generated_Source\PSoC5/CAN.c **** 
 895:Generated_Source\PSoC5/CAN.c ****     return (result);
 896:Generated_Source\PSoC5/CAN.c **** }
 657              		.loc 1 896 0
 658 0034 7047     		bx	lr
 659              	.L71:
ARM GAS  C:\Users\HENRYH~1\AppData\Local\Temp\ccMT0gCo.s 			page 29


 660 0036 00BF     		.align	2
 661              	.L70:
 662 0038 14A00040 		.word	1073782804
 663              		.cfi_endproc
 664              	.LFE11:
 665              		.size	CAN_SetEdgeMode, .-CAN_SetEdgeMode
 666              		.section	.text.CAN_SetOpMode,"ax",%progbits
 667              		.align	2
 668              		.global	CAN_SetOpMode
 669              		.thumb
 670              		.thumb_func
 671              		.type	CAN_SetOpMode, %function
 672              	CAN_SetOpMode:
 673              	.LFB12:
 897:Generated_Source\PSoC5/CAN.c **** 
 898:Generated_Source\PSoC5/CAN.c **** 
 899:Generated_Source\PSoC5/CAN.c **** /*******************************************************************************
 900:Generated_Source\PSoC5/CAN.c **** * FUNCTION NAME:   CAN_SetOpMode
 901:Generated_Source\PSoC5/CAN.c **** ********************************************************************************
 902:Generated_Source\PSoC5/CAN.c **** *
 903:Generated_Source\PSoC5/CAN.c **** * Summary:
 904:Generated_Source\PSoC5/CAN.c **** *  This function sets Operation Mode.
 905:Generated_Source\PSoC5/CAN.c **** *
 906:Generated_Source\PSoC5/CAN.c **** * Parameters:
 907:Generated_Source\PSoC5/CAN.c **** *  opMode: Operation Mode value.
 908:Generated_Source\PSoC5/CAN.c **** *   Define                              Description
 909:Generated_Source\PSoC5/CAN.c **** *    CAN_STOP_MODE          The CAN controller is in the Stop mode
 910:Generated_Source\PSoC5/CAN.c **** *    CAN_ACTIVE_RUN_MODE    The CAN controller is in the Active
 911:Generated_Source\PSoC5/CAN.c **** *                                        mode
 912:Generated_Source\PSoC5/CAN.c **** *    CAN_LISTEN_ONLY_MODE   The CAN controller is in the Listen
 913:Generated_Source\PSoC5/CAN.c **** *                                        Only mode: The output is held at the
 914:Generated_Source\PSoC5/CAN.c **** *                                        'R' level.
 915:Generated_Source\PSoC5/CAN.c **** *    CAN_INTERNAL_LOOP_BACK The CAN controller is in the Internal
 916:Generated_Source\PSoC5/CAN.c **** *                                        Loopback mode. This mode is used for
 917:Generated_Source\PSoC5/CAN.c **** *                                        the testing purpose and the transmitted
 918:Generated_Source\PSoC5/CAN.c **** *                                        transactions are internally routed
 919:Generated_Source\PSoC5/CAN.c **** *                                        back to the receiver logic and
 920:Generated_Source\PSoC5/CAN.c **** *                                        processed by the controller in this
 921:Generated_Source\PSoC5/CAN.c **** *                                        mode. Not available for PSoC3/5.
 922:Generated_Source\PSoC5/CAN.c **** *    CAN_EXTERNAL_LOOP_BACK This mode is used for the testing
 923:Generated_Source\PSoC5/CAN.c **** *                                        purpose by connecting Tx and Rx lines
 924:Generated_Source\PSoC5/CAN.c **** *                                        externally. The transmitted messages
 925:Generated_Source\PSoC5/CAN.c **** *                                        are received back and processed by the
 926:Generated_Source\PSoC5/CAN.c **** *                                        CAN controller in this mode.
 927:Generated_Source\PSoC5/CAN.c **** *                                        Not available for PSoC3/5.
 928:Generated_Source\PSoC5/CAN.c **** * Return:
 929:Generated_Source\PSoC5/CAN.c **** *  The indication whether the register is written and verified.
 930:Generated_Source\PSoC5/CAN.c **** *   Define                             Description
 931:Generated_Source\PSoC5/CAN.c **** *    CYRET_SUCCESS                      The function passed successfully
 932:Generated_Source\PSoC5/CAN.c **** *    CAN_FAIL              The function failed
 933:Generated_Source\PSoC5/CAN.c **** *
 934:Generated_Source\PSoC5/CAN.c **** * Side Effects:
 935:Generated_Source\PSoC5/CAN.c **** *  For PSoC 4 device family the function re-initializes the CAN registers.
 936:Generated_Source\PSoC5/CAN.c **** *
 937:Generated_Source\PSoC5/CAN.c **** *******************************************************************************/
 938:Generated_Source\PSoC5/CAN.c **** uint8 CAN_SetOpMode(uint8 opMode) 
 939:Generated_Source\PSoC5/CAN.c **** {
ARM GAS  C:\Users\HENRYH~1\AppData\Local\Temp\ccMT0gCo.s 			page 30


 674              		.loc 1 939 0
 675              		.cfi_startproc
 676              		@ args = 0, pretend = 0, frame = 0
 677              		@ frame_needed = 0, uses_anonymous_args = 0
 678              		@ link register save eliminated.
 679              	.LVL81:
 680 0000 10B4     		push	{r4}
 681              		.cfi_def_cfa_offset 4
 682              		.cfi_offset 4, -4
 683              	.LVL82:
 940:Generated_Source\PSoC5/CAN.c ****     #if (CY_PSOC3 || CY_PSOC5)
 941:Generated_Source\PSoC5/CAN.c ****         uint32 timeout;
 942:Generated_Source\PSoC5/CAN.c ****     #endif /* CY_PSOC3 || CY_PSOC5 */
 943:Generated_Source\PSoC5/CAN.c ****     uint8 result = CAN_FAIL;
 944:Generated_Source\PSoC5/CAN.c ****     uint8 runState = CAN_STOP_MODE;
 945:Generated_Source\PSoC5/CAN.c **** 
 946:Generated_Source\PSoC5/CAN.c ****     #if (CY_PSOC3 || CY_PSOC5)
 947:Generated_Source\PSoC5/CAN.c ****         if (((CAN_CMD_REG.byte[0u] & CAN_ACTIVE_RUN_MODE) != 0u) ||
 684              		.loc 1 947 0
 685 0002 1C4B     		ldr	r3, .L88
 686 0004 1B78     		ldrb	r3, [r3]	@ zero_extendqisi2
 687 0006 13F0010F 		tst	r3, #1
 688 000a 03D1     		bne	.L83
 689              		.loc 1 947 0 is_stmt 0 discriminator 1
 690 000c 0128     		cmp	r0, #1
 691 000e 03D0     		beq	.L84
 944:Generated_Source\PSoC5/CAN.c **** 
 692              		.loc 1 944 0 is_stmt 1
 693 0010 0024     		movs	r4, #0
 694 0012 02E0     		b	.L73
 695              	.L83:
 948:Generated_Source\PSoC5/CAN.c ****             (opMode == CAN_ACTIVE_RUN_MODE))
 949:Generated_Source\PSoC5/CAN.c ****         {
 950:Generated_Source\PSoC5/CAN.c ****             runState = CAN_ACTIVE_RUN_MODE;
 696              		.loc 1 950 0
 697 0014 0124     		movs	r4, #1
 698 0016 00E0     		b	.L73
 699              	.L84:
 700 0018 0124     		movs	r4, #1
 701              	.L73:
 702              	.LVL83:
 951:Generated_Source\PSoC5/CAN.c ****         }
 952:Generated_Source\PSoC5/CAN.c **** 
 953:Generated_Source\PSoC5/CAN.c ****         /* Set CAN to the Stop Mode */
 954:Generated_Source\PSoC5/CAN.c ****         CAN_CMD_REG.byte[0u] = CAN_STOP_MODE;
 703              		.loc 1 954 0
 704 001a 0022     		movs	r2, #0
 705 001c 154B     		ldr	r3, .L88
 706 001e 1A70     		strb	r2, [r3]
 707              	.LVL84:
 955:Generated_Source\PSoC5/CAN.c **** 
 956:Generated_Source\PSoC5/CAN.c ****         /* Timeout for CAN state machine to switch mode to Stop */
 957:Generated_Source\PSoC5/CAN.c ****         for (timeout = CAN_MODE_STATE_STOP_TIMEOUT;
 708              		.loc 1 957 0
 709 0020 4FF47063 		mov	r3, #3840
 710 0024 00E0     		b	.L74
 711              	.LVL85:
ARM GAS  C:\Users\HENRYH~1\AppData\Local\Temp\ccMT0gCo.s 			page 31


 712              	.L76:
 958:Generated_Source\PSoC5/CAN.c ****             (timeout != 0u) && ((CAN_CMD_REG.byte[0u] & CAN_ACTIVE_RUN_MODE) != 0u);
 959:Generated_Source\PSoC5/CAN.c ****              timeout--)
 713              		.loc 1 959 0
 714 0026 013B     		subs	r3, r3, #1
 715              	.LVL86:
 716              	.L74:
 957:Generated_Source\PSoC5/CAN.c ****             (timeout != 0u) && ((CAN_CMD_REG.byte[0u] & CAN_ACTIVE_RUN_MODE) != 0u);
 717              		.loc 1 957 0 discriminator 1
 718 0028 23B1     		cbz	r3, .L75
 958:Generated_Source\PSoC5/CAN.c ****             (timeout != 0u) && ((CAN_CMD_REG.byte[0u] & CAN_ACTIVE_RUN_MODE) != 0u);
 719              		.loc 1 958 0
 720 002a 124A     		ldr	r2, .L88
 721 002c 1278     		ldrb	r2, [r2]	@ zero_extendqisi2
 722 002e 12F0010F 		tst	r2, #1
 723 0032 F8D1     		bne	.L76
 724              	.L75:
 960:Generated_Source\PSoC5/CAN.c ****         {
 961:Generated_Source\PSoC5/CAN.c ****         }
 962:Generated_Source\PSoC5/CAN.c **** 
 963:Generated_Source\PSoC5/CAN.c ****         if (timeout != 0u)
 725              		.loc 1 963 0
 726 0034 0BB9     		cbnz	r3, .L85
 943:Generated_Source\PSoC5/CAN.c ****     uint8 runState = CAN_STOP_MODE;
 727              		.loc 1 943 0
 728 0036 0121     		movs	r1, #1
 729 0038 00E0     		b	.L77
 730              	.L85:
 964:Generated_Source\PSoC5/CAN.c ****         {
 965:Generated_Source\PSoC5/CAN.c ****             result = CYRET_SUCCESS;
 731              		.loc 1 965 0
 732 003a 0021     		movs	r1, #0
 733              	.L77:
 734              	.LVL87:
 966:Generated_Source\PSoC5/CAN.c ****         }
 967:Generated_Source\PSoC5/CAN.c **** 
 968:Generated_Source\PSoC5/CAN.c ****         if ((result == CYRET_SUCCESS) && (opMode != CAN_STOP_MODE))
 735              		.loc 1 968 0
 736 003c B9B9     		cbnz	r1, .L78
 737              		.loc 1 968 0 is_stmt 0 discriminator 1
 738 003e B0B1     		cbz	r0, .L78
 969:Generated_Source\PSoC5/CAN.c ****         {
 970:Generated_Source\PSoC5/CAN.c ****             if (opMode == CAN_LISTEN_ONLY_MODE)
 739              		.loc 1 970 0 is_stmt 1
 740 0040 0228     		cmp	r0, #2
 741 0042 02D1     		bne	.L79
 971:Generated_Source\PSoC5/CAN.c ****             {
 972:Generated_Source\PSoC5/CAN.c ****                 CAN_CMD_REG.byte[0u] = CAN_LISTEN_ONLY_MODE;
 742              		.loc 1 972 0
 743 0044 0222     		movs	r2, #2
 744 0046 0B4B     		ldr	r3, .L88
 745              	.LVL88:
 746 0048 1A70     		strb	r2, [r3]
 747              	.L79:
 973:Generated_Source\PSoC5/CAN.c ****             }
 974:Generated_Source\PSoC5/CAN.c **** 
 975:Generated_Source\PSoC5/CAN.c ****             if (runState == CAN_ACTIVE_RUN_MODE)
ARM GAS  C:\Users\HENRYH~1\AppData\Local\Temp\ccMT0gCo.s 			page 32


 748              		.loc 1 975 0
 749 004a 84B1     		cbz	r4, .L78
 976:Generated_Source\PSoC5/CAN.c ****             {
 977:Generated_Source\PSoC5/CAN.c ****                 CAN_CMD_REG.byte[0u] |= CAN_ACTIVE_RUN_MODE;
 750              		.loc 1 977 0
 751 004c 094A     		ldr	r2, .L88
 752 004e 1378     		ldrb	r3, [r2]	@ zero_extendqisi2
 753 0050 43F00103 		orr	r3, r3, #1
 754 0054 1370     		strb	r3, [r2]
 755              	.LVL89:
 978:Generated_Source\PSoC5/CAN.c **** 
 979:Generated_Source\PSoC5/CAN.c ****                 /* Timeout for CAN state machine to switch mode to Run */
 980:Generated_Source\PSoC5/CAN.c ****                 for (timeout = CAN_MODE_STATE_RUN_TIMEOUT;
 756              		.loc 1 980 0
 757 0056 4FF49073 		mov	r3, #288
 758 005a 00E0     		b	.L80
 759              	.LVL90:
 760              	.L82:
 981:Generated_Source\PSoC5/CAN.c ****                     (timeout != 0u) && ((CAN_CMD_REG.byte[0u] & CAN_MODE_MASK) == 0u);
 982:Generated_Source\PSoC5/CAN.c ****                      timeout--)
 761              		.loc 1 982 0
 762 005c 013B     		subs	r3, r3, #1
 763              	.LVL91:
 764              	.L80:
 980:Generated_Source\PSoC5/CAN.c ****                     (timeout != 0u) && ((CAN_CMD_REG.byte[0u] & CAN_MODE_MASK) == 0u);
 765              		.loc 1 980 0 discriminator 1
 766 005e 23B1     		cbz	r3, .L81
 981:Generated_Source\PSoC5/CAN.c ****                     (timeout != 0u) && ((CAN_CMD_REG.byte[0u] & CAN_MODE_MASK) == 0u);
 767              		.loc 1 981 0
 768 0060 044A     		ldr	r2, .L88
 769 0062 1278     		ldrb	r2, [r2]	@ zero_extendqisi2
 770 0064 12F0010F 		tst	r2, #1
 771 0068 F8D0     		beq	.L82
 772              	.L81:
 983:Generated_Source\PSoC5/CAN.c ****                 {
 984:Generated_Source\PSoC5/CAN.c ****                 }
 985:Generated_Source\PSoC5/CAN.c **** 
 986:Generated_Source\PSoC5/CAN.c ****                 if (timeout == 0u)
 773              		.loc 1 986 0
 774 006a 03B9     		cbnz	r3, .L78
 987:Generated_Source\PSoC5/CAN.c ****                 {
 988:Generated_Source\PSoC5/CAN.c ****                     result = CAN_FAIL;
 775              		.loc 1 988 0
 776 006c 0121     		movs	r1, #1
 777              	.LVL92:
 778              	.L78:
 989:Generated_Source\PSoC5/CAN.c ****                 }
 990:Generated_Source\PSoC5/CAN.c ****             }
 991:Generated_Source\PSoC5/CAN.c ****         }
 992:Generated_Source\PSoC5/CAN.c ****     #else  /* CY_PSOC4 */
 993:Generated_Source\PSoC5/CAN.c ****         if (((CAN_CMD_REG & CAN_MODE_MASK) != 0u) ||
 994:Generated_Source\PSoC5/CAN.c ****             (opMode == CAN_ACTIVE_RUN_MODE))
 995:Generated_Source\PSoC5/CAN.c ****         {
 996:Generated_Source\PSoC5/CAN.c ****             runState = CAN_ACTIVE_RUN_MODE;
 997:Generated_Source\PSoC5/CAN.c ****         }
 998:Generated_Source\PSoC5/CAN.c **** 
 999:Generated_Source\PSoC5/CAN.c ****         /* Sets CAN Component into the Stop mode */
ARM GAS  C:\Users\HENRYH~1\AppData\Local\Temp\ccMT0gCo.s 			page 33


1000:Generated_Source\PSoC5/CAN.c ****         if (CAN_Stop() == CYRET_SUCCESS)
1001:Generated_Source\PSoC5/CAN.c ****         {
1002:Generated_Source\PSoC5/CAN.c ****             /* Disable CAN IP Block to reset configuration before sets Operation Mode */
1003:Generated_Source\PSoC5/CAN.c ****             CAN_CNTL_REG = (uint32) (~CAN_IP_ENABLE);
1004:Generated_Source\PSoC5/CAN.c **** 
1005:Generated_Source\PSoC5/CAN.c ****             /* Enable CAN IP Block */
1006:Generated_Source\PSoC5/CAN.c ****             CAN_CNTL_REG = CAN_IP_ENABLE;
1007:Generated_Source\PSoC5/CAN.c **** 
1008:Generated_Source\PSoC5/CAN.c ****             result = CAN_Init();
1009:Generated_Source\PSoC5/CAN.c **** 
1010:Generated_Source\PSoC5/CAN.c ****             if ((result == CYRET_SUCCESS) && (opMode != CAN_STOP_MODE))
1011:Generated_Source\PSoC5/CAN.c ****             {
1012:Generated_Source\PSoC5/CAN.c ****                 if (opMode != CAN_ACTIVE_RUN_MODE)
1013:Generated_Source\PSoC5/CAN.c ****                 {
1014:Generated_Source\PSoC5/CAN.c ****                     /* Set CAN Operation Mode */
1015:Generated_Source\PSoC5/CAN.c ****                     CAN_CMD_REG |= opMode;
1016:Generated_Source\PSoC5/CAN.c ****                 }
1017:Generated_Source\PSoC5/CAN.c **** 
1018:Generated_Source\PSoC5/CAN.c ****                 if (runState == CAN_ACTIVE_RUN_MODE)
1019:Generated_Source\PSoC5/CAN.c ****                 {
1020:Generated_Source\PSoC5/CAN.c ****                     /* Enable component's operation */
1021:Generated_Source\PSoC5/CAN.c ****                     result = CAN_Enable();
1022:Generated_Source\PSoC5/CAN.c ****                 }
1023:Generated_Source\PSoC5/CAN.c ****             }
1024:Generated_Source\PSoC5/CAN.c ****         }
1025:Generated_Source\PSoC5/CAN.c ****     #endif /* CY_PSOC3 || CY_PSOC5 */
1026:Generated_Source\PSoC5/CAN.c **** 
1027:Generated_Source\PSoC5/CAN.c ****     return (result);
1028:Generated_Source\PSoC5/CAN.c **** }
 779              		.loc 1 1028 0
 780 006e 0846     		mov	r0, r1
 781              	.LVL93:
 782 0070 10BC     		pop	{r4}
 783              		.cfi_restore 4
 784              		.cfi_def_cfa_offset 0
 785              	.LVL94:
 786 0072 7047     		bx	lr
 787              	.L89:
 788              		.align	2
 789              	.L88:
 790 0074 10A00040 		.word	1073782800
 791              		.cfi_endproc
 792              	.LFE12:
 793              		.size	CAN_SetOpMode, .-CAN_SetOpMode
 794              		.section	.text.CAN_RXRegisterInit,"ax",%progbits
 795              		.align	2
 796              		.global	CAN_RXRegisterInit
 797              		.thumb
 798              		.thumb_func
 799              		.type	CAN_RXRegisterInit, %function
 800              	CAN_RXRegisterInit:
 801              	.LFB13:
1029:Generated_Source\PSoC5/CAN.c **** 
1030:Generated_Source\PSoC5/CAN.c **** 
1031:Generated_Source\PSoC5/CAN.c **** /*******************************************************************************
1032:Generated_Source\PSoC5/CAN.c **** * FUNCTION NAME:   CAN_RXRegisterInit
1033:Generated_Source\PSoC5/CAN.c **** ********************************************************************************
ARM GAS  C:\Users\HENRYH~1\AppData\Local\Temp\ccMT0gCo.s 			page 34


1034:Generated_Source\PSoC5/CAN.c **** *
1035:Generated_Source\PSoC5/CAN.c **** * Summary:
1036:Generated_Source\PSoC5/CAN.c **** *  This function writes only receive CAN registers.
1037:Generated_Source\PSoC5/CAN.c **** *
1038:Generated_Source\PSoC5/CAN.c **** * Parameters:
1039:Generated_Source\PSoC5/CAN.c **** *  regAddr: The pointer to a CAN receive register;
1040:Generated_Source\PSoC5/CAN.c **** *  config:  The value that will be written in the register.
1041:Generated_Source\PSoC5/CAN.c **** *
1042:Generated_Source\PSoC5/CAN.c **** * Return:
1043:Generated_Source\PSoC5/CAN.c **** *  The indication whether the register is written and verified.
1044:Generated_Source\PSoC5/CAN.c **** *   Define                             Description
1045:Generated_Source\PSoC5/CAN.c **** *    CYRET_SUCCESS                      The function passed successfully
1046:Generated_Source\PSoC5/CAN.c **** *    CAN_FAIL              The function failed
1047:Generated_Source\PSoC5/CAN.c **** *    CAN_OUT_OF_RANGE      The function parameter is out of range
1048:Generated_Source\PSoC5/CAN.c **** *
1049:Generated_Source\PSoC5/CAN.c **** *******************************************************************************/
1050:Generated_Source\PSoC5/CAN.c **** uint8 CAN_RXRegisterInit(reg32 *regAddr, uint32 config)
1051:Generated_Source\PSoC5/CAN.c ****                                       
1052:Generated_Source\PSoC5/CAN.c **** {
 802              		.loc 1 1052 0
 803              		.cfi_startproc
 804              		@ args = 0, pretend = 0, frame = 0
 805              		@ frame_needed = 0, uses_anonymous_args = 0
 806              		@ link register save eliminated.
 807              	.LVL95:
1053:Generated_Source\PSoC5/CAN.c ****     uint8 result = CAN_OUT_OF_RANGE;
1054:Generated_Source\PSoC5/CAN.c **** 
1055:Generated_Source\PSoC5/CAN.c ****     if ((((uint32) regAddr & CAN_REG_ADDR_MASK) >=
 808              		.loc 1 1055 0
 809 0000 83B2     		uxth	r3, r0
1056:Generated_Source\PSoC5/CAN.c ****         ((uint32) CAN_RX_FIRST_REGISTER_PTR & CAN_REG_ADDR_MASK)) &&
 810              		.loc 1 1056 0
 811 0002 A3F52043 		sub	r3, r3, #40960
 812 0006 A03B     		subs	r3, r3, #160
1055:Generated_Source\PSoC5/CAN.c ****         ((uint32) CAN_RX_FIRST_REGISTER_PTR & CAN_REG_ADDR_MASK)) &&
 813              		.loc 1 1055 0
 814 0008 B3F5FE7F 		cmp	r3, #508
 815 000c 1ED8     		bhi	.L93
 816              	.LVL96:
1057:Generated_Source\PSoC5/CAN.c ****         ((((uint32) regAddr & CAN_REG_ADDR_MASK)) <=
1058:Generated_Source\PSoC5/CAN.c ****         ((uint32) CAN_RX_LAST_REGISTER_PTR & CAN_REG_ADDR_MASK)))
1059:Generated_Source\PSoC5/CAN.c ****     {
1060:Generated_Source\PSoC5/CAN.c ****         result = CAN_FAIL;
1061:Generated_Source\PSoC5/CAN.c **** 
1062:Generated_Source\PSoC5/CAN.c ****         if ((((uint32) regAddr & CAN_REG_ADDR_MASK) % CAN_RX_CMD_REG_WIDTH) == 0u)
 817              		.loc 1 1062 0
 818 000e 10F01F0F 		tst	r0, #31
 819 0012 0FD1     		bne	.L92
1063:Generated_Source\PSoC5/CAN.c ****         {
1064:Generated_Source\PSoC5/CAN.c ****             config |= CAN_RX_WPN_SET;
 820              		.loc 1 1064 0
 821 0014 41F08011 		orr	r1, r1, #8388736
 822              	.LVL97:
1065:Generated_Source\PSoC5/CAN.c **** 
1066:Generated_Source\PSoC5/CAN.c ****     /* Disable isr */
1067:Generated_Source\PSoC5/CAN.c ****     CyIntDisable(CAN_ISR_NUMBER);
 823              		.loc 1 1067 0
ARM GAS  C:\Users\HENRYH~1\AppData\Local\Temp\ccMT0gCo.s 			page 35


 824 0018 4FF48033 		mov	r3, #65536
 825 001c 0E4A     		ldr	r2, .L96
 826 001e 1360     		str	r3, [r2]
1068:Generated_Source\PSoC5/CAN.c **** 
1069:Generated_Source\PSoC5/CAN.c ****             /* Write defined RX CMD registers */
1070:Generated_Source\PSoC5/CAN.c ****             CY_SET_REG32(regAddr, config);
 827              		.loc 1 1070 0
 828 0020 0160     		str	r1, [r0]
1071:Generated_Source\PSoC5/CAN.c **** 
1072:Generated_Source\PSoC5/CAN.c ****     /* Enable isr */
1073:Generated_Source\PSoC5/CAN.c ****     CyIntEnable(CAN_ISR_NUMBER);
 829              		.loc 1 1073 0
 830 0022 803A     		subs	r2, r2, #128
 831 0024 1360     		str	r3, [r2]
1074:Generated_Source\PSoC5/CAN.c **** 
1075:Generated_Source\PSoC5/CAN.c ****             /* Verify register */
1076:Generated_Source\PSoC5/CAN.c ****             if ((CY_GET_REG32(regAddr) & CAN_RX_READ_BACK_MASK) ==
 832              		.loc 1 1076 0
 833 0026 0368     		ldr	r3, [r0]
 834 0028 5940     		eors	r1, r1, r3
 835              	.LVL98:
 836 002a 11F07F1F 		tst	r1, #8323199
 837 002e 0FD0     		beq	.L94
1060:Generated_Source\PSoC5/CAN.c **** 
 838              		.loc 1 1060 0
 839 0030 0120     		movs	r0, #1
 840              	.LVL99:
 841 0032 7047     		bx	lr
 842              	.LVL100:
 843              	.L92:
1077:Generated_Source\PSoC5/CAN.c ****                 (config & CAN_RX_READ_BACK_MASK))
1078:Generated_Source\PSoC5/CAN.c ****             {
1079:Generated_Source\PSoC5/CAN.c ****                 result = CYRET_SUCCESS;
1080:Generated_Source\PSoC5/CAN.c ****             }
1081:Generated_Source\PSoC5/CAN.c ****         }
1082:Generated_Source\PSoC5/CAN.c ****         /* All registers except RX CMD*/
1083:Generated_Source\PSoC5/CAN.c ****         else
1084:Generated_Source\PSoC5/CAN.c ****         {
1085:Generated_Source\PSoC5/CAN.c ****     /* Disable isr */
1086:Generated_Source\PSoC5/CAN.c ****     CyIntDisable(CAN_ISR_NUMBER);
 844              		.loc 1 1086 0
 845 0034 4FF48033 		mov	r3, #65536
 846 0038 074A     		ldr	r2, .L96
 847 003a 1360     		str	r3, [r2]
1087:Generated_Source\PSoC5/CAN.c **** 
1088:Generated_Source\PSoC5/CAN.c ****             /* Write defined CAN receive register */
1089:Generated_Source\PSoC5/CAN.c ****             CY_SET_REG32(regAddr, config);
 848              		.loc 1 1089 0
 849 003c 0160     		str	r1, [r0]
1090:Generated_Source\PSoC5/CAN.c **** 
1091:Generated_Source\PSoC5/CAN.c ****     /* Enable isr */
1092:Generated_Source\PSoC5/CAN.c ****     CyIntEnable(CAN_ISR_NUMBER);
 850              		.loc 1 1092 0
 851 003e 803A     		subs	r2, r2, #128
 852 0040 1360     		str	r3, [r2]
1093:Generated_Source\PSoC5/CAN.c **** 
1094:Generated_Source\PSoC5/CAN.c ****             /* Verify register */
ARM GAS  C:\Users\HENRYH~1\AppData\Local\Temp\ccMT0gCo.s 			page 36


1095:Generated_Source\PSoC5/CAN.c ****             if (CY_GET_REG32(regAddr) == config)
 853              		.loc 1 1095 0
 854 0042 0368     		ldr	r3, [r0]
 855 0044 9942     		cmp	r1, r3
 856 0046 05D0     		beq	.L95
1060:Generated_Source\PSoC5/CAN.c **** 
 857              		.loc 1 1060 0
 858 0048 0120     		movs	r0, #1
 859              	.LVL101:
 860 004a 7047     		bx	lr
 861              	.LVL102:
 862              	.L93:
1053:Generated_Source\PSoC5/CAN.c **** 
 863              		.loc 1 1053 0
 864 004c 0220     		movs	r0, #2
 865              	.LVL103:
 866 004e 7047     		bx	lr
 867              	.LVL104:
 868              	.L94:
1079:Generated_Source\PSoC5/CAN.c ****             }
 869              		.loc 1 1079 0
 870 0050 0020     		movs	r0, #0
 871              	.LVL105:
 872 0052 7047     		bx	lr
 873              	.LVL106:
 874              	.L95:
1096:Generated_Source\PSoC5/CAN.c ****             {
1097:Generated_Source\PSoC5/CAN.c ****                 result = CYRET_SUCCESS;
 875              		.loc 1 1097 0
 876 0054 0020     		movs	r0, #0
 877              	.LVL107:
1098:Generated_Source\PSoC5/CAN.c ****             }
1099:Generated_Source\PSoC5/CAN.c ****         }
1100:Generated_Source\PSoC5/CAN.c ****     }
1101:Generated_Source\PSoC5/CAN.c **** 
1102:Generated_Source\PSoC5/CAN.c ****     return (result);
1103:Generated_Source\PSoC5/CAN.c **** }
 878              		.loc 1 1103 0
 879 0056 7047     		bx	lr
 880              	.L97:
 881              		.align	2
 882              	.L96:
 883 0058 80E100E0 		.word	-536813184
 884              		.cfi_endproc
 885              	.LFE13:
 886              		.size	CAN_RXRegisterInit, .-CAN_RXRegisterInit
 887              		.section	.text.CAN_SetIrqMask,"ax",%progbits
 888              		.align	2
 889              		.global	CAN_SetIrqMask
 890              		.thumb
 891              		.thumb_func
 892              		.type	CAN_SetIrqMask, %function
 893              	CAN_SetIrqMask:
 894              	.LFB14:
1104:Generated_Source\PSoC5/CAN.c **** 
1105:Generated_Source\PSoC5/CAN.c **** 
1106:Generated_Source\PSoC5/CAN.c **** /*******************************************************************************
ARM GAS  C:\Users\HENRYH~1\AppData\Local\Temp\ccMT0gCo.s 			page 37


1107:Generated_Source\PSoC5/CAN.c **** * FUNCTION NAME:   CAN_SetIrqMask
1108:Generated_Source\PSoC5/CAN.c **** ********************************************************************************
1109:Generated_Source\PSoC5/CAN.c **** *
1110:Generated_Source\PSoC5/CAN.c **** * Summary:
1111:Generated_Source\PSoC5/CAN.c **** *  This function sets to enable/disable particular interrupt sources. Interrupt
1112:Generated_Source\PSoC5/CAN.c **** *  Mask directly write to the CAN Interrupt Enable register. A particular
1113:Generated_Source\PSoC5/CAN.c **** *  interrupt source is enabled by setting its respective flag to 1.
1114:Generated_Source\PSoC5/CAN.c **** *
1115:Generated_Source\PSoC5/CAN.c **** * Parameters:
1116:Generated_Source\PSoC5/CAN.c **** *  mask: Interrupt enable/disable request. 1 bit per interrupt source.
1117:Generated_Source\PSoC5/CAN.c **** *   Define                                    Description
1118:Generated_Source\PSoC5/CAN.c **** *    CAN_GLOBAL_INT_ENABLE        Global Interrupt Enable Flag
1119:Generated_Source\PSoC5/CAN.c **** *    CAN_ARBITRATION_LOST_ENABLE  Arbitration Loss Interrupt Enable
1120:Generated_Source\PSoC5/CAN.c **** *    CAN_OVERLOAD_ERROR_ENABLE    Overload Interrupt Enable
1121:Generated_Source\PSoC5/CAN.c **** *    CAN_BIT_ERROR_ENABLE         Bit Error Interrupt Enable
1122:Generated_Source\PSoC5/CAN.c **** *    CAN_STUFF_ERROR_ENABLE       Stuff Error Interrupt Enable
1123:Generated_Source\PSoC5/CAN.c **** *    CAN_ACK_ERROR_ENABLE         Ack Error Interrupt Enable
1124:Generated_Source\PSoC5/CAN.c **** *    CAN_FORM_ERROR_ENABLE        Form Error Interrupt Enable
1125:Generated_Source\PSoC5/CAN.c **** *    CAN_CRC_ERROR_ENABLE         CRC Error Interrupt Enable
1126:Generated_Source\PSoC5/CAN.c **** *    CAN_BUS_OFF_ENABLE           Bus-Off State Interrupt Enable
1127:Generated_Source\PSoC5/CAN.c **** *    CAN_RX_MSG_LOST_ENABLE       Rx Msg Loss Interrupt Enable
1128:Generated_Source\PSoC5/CAN.c **** *    CAN_TX_MESSAGE_ENABLE        Tx Msg Sent Interrupt Enable
1129:Generated_Source\PSoC5/CAN.c **** *    CAN_RX_MESSAGE_ENABLE        Msg Received Interrupt Enable
1130:Generated_Source\PSoC5/CAN.c **** *    CAN_RTR_MESSAGE_ENABLE       RTR Auto-reply Interrupt Enable
1131:Generated_Source\PSoC5/CAN.c **** *    CAN_STUCK_AT_ZERO_ENABLE     Stuck at dominant error Interrupt
1132:Generated_Source\PSoC5/CAN.c **** *                                              Enable
1133:Generated_Source\PSoC5/CAN.c **** *    CAN_SST_FAILURE_ENABLE       SST failure Interrupt Enable
1134:Generated_Source\PSoC5/CAN.c **** *
1135:Generated_Source\PSoC5/CAN.c **** * Return:
1136:Generated_Source\PSoC5/CAN.c **** *  The indication whether the register is written and verified.
1137:Generated_Source\PSoC5/CAN.c **** *   Define                             Description
1138:Generated_Source\PSoC5/CAN.c **** *    CYRET_SUCCESS                      The function passed successfully
1139:Generated_Source\PSoC5/CAN.c **** *    CAN_FAIL              The function failed
1140:Generated_Source\PSoC5/CAN.c **** *
1141:Generated_Source\PSoC5/CAN.c **** *******************************************************************************/
1142:Generated_Source\PSoC5/CAN.c **** uint8 CAN_SetIrqMask(uint16 mask) 
1143:Generated_Source\PSoC5/CAN.c **** {
 895              		.loc 1 1143 0
 896              		.cfi_startproc
 897              		@ args = 0, pretend = 0, frame = 0
 898              		@ frame_needed = 0, uses_anonymous_args = 0
 899              		@ link register save eliminated.
 900              	.LVL108:
1144:Generated_Source\PSoC5/CAN.c ****     uint8 result = CAN_FAIL;
1145:Generated_Source\PSoC5/CAN.c **** 
1146:Generated_Source\PSoC5/CAN.c ****     #if (CY_PSOC3 || CY_PSOC5)
1147:Generated_Source\PSoC5/CAN.c ****         /* Write byte 0 and 1 of CAN_INT_EN_REG register */
1148:Generated_Source\PSoC5/CAN.c ****         CY_SET_REG16((reg16 *) (&CAN_INT_EN_REG), mask);
 901              		.loc 1 1148 0
 902 0000 044B     		ldr	r3, .L101
 903 0002 1880     		strh	r0, [r3]	@ movhi
1149:Generated_Source\PSoC5/CAN.c **** 
1150:Generated_Source\PSoC5/CAN.c ****         /* Verify CAN_INT_EN_REG register */
1151:Generated_Source\PSoC5/CAN.c ****         if (CY_GET_REG16((reg16 *) (&CAN_INT_EN_REG)) == mask)
 904              		.loc 1 1151 0
 905 0004 1B88     		ldrh	r3, [r3]
 906 0006 9BB2     		uxth	r3, r3
ARM GAS  C:\Users\HENRYH~1\AppData\Local\Temp\ccMT0gCo.s 			page 38


 907 0008 9842     		cmp	r0, r3
 908 000a 01D0     		beq	.L100
1144:Generated_Source\PSoC5/CAN.c ****     uint8 result = CAN_FAIL;
 909              		.loc 1 1144 0
 910 000c 0120     		movs	r0, #1
 911              	.LVL109:
 912 000e 7047     		bx	lr
 913              	.LVL110:
 914              	.L100:
1152:Generated_Source\PSoC5/CAN.c ****         {
1153:Generated_Source\PSoC5/CAN.c ****             result = CYRET_SUCCESS;
 915              		.loc 1 1153 0
 916 0010 0020     		movs	r0, #0
 917              	.LVL111:
1154:Generated_Source\PSoC5/CAN.c ****         }
1155:Generated_Source\PSoC5/CAN.c ****     #else  /* CY_PSOC4 */
1156:Generated_Source\PSoC5/CAN.c ****         /* Write byte 0 and 1 of CAN_INT_EN_REG register */
1157:Generated_Source\PSoC5/CAN.c ****         CAN_INT_EN_REG = mask;
1158:Generated_Source\PSoC5/CAN.c **** 
1159:Generated_Source\PSoC5/CAN.c ****         /* Verify CAN_INT_EN_REG register */
1160:Generated_Source\PSoC5/CAN.c ****         if ((CAN_INT_EN_REG & CAN_REG_ADDR_MASK) == mask)
1161:Generated_Source\PSoC5/CAN.c ****         {
1162:Generated_Source\PSoC5/CAN.c ****             result = CYRET_SUCCESS;
1163:Generated_Source\PSoC5/CAN.c ****         }
1164:Generated_Source\PSoC5/CAN.c ****     #endif /* CY_PSOC3 || CY_PSOC5 */
1165:Generated_Source\PSoC5/CAN.c **** 
1166:Generated_Source\PSoC5/CAN.c ****     return (result);
1167:Generated_Source\PSoC5/CAN.c **** }
 918              		.loc 1 1167 0
 919 0012 7047     		bx	lr
 920              	.L102:
 921              		.align	2
 922              	.L101:
 923 0014 04A00040 		.word	1073782788
 924              		.cfi_endproc
 925              	.LFE14:
 926              		.size	CAN_SetIrqMask, .-CAN_SetIrqMask
 927              		.section	.text.CAN_GetTXErrorFlag,"ax",%progbits
 928              		.align	2
 929              		.global	CAN_GetTXErrorFlag
 930              		.thumb
 931              		.thumb_func
 932              		.type	CAN_GetTXErrorFlag, %function
 933              	CAN_GetTXErrorFlag:
 934              	.LFB15:
1168:Generated_Source\PSoC5/CAN.c **** 
1169:Generated_Source\PSoC5/CAN.c **** 
1170:Generated_Source\PSoC5/CAN.c **** /*******************************************************************************
1171:Generated_Source\PSoC5/CAN.c **** * FUNCTION NAME:   CAN_GetTXErrorFlag
1172:Generated_Source\PSoC5/CAN.c **** ********************************************************************************
1173:Generated_Source\PSoC5/CAN.c **** *
1174:Generated_Source\PSoC5/CAN.c **** * Summary:
1175:Generated_Source\PSoC5/CAN.c **** *  This function returns the bit that indicates if the number of TX errors
1176:Generated_Source\PSoC5/CAN.c **** *  exceeds 0x60.
1177:Generated_Source\PSoC5/CAN.c **** *
1178:Generated_Source\PSoC5/CAN.c **** * Parameters:
1179:Generated_Source\PSoC5/CAN.c **** *  None.
ARM GAS  C:\Users\HENRYH~1\AppData\Local\Temp\ccMT0gCo.s 			page 39


1180:Generated_Source\PSoC5/CAN.c **** *
1181:Generated_Source\PSoC5/CAN.c **** * Return:
1182:Generated_Source\PSoC5/CAN.c **** *  The indication whether the number of TX errors exceeds 0x60.
1183:Generated_Source\PSoC5/CAN.c **** *
1184:Generated_Source\PSoC5/CAN.c **** *******************************************************************************/
1185:Generated_Source\PSoC5/CAN.c **** uint8 CAN_GetTXErrorFlag(void) 
1186:Generated_Source\PSoC5/CAN.c **** {
 935              		.loc 1 1186 0
 936              		.cfi_startproc
 937              		@ args = 0, pretend = 0, frame = 0
 938              		@ frame_needed = 0, uses_anonymous_args = 0
 939              		@ link register save eliminated.
1187:Generated_Source\PSoC5/CAN.c ****     #if (CY_PSOC3 || CY_PSOC5)
1188:Generated_Source\PSoC5/CAN.c ****         /* Get state of transmit error flag */
1189:Generated_Source\PSoC5/CAN.c ****         return (((CAN_ERR_SR_REG.byte[2u] & CAN_TX_ERROR_FLAG_MASK) ==
 940              		.loc 1 1189 0
 941 0000 044B     		ldr	r3, .L105
 942 0002 9B78     		ldrb	r3, [r3, #2]	@ zero_extendqisi2
 943 0004 03F00403 		and	r3, r3, #4
 944 0008 03F0FF00 		and	r0, r3, #255
 945 000c 03B1     		cbz	r3, .L104
 946 000e 0120     		movs	r0, #1
 947              	.L104:
1190:Generated_Source\PSoC5/CAN.c ****                   CAN_TX_ERROR_FLAG_MASK) ? 1u : 0u);
1191:Generated_Source\PSoC5/CAN.c ****     #else  /* CY_PSOC4 */
1192:Generated_Source\PSoC5/CAN.c ****         /* Get state of transmit error flag */
1193:Generated_Source\PSoC5/CAN.c ****         return (((CAN_ERR_SR_REG & CAN_TX_ERROR_FLAG_MASK) ==
1194:Generated_Source\PSoC5/CAN.c ****                   CAN_TX_ERROR_FLAG_MASK) ? 1u : 0u);
1195:Generated_Source\PSoC5/CAN.c ****     #endif /* CY_PSOC3 || CY_PSOC5 */
1196:Generated_Source\PSoC5/CAN.c **** 
1197:Generated_Source\PSoC5/CAN.c **** }
 948              		.loc 1 1197 0 discriminator 4
 949 0010 7047     		bx	lr
 950              	.L106:
 951 0012 00BF     		.align	2
 952              	.L105:
 953 0014 0CA00040 		.word	1073782796
 954              		.cfi_endproc
 955              	.LFE15:
 956              		.size	CAN_GetTXErrorFlag, .-CAN_GetTXErrorFlag
 957              		.section	.text.CAN_GetRXErrorFlag,"ax",%progbits
 958              		.align	2
 959              		.global	CAN_GetRXErrorFlag
 960              		.thumb
 961              		.thumb_func
 962              		.type	CAN_GetRXErrorFlag, %function
 963              	CAN_GetRXErrorFlag:
 964              	.LFB16:
1198:Generated_Source\PSoC5/CAN.c **** 
1199:Generated_Source\PSoC5/CAN.c **** 
1200:Generated_Source\PSoC5/CAN.c **** /*******************************************************************************
1201:Generated_Source\PSoC5/CAN.c **** * FUNCTION NAME:   CAN_GetRXErrorFlag
1202:Generated_Source\PSoC5/CAN.c **** ********************************************************************************
1203:Generated_Source\PSoC5/CAN.c **** *
1204:Generated_Source\PSoC5/CAN.c **** * Summary:
1205:Generated_Source\PSoC5/CAN.c **** *  This function returns the bit that indicates if the number of RX errors
1206:Generated_Source\PSoC5/CAN.c **** *  exceeds 0x60.
ARM GAS  C:\Users\HENRYH~1\AppData\Local\Temp\ccMT0gCo.s 			page 40


1207:Generated_Source\PSoC5/CAN.c **** *
1208:Generated_Source\PSoC5/CAN.c **** * Parameters:
1209:Generated_Source\PSoC5/CAN.c **** *  None.
1210:Generated_Source\PSoC5/CAN.c **** *
1211:Generated_Source\PSoC5/CAN.c **** * Return:
1212:Generated_Source\PSoC5/CAN.c **** *  The indication whether the number of TX errors exceeds 0x60.
1213:Generated_Source\PSoC5/CAN.c **** *
1214:Generated_Source\PSoC5/CAN.c **** *******************************************************************************/
1215:Generated_Source\PSoC5/CAN.c **** uint8 CAN_GetRXErrorFlag(void) 
1216:Generated_Source\PSoC5/CAN.c **** {
 965              		.loc 1 1216 0
 966              		.cfi_startproc
 967              		@ args = 0, pretend = 0, frame = 0
 968              		@ frame_needed = 0, uses_anonymous_args = 0
 969              		@ link register save eliminated.
1217:Generated_Source\PSoC5/CAN.c ****     #if (CY_PSOC3 || CY_PSOC5)
1218:Generated_Source\PSoC5/CAN.c ****         /* Get state of receive error flag */
1219:Generated_Source\PSoC5/CAN.c ****         return (((CAN_ERR_SR_REG.byte[2u] & CAN_RX_ERROR_FLAG_MASK) ==
 970              		.loc 1 1219 0
 971 0000 044B     		ldr	r3, .L109
 972 0002 9B78     		ldrb	r3, [r3, #2]	@ zero_extendqisi2
 973 0004 03F00803 		and	r3, r3, #8
 974 0008 03F0FF00 		and	r0, r3, #255
 975 000c 03B1     		cbz	r3, .L108
 976 000e 0120     		movs	r0, #1
 977              	.L108:
1220:Generated_Source\PSoC5/CAN.c ****                   CAN_RX_ERROR_FLAG_MASK) ? 1u : 0u);
1221:Generated_Source\PSoC5/CAN.c ****     #else  /* CY_PSOC4 */
1222:Generated_Source\PSoC5/CAN.c ****         /* Get state of receive error flag */
1223:Generated_Source\PSoC5/CAN.c ****         return (((CAN_ERR_SR_REG & CAN_RX_ERROR_FLAG_MASK) ==
1224:Generated_Source\PSoC5/CAN.c ****                   CAN_RX_ERROR_FLAG_MASK) ? 1u : 0u);
1225:Generated_Source\PSoC5/CAN.c ****     #endif /* CY_PSOC3 || CY_PSOC5 */
1226:Generated_Source\PSoC5/CAN.c **** 
1227:Generated_Source\PSoC5/CAN.c **** }
 978              		.loc 1 1227 0 discriminator 4
 979 0010 7047     		bx	lr
 980              	.L110:
 981 0012 00BF     		.align	2
 982              	.L109:
 983 0014 0CA00040 		.word	1073782796
 984              		.cfi_endproc
 985              	.LFE16:
 986              		.size	CAN_GetRXErrorFlag, .-CAN_GetRXErrorFlag
 987              		.section	.text.CAN_GetTXErrorCount,"ax",%progbits
 988              		.align	2
 989              		.global	CAN_GetTXErrorCount
 990              		.thumb
 991              		.thumb_func
 992              		.type	CAN_GetTXErrorCount, %function
 993              	CAN_GetTXErrorCount:
 994              	.LFB17:
1228:Generated_Source\PSoC5/CAN.c **** 
1229:Generated_Source\PSoC5/CAN.c **** 
1230:Generated_Source\PSoC5/CAN.c **** /*******************************************************************************
1231:Generated_Source\PSoC5/CAN.c **** * FUNCTION NAME:   CAN_GetTXErrorCount
1232:Generated_Source\PSoC5/CAN.c **** ********************************************************************************
1233:Generated_Source\PSoC5/CAN.c **** *
ARM GAS  C:\Users\HENRYH~1\AppData\Local\Temp\ccMT0gCo.s 			page 41


1234:Generated_Source\PSoC5/CAN.c **** * Summary:
1235:Generated_Source\PSoC5/CAN.c **** *  This function returns the number of Transmit Errors.
1236:Generated_Source\PSoC5/CAN.c **** *
1237:Generated_Source\PSoC5/CAN.c **** * Parameters:
1238:Generated_Source\PSoC5/CAN.c **** *  None.
1239:Generated_Source\PSoC5/CAN.c **** *
1240:Generated_Source\PSoC5/CAN.c **** * Return:
1241:Generated_Source\PSoC5/CAN.c **** *  The number of Transmit Errors.
1242:Generated_Source\PSoC5/CAN.c **** *
1243:Generated_Source\PSoC5/CAN.c **** *******************************************************************************/
1244:Generated_Source\PSoC5/CAN.c **** uint8 CAN_GetTXErrorCount(void) 
1245:Generated_Source\PSoC5/CAN.c **** {
 995              		.loc 1 1245 0
 996              		.cfi_startproc
 997              		@ args = 0, pretend = 0, frame = 0
 998              		@ frame_needed = 0, uses_anonymous_args = 0
 999              		@ link register save eliminated.
1246:Generated_Source\PSoC5/CAN.c ****     #if (CY_PSOC3 || CY_PSOC5)
1247:Generated_Source\PSoC5/CAN.c ****         /* Get state of transmit error count */
1248:Generated_Source\PSoC5/CAN.c ****         return (CAN_ERR_SR_REG.byte[0u]);    /* bits 7-0 */
 1000              		.loc 1 1248 0
 1001 0000 014B     		ldr	r3, .L112
 1002 0002 1878     		ldrb	r0, [r3]	@ zero_extendqisi2
1249:Generated_Source\PSoC5/CAN.c ****     #else  /* CY_PSOC4 */
1250:Generated_Source\PSoC5/CAN.c ****         /* Get state of transmit error count */
1251:Generated_Source\PSoC5/CAN.c ****         return ((uint8) CAN_ERR_SR_REG);    /* bits 7-0 */
1252:Generated_Source\PSoC5/CAN.c ****     #endif /* CY_PSOC3 || CY_PSOC5 */
1253:Generated_Source\PSoC5/CAN.c **** }
 1003              		.loc 1 1253 0
 1004 0004 7047     		bx	lr
 1005              	.L113:
 1006 0006 00BF     		.align	2
 1007              	.L112:
 1008 0008 0CA00040 		.word	1073782796
 1009              		.cfi_endproc
 1010              	.LFE17:
 1011              		.size	CAN_GetTXErrorCount, .-CAN_GetTXErrorCount
 1012              		.section	.text.CAN_GetRXErrorCount,"ax",%progbits
 1013              		.align	2
 1014              		.global	CAN_GetRXErrorCount
 1015              		.thumb
 1016              		.thumb_func
 1017              		.type	CAN_GetRXErrorCount, %function
 1018              	CAN_GetRXErrorCount:
 1019              	.LFB18:
1254:Generated_Source\PSoC5/CAN.c **** 
1255:Generated_Source\PSoC5/CAN.c **** 
1256:Generated_Source\PSoC5/CAN.c **** /*******************************************************************************
1257:Generated_Source\PSoC5/CAN.c **** * FUNCTION NAME:   CAN_GetRXErrorCount
1258:Generated_Source\PSoC5/CAN.c **** ********************************************************************************
1259:Generated_Source\PSoC5/CAN.c **** *
1260:Generated_Source\PSoC5/CAN.c **** * Summary:
1261:Generated_Source\PSoC5/CAN.c **** *  This function returns the number of Receive Errors.
1262:Generated_Source\PSoC5/CAN.c **** *
1263:Generated_Source\PSoC5/CAN.c **** * Parameters:
1264:Generated_Source\PSoC5/CAN.c **** *  None.
1265:Generated_Source\PSoC5/CAN.c **** *
ARM GAS  C:\Users\HENRYH~1\AppData\Local\Temp\ccMT0gCo.s 			page 42


1266:Generated_Source\PSoC5/CAN.c **** * Return:
1267:Generated_Source\PSoC5/CAN.c **** *  The number of Receive Errors.
1268:Generated_Source\PSoC5/CAN.c **** *
1269:Generated_Source\PSoC5/CAN.c **** *******************************************************************************/
1270:Generated_Source\PSoC5/CAN.c **** uint8 CAN_GetRXErrorCount(void) 
1271:Generated_Source\PSoC5/CAN.c **** {
 1020              		.loc 1 1271 0
 1021              		.cfi_startproc
 1022              		@ args = 0, pretend = 0, frame = 0
 1023              		@ frame_needed = 0, uses_anonymous_args = 0
 1024              		@ link register save eliminated.
1272:Generated_Source\PSoC5/CAN.c ****     #if (CY_PSOC3 || CY_PSOC5)
1273:Generated_Source\PSoC5/CAN.c ****         /* Get state of receive error count */
1274:Generated_Source\PSoC5/CAN.c ****         return (CAN_ERR_SR_REG.byte[1u]);    /* bits 15-8 */
 1025              		.loc 1 1274 0
 1026 0000 014B     		ldr	r3, .L115
 1027 0002 5878     		ldrb	r0, [r3, #1]	@ zero_extendqisi2
1275:Generated_Source\PSoC5/CAN.c ****     #else  /* CY_PSOC4 */
1276:Generated_Source\PSoC5/CAN.c ****         /* Get state of receive error count (bits 15-8) */
1277:Generated_Source\PSoC5/CAN.c ****         return ((uint8) (CAN_ERR_SR_REG >> CAN_ONE_BYTE_OFFSET));
1278:Generated_Source\PSoC5/CAN.c ****     #endif /* CY_PSOC3 || CY_PSOC5 */
1279:Generated_Source\PSoC5/CAN.c **** 
1280:Generated_Source\PSoC5/CAN.c **** }
 1028              		.loc 1 1280 0
 1029 0004 7047     		bx	lr
 1030              	.L116:
 1031 0006 00BF     		.align	2
 1032              	.L115:
 1033 0008 0CA00040 		.word	1073782796
 1034              		.cfi_endproc
 1035              	.LFE18:
 1036              		.size	CAN_GetRXErrorCount, .-CAN_GetRXErrorCount
 1037              		.section	.text.CAN_GetErrorState,"ax",%progbits
 1038              		.align	2
 1039              		.global	CAN_GetErrorState
 1040              		.thumb
 1041              		.thumb_func
 1042              		.type	CAN_GetErrorState, %function
 1043              	CAN_GetErrorState:
 1044              	.LFB19:
1281:Generated_Source\PSoC5/CAN.c **** 
1282:Generated_Source\PSoC5/CAN.c **** 
1283:Generated_Source\PSoC5/CAN.c **** /*******************************************************************************
1284:Generated_Source\PSoC5/CAN.c **** * FUNCTION NAME:   CAN_GetErrorState
1285:Generated_Source\PSoC5/CAN.c **** ********************************************************************************
1286:Generated_Source\PSoC5/CAN.c **** *
1287:Generated_Source\PSoC5/CAN.c **** * Summary:
1288:Generated_Source\PSoC5/CAN.c **** *  This function returns the error status of CAN Component.
1289:Generated_Source\PSoC5/CAN.c **** *
1290:Generated_Source\PSoC5/CAN.c **** * Parameters:
1291:Generated_Source\PSoC5/CAN.c **** *  None.
1292:Generated_Source\PSoC5/CAN.c **** *
1293:Generated_Source\PSoC5/CAN.c **** * Return:
1294:Generated_Source\PSoC5/CAN.c **** *  The error status.
1295:Generated_Source\PSoC5/CAN.c **** *
1296:Generated_Source\PSoC5/CAN.c **** *******************************************************************************/
1297:Generated_Source\PSoC5/CAN.c **** uint8 CAN_GetErrorState(void) 
ARM GAS  C:\Users\HENRYH~1\AppData\Local\Temp\ccMT0gCo.s 			page 43


1298:Generated_Source\PSoC5/CAN.c **** {
 1045              		.loc 1 1298 0
 1046              		.cfi_startproc
 1047              		@ args = 0, pretend = 0, frame = 0
 1048              		@ frame_needed = 0, uses_anonymous_args = 0
 1049              		@ link register save eliminated.
1299:Generated_Source\PSoC5/CAN.c ****     #if (CY_PSOC3 || CY_PSOC5)
1300:Generated_Source\PSoC5/CAN.c ****         /* Get error state of receiver */
1301:Generated_Source\PSoC5/CAN.c ****         return (CAN_ERR_SR_REG.byte[2u] & CAN_ERROR_STATE_MASK);
 1050              		.loc 1 1301 0
 1051 0000 024B     		ldr	r3, .L118
 1052 0002 9878     		ldrb	r0, [r3, #2]	@ zero_extendqisi2
1302:Generated_Source\PSoC5/CAN.c ****     #else  /* CY_PSOC4 */
1303:Generated_Source\PSoC5/CAN.c ****         /* Get error state of receiver */
1304:Generated_Source\PSoC5/CAN.c ****         return ((uint8) ((CAN_ERR_SR_REG >> CAN_TWO_BYTE_OFFSET) &
1305:Generated_Source\PSoC5/CAN.c ****                 CAN_ERROR_STATE_MASK));
1306:Generated_Source\PSoC5/CAN.c ****     #endif /* CY_PSOC3 || CY_PSOC5 */
1307:Generated_Source\PSoC5/CAN.c **** }
 1053              		.loc 1 1307 0
 1054 0004 00F00300 		and	r0, r0, #3
 1055 0008 7047     		bx	lr
 1056              	.L119:
 1057 000a 00BF     		.align	2
 1058              	.L118:
 1059 000c 0CA00040 		.word	1073782796
 1060              		.cfi_endproc
 1061              	.LFE19:
 1062              		.size	CAN_GetErrorState, .-CAN_GetErrorState
 1063              		.section	.text.CAN_RxBufConfig,"ax",%progbits
 1064              		.align	2
 1065              		.global	CAN_RxBufConfig
 1066              		.thumb
 1067              		.thumb_func
 1068              		.type	CAN_RxBufConfig, %function
 1069              	CAN_RxBufConfig:
 1070              	.LFB20:
1308:Generated_Source\PSoC5/CAN.c **** 
1309:Generated_Source\PSoC5/CAN.c **** 
1310:Generated_Source\PSoC5/CAN.c **** /*******************************************************************************
1311:Generated_Source\PSoC5/CAN.c **** * FUNCTION NAME:   CAN_RxBufConfig
1312:Generated_Source\PSoC5/CAN.c **** ********************************************************************************
1313:Generated_Source\PSoC5/CAN.c **** *
1314:Generated_Source\PSoC5/CAN.c **** * Summary:
1315:Generated_Source\PSoC5/CAN.c **** *  This function configures all receive registers for a particular mailbox.
1316:Generated_Source\PSoC5/CAN.c **** *
1317:Generated_Source\PSoC5/CAN.c **** * Parameters:
1318:Generated_Source\PSoC5/CAN.c **** *  rxConfig: The pointer to a structure that contain all required values to
1319:Generated_Source\PSoC5/CAN.c **** *  configure all receive registers for a particular mailbox.
1320:Generated_Source\PSoC5/CAN.c **** *
1321:Generated_Source\PSoC5/CAN.c **** * Return:
1322:Generated_Source\PSoC5/CAN.c **** *  The indication if particular configuration has been accepted or rejected.
1323:Generated_Source\PSoC5/CAN.c **** *   Define                             Description
1324:Generated_Source\PSoC5/CAN.c **** *    CYRET_SUCCESS                      The function passed successfully
1325:Generated_Source\PSoC5/CAN.c **** *    CAN_FAIL              The function failed
1326:Generated_Source\PSoC5/CAN.c **** *
1327:Generated_Source\PSoC5/CAN.c **** *******************************************************************************/
1328:Generated_Source\PSoC5/CAN.c **** uint8 CAN_RxBufConfig(const CAN_RX_CFG *rxConfig)
ARM GAS  C:\Users\HENRYH~1\AppData\Local\Temp\ccMT0gCo.s 			page 44


1329:Generated_Source\PSoC5/CAN.c ****                                    
1330:Generated_Source\PSoC5/CAN.c **** {
 1071              		.loc 1 1330 0
 1072              		.cfi_startproc
 1073              		@ args = 0, pretend = 0, frame = 0
 1074              		@ frame_needed = 0, uses_anonymous_args = 0
 1075              		@ link register save eliminated.
 1076              	.LVL112:
1331:Generated_Source\PSoC5/CAN.c ****     uint8 result = CAN_FAIL;
1332:Generated_Source\PSoC5/CAN.c **** 
1333:Generated_Source\PSoC5/CAN.c ****     /* Write RX CMD Register */
1334:Generated_Source\PSoC5/CAN.c ****     CY_SET_REG32((reg32 *) (&CAN_RX[rxConfig->rxmailbox].rxcmd), (rxConfig->rxcmd |
 1077              		.loc 1 1334 0
 1078 0000 0378     		ldrb	r3, [r0]	@ zero_extendqisi2
 1079 0002 5B01     		lsls	r3, r3, #5
 1080 0004 214A     		ldr	r2, .L127
 1081 0006 4168     		ldr	r1, [r0, #4]
 1082 0008 41F08011 		orr	r1, r1, #8388736
 1083 000c 9950     		str	r1, [r3, r2]
1335:Generated_Source\PSoC5/CAN.c ****                  CAN_RX_WPN_SET));
1336:Generated_Source\PSoC5/CAN.c ****     if ((CY_GET_REG32((reg32 *) (&CAN_RX[rxConfig->rxmailbox].rxcmd)) &
 1084              		.loc 1 1336 0
 1085 000e 0378     		ldrb	r3, [r0]	@ zero_extendqisi2
 1086 0010 5B01     		lsls	r3, r3, #5
 1087 0012 9918     		adds	r1, r3, r2
 1088 0014 9A58     		ldr	r2, [r3, r2]
 1089 0016 02F07F12 		and	r2, r2, #8323199
1337:Generated_Source\PSoC5/CAN.c ****          CAN_RX_READ_BACK_MASK) == (rxConfig->rxcmd & CAN_RX_WPN_CLEAR))
 1090              		.loc 1 1337 0
 1091 001a 4368     		ldr	r3, [r0, #4]
 1092 001c 23F08013 		bic	r3, r3, #8388736
1336:Generated_Source\PSoC5/CAN.c ****          CAN_RX_READ_BACK_MASK) == (rxConfig->rxcmd & CAN_RX_WPN_CLEAR))
 1093              		.loc 1 1336 0
 1094 0020 9A42     		cmp	r2, r3
 1095 0022 28D1     		bne	.L122
1338:Generated_Source\PSoC5/CAN.c ****     {
1339:Generated_Source\PSoC5/CAN.c ****         /* Write RX AMR Register */
1340:Generated_Source\PSoC5/CAN.c ****         CY_SET_REG32((reg32 *) (&CAN_RX[rxConfig->rxmailbox].rxamr), rxConfig->rxamr);
 1096              		.loc 1 1340 0
 1097 0024 8368     		ldr	r3, [r0, #8]
 1098 0026 0B61     		str	r3, [r1, #16]
1341:Generated_Source\PSoC5/CAN.c ****         if (CY_GET_REG32((reg32 *) (&CAN_RX[rxConfig->rxmailbox].rxamr)) == rxConfig->rxamr)
 1099              		.loc 1 1341 0
 1100 0028 0278     		ldrb	r2, [r0]	@ zero_extendqisi2
 1101 002a 184B     		ldr	r3, .L127
 1102 002c 03EB4213 		add	r3, r3, r2, lsl #5
 1103 0030 1969     		ldr	r1, [r3, #16]
 1104 0032 8268     		ldr	r2, [r0, #8]
 1105 0034 9142     		cmp	r1, r2
 1106 0036 20D1     		bne	.L123
1342:Generated_Source\PSoC5/CAN.c ****         {
1343:Generated_Source\PSoC5/CAN.c ****             /* Write RX ACR Register */
1344:Generated_Source\PSoC5/CAN.c ****             CY_SET_REG32((reg32 *) (&CAN_RX[rxConfig->rxmailbox].rxacr), rxConfig->rxacr);
 1107              		.loc 1 1344 0
 1108 0038 C268     		ldr	r2, [r0, #12]
 1109 003a 5A61     		str	r2, [r3, #20]
1345:Generated_Source\PSoC5/CAN.c ****             if (CY_GET_REG32((reg32 *) (&CAN_RX[rxConfig->rxmailbox].rxacr)) == rxConfig->rxacr)
ARM GAS  C:\Users\HENRYH~1\AppData\Local\Temp\ccMT0gCo.s 			page 45


 1110              		.loc 1 1345 0
 1111 003c 0278     		ldrb	r2, [r0]	@ zero_extendqisi2
 1112 003e 134B     		ldr	r3, .L127
 1113 0040 03EB4213 		add	r3, r3, r2, lsl #5
 1114 0044 5969     		ldr	r1, [r3, #20]
 1115 0046 C268     		ldr	r2, [r0, #12]
 1116 0048 9142     		cmp	r1, r2
 1117 004a 18D1     		bne	.L124
1346:Generated_Source\PSoC5/CAN.c ****             {
1347:Generated_Source\PSoC5/CAN.c ****                 /* Write RX AMRD Register */
1348:Generated_Source\PSoC5/CAN.c ****                 CY_SET_REG32((reg32 *) (&CAN_RX[rxConfig->rxmailbox].rxamrd), 0xFFFFFFFFu);
 1118              		.loc 1 1348 0
 1119 004c 4FF0FF32 		mov	r2, #-1
 1120 0050 9A61     		str	r2, [r3, #24]
1349:Generated_Source\PSoC5/CAN.c ****                 if (CY_GET_REG32((reg32 *) (&CAN_RX[rxConfig->rxmailbox].rxamrd)) == 0xFFFFFFFFu)
 1121              		.loc 1 1349 0
 1122 0052 0278     		ldrb	r2, [r0]	@ zero_extendqisi2
 1123 0054 0D4B     		ldr	r3, .L127
 1124 0056 03EB4213 		add	r3, r3, r2, lsl #5
 1125 005a 9A69     		ldr	r2, [r3, #24]
 1126 005c B2F1FF3F 		cmp	r2, #-1
 1127 0060 0FD1     		bne	.L125
1350:Generated_Source\PSoC5/CAN.c ****                 {
1351:Generated_Source\PSoC5/CAN.c ****                     /* Write RX ACRD Register */
1352:Generated_Source\PSoC5/CAN.c ****                     CY_SET_REG32((reg32 *) (&CAN_RX[rxConfig->rxmailbox].rxacrd), 0x00000000u);
 1128              		.loc 1 1352 0
 1129 0062 0022     		movs	r2, #0
 1130 0064 DA61     		str	r2, [r3, #28]
1353:Generated_Source\PSoC5/CAN.c ****                     if (CY_GET_REG32((reg32 *) (&CAN_RX[rxConfig->rxmailbox].rxacrd)) == 0x00000000
 1131              		.loc 1 1353 0
 1132 0066 0278     		ldrb	r2, [r0]	@ zero_extendqisi2
 1133 0068 084B     		ldr	r3, .L127
 1134 006a 03EB4213 		add	r3, r3, r2, lsl #5
 1135 006e DB69     		ldr	r3, [r3, #28]
 1136 0070 4BB1     		cbz	r3, .L126
1331:Generated_Source\PSoC5/CAN.c **** 
 1137              		.loc 1 1331 0
 1138 0072 0120     		movs	r0, #1
 1139              	.LVL113:
 1140 0074 7047     		bx	lr
 1141              	.LVL114:
 1142              	.L122:
 1143 0076 0120     		movs	r0, #1
 1144              	.LVL115:
 1145 0078 7047     		bx	lr
 1146              	.LVL116:
 1147              	.L123:
 1148 007a 0120     		movs	r0, #1
 1149              	.LVL117:
 1150 007c 7047     		bx	lr
 1151              	.LVL118:
 1152              	.L124:
 1153 007e 0120     		movs	r0, #1
 1154              	.LVL119:
 1155 0080 7047     		bx	lr
 1156              	.LVL120:
 1157              	.L125:
ARM GAS  C:\Users\HENRYH~1\AppData\Local\Temp\ccMT0gCo.s 			page 46


 1158 0082 0120     		movs	r0, #1
 1159              	.LVL121:
 1160 0084 7047     		bx	lr
 1161              	.LVL122:
 1162              	.L126:
1354:Generated_Source\PSoC5/CAN.c ****                     {
1355:Generated_Source\PSoC5/CAN.c ****                         result = CYRET_SUCCESS;
 1163              		.loc 1 1355 0
 1164 0086 0020     		movs	r0, #0
 1165              	.LVL123:
1356:Generated_Source\PSoC5/CAN.c ****                     }
1357:Generated_Source\PSoC5/CAN.c ****                 }
1358:Generated_Source\PSoC5/CAN.c ****             }
1359:Generated_Source\PSoC5/CAN.c ****         }
1360:Generated_Source\PSoC5/CAN.c ****     }
1361:Generated_Source\PSoC5/CAN.c **** 
1362:Generated_Source\PSoC5/CAN.c ****     return (result);
1363:Generated_Source\PSoC5/CAN.c **** }
 1166              		.loc 1 1363 0
 1167 0088 7047     		bx	lr
 1168              	.L128:
 1169 008a 00BF     		.align	2
 1170              	.L127:
 1171 008c A0A00040 		.word	1073782944
 1172              		.cfi_endproc
 1173              	.LFE20:
 1174              		.size	CAN_RxBufConfig, .-CAN_RxBufConfig
 1175              		.section	.text.CAN_TxBufConfig,"ax",%progbits
 1176              		.align	2
 1177              		.global	CAN_TxBufConfig
 1178              		.thumb
 1179              		.thumb_func
 1180              		.type	CAN_TxBufConfig, %function
 1181              	CAN_TxBufConfig:
 1182              	.LFB21:
1364:Generated_Source\PSoC5/CAN.c **** 
1365:Generated_Source\PSoC5/CAN.c **** 
1366:Generated_Source\PSoC5/CAN.c **** /*******************************************************************************
1367:Generated_Source\PSoC5/CAN.c **** * FUNCTION NAME:   CAN_TxBufConfig
1368:Generated_Source\PSoC5/CAN.c **** ********************************************************************************
1369:Generated_Source\PSoC5/CAN.c **** *
1370:Generated_Source\PSoC5/CAN.c **** * Summary:
1371:Generated_Source\PSoC5/CAN.c **** *  This function configures all transmit registers for a particular mailbox.
1372:Generated_Source\PSoC5/CAN.c **** *  Mailbox number contains CAN_TX_CFG structure.
1373:Generated_Source\PSoC5/CAN.c **** *
1374:Generated_Source\PSoC5/CAN.c **** * Parameters:
1375:Generated_Source\PSoC5/CAN.c **** *  txConfig: The pointer to structure that contain all required values to
1376:Generated_Source\PSoC5/CAN.c **** *  configure all transmit registers for a particular mailbox.
1377:Generated_Source\PSoC5/CAN.c **** *
1378:Generated_Source\PSoC5/CAN.c **** * Return:
1379:Generated_Source\PSoC5/CAN.c **** *  The indication if particular configuration has been accepted or rejected.
1380:Generated_Source\PSoC5/CAN.c **** *   Define                             Description
1381:Generated_Source\PSoC5/CAN.c **** *    CYRET_SUCCESS                      The function passed successfully
1382:Generated_Source\PSoC5/CAN.c **** *    CAN_FAIL              The function failed
1383:Generated_Source\PSoC5/CAN.c **** *
1384:Generated_Source\PSoC5/CAN.c **** *******************************************************************************/
1385:Generated_Source\PSoC5/CAN.c **** uint8 CAN_TxBufConfig(const CAN_TX_CFG *txConfig)
ARM GAS  C:\Users\HENRYH~1\AppData\Local\Temp\ccMT0gCo.s 			page 47


1386:Generated_Source\PSoC5/CAN.c ****                                    
1387:Generated_Source\PSoC5/CAN.c **** {
 1183              		.loc 1 1387 0
 1184              		.cfi_startproc
 1185              		@ args = 0, pretend = 0, frame = 0
 1186              		@ frame_needed = 0, uses_anonymous_args = 0
 1187              		@ link register save eliminated.
 1188              	.LVL124:
1388:Generated_Source\PSoC5/CAN.c ****     uint8 result = CAN_FAIL;
1389:Generated_Source\PSoC5/CAN.c **** 
1390:Generated_Source\PSoC5/CAN.c ****     /* Write TX CMD Register */
1391:Generated_Source\PSoC5/CAN.c ****     CY_SET_REG32(CAN_TX_CMD_PTR(txConfig->txmailbox), (txConfig->txcmd | CAN_TX_WPN_SET));
 1189              		.loc 1 1391 0
 1190 0000 0178     		ldrb	r1, [r0]	@ zero_extendqisi2
 1191 0002 0901     		lsls	r1, r1, #4
 1192 0004 114A     		ldr	r2, .L133
 1193 0006 4368     		ldr	r3, [r0, #4]
 1194 0008 43F40003 		orr	r3, r3, #8388608
 1195 000c 43F00803 		orr	r3, r3, #8
 1196 0010 8B50     		str	r3, [r1, r2]
1392:Generated_Source\PSoC5/CAN.c ****     if ((CY_GET_REG32(CAN_TX_CMD_PTR(txConfig->txmailbox)) &
 1197              		.loc 1 1392 0
 1198 0012 0378     		ldrb	r3, [r0]	@ zero_extendqisi2
 1199 0014 1B01     		lsls	r3, r3, #4
 1200 0016 9918     		adds	r1, r3, r2
 1201 0018 9B58     		ldr	r3, [r3, r2]
 1202 001a 0D4A     		ldr	r2, .L133+4
 1203 001c 1A40     		ands	r2, r2, r3
1393:Generated_Source\PSoC5/CAN.c ****         CAN_TX_READ_BACK_MASK) == (txConfig->txcmd & CAN_TX_WPN_CLEAR))
 1204              		.loc 1 1393 0
 1205 001e 4368     		ldr	r3, [r0, #4]
 1206 0020 23F40003 		bic	r3, r3, #8388608
 1207 0024 23F00803 		bic	r3, r3, #8
1392:Generated_Source\PSoC5/CAN.c ****     if ((CY_GET_REG32(CAN_TX_CMD_PTR(txConfig->txmailbox)) &
 1208              		.loc 1 1392 0
 1209 0028 9A42     		cmp	r2, r3
 1210 002a 0BD1     		bne	.L131
1394:Generated_Source\PSoC5/CAN.c ****     {
1395:Generated_Source\PSoC5/CAN.c ****         /* Write TX ID Register */
1396:Generated_Source\PSoC5/CAN.c ****         CY_SET_REG32(CAN_TX_ID_PTR(txConfig->txmailbox), txConfig->txid);
 1211              		.loc 1 1396 0
 1212 002c 8368     		ldr	r3, [r0, #8]
 1213 002e 4B60     		str	r3, [r1, #4]
1397:Generated_Source\PSoC5/CAN.c ****         if (CY_GET_REG32(CAN_TX_ID_PTR(txConfig->txmailbox)) == txConfig->txid)
 1214              		.loc 1 1397 0
 1215 0030 0278     		ldrb	r2, [r0]	@ zero_extendqisi2
 1216 0032 064B     		ldr	r3, .L133
 1217 0034 03EB0213 		add	r3, r3, r2, lsl #4
 1218 0038 5A68     		ldr	r2, [r3, #4]
 1219 003a 8368     		ldr	r3, [r0, #8]
 1220 003c 9A42     		cmp	r2, r3
 1221 003e 03D0     		beq	.L132
1388:Generated_Source\PSoC5/CAN.c **** 
 1222              		.loc 1 1388 0
 1223 0040 0120     		movs	r0, #1
 1224              	.LVL125:
 1225 0042 7047     		bx	lr
ARM GAS  C:\Users\HENRYH~1\AppData\Local\Temp\ccMT0gCo.s 			page 48


 1226              	.LVL126:
 1227              	.L131:
 1228 0044 0120     		movs	r0, #1
 1229              	.LVL127:
 1230 0046 7047     		bx	lr
 1231              	.LVL128:
 1232              	.L132:
1398:Generated_Source\PSoC5/CAN.c ****         {
1399:Generated_Source\PSoC5/CAN.c ****             result = CYRET_SUCCESS;
 1233              		.loc 1 1399 0
 1234 0048 0020     		movs	r0, #0
 1235              	.LVL129:
1400:Generated_Source\PSoC5/CAN.c ****         }
1401:Generated_Source\PSoC5/CAN.c ****     }
1402:Generated_Source\PSoC5/CAN.c **** 
1403:Generated_Source\PSoC5/CAN.c ****     return (result);
1404:Generated_Source\PSoC5/CAN.c **** }
 1236              		.loc 1 1404 0
 1237 004a 7047     		bx	lr
 1238              	.L134:
 1239              		.align	2
 1240              	.L133:
 1241 004c 20A00040 		.word	1073782816
 1242 0050 F7007F00 		.word	8323319
 1243              		.cfi_endproc
 1244              	.LFE21:
 1245              		.size	CAN_TxBufConfig, .-CAN_TxBufConfig
 1246              		.section	.text.CAN_RxTxBuffersConfig,"ax",%progbits
 1247              		.align	2
 1248              		.global	CAN_RxTxBuffersConfig
 1249              		.thumb
 1250              		.thumb_func
 1251              		.type	CAN_RxTxBuffersConfig, %function
 1252              	CAN_RxTxBuffersConfig:
 1253              	.LFB0:
  48:Generated_Source\PSoC5/CAN.c ****     /* Initial values of CAN RX and TX registers */
 1254              		.loc 1 48 0
 1255              		.cfi_startproc
 1256              		@ args = 0, pretend = 0, frame = 0
 1257              		@ frame_needed = 0, uses_anonymous_args = 0
 1258 0000 38B5     		push	{r3, r4, r5, lr}
 1259              		.cfi_def_cfa_offset 16
 1260              		.cfi_offset 3, -16
 1261              		.cfi_offset 4, -12
 1262              		.cfi_offset 5, -8
 1263              		.cfi_offset 14, -4
 1264              	.LVL130:
  86:Generated_Source\PSoC5/CAN.c ****     {
 1265              		.loc 1 86 0
 1266 0002 0024     		movs	r4, #0
 1267 0004 09E0     		b	.L136
 1268              	.LVL131:
 1269              	.L138:
  88:Generated_Source\PSoC5/CAN.c ****             (&CAN_TXConfigStruct[i])) != CYRET_SUCCESS)
 1270              		.loc 1 88 0
 1271 0006 04EB4402 		add	r2, r4, r4, lsl #1
 1272 000a 9300     		lsls	r3, r2, #2
ARM GAS  C:\Users\HENRYH~1\AppData\Local\Temp\ccMT0gCo.s 			page 49


 1273 000c 0E48     		ldr	r0, .L146
 1274 000e 1844     		add	r0, r0, r3
 1275 0010 FFF7FEFF 		bl	CAN_TxBufConfig
 1276              	.LVL132:
 1277 0014 28B9     		cbnz	r0, .L142
  86:Generated_Source\PSoC5/CAN.c ****     {
 1278              		.loc 1 86 0 discriminator 2
 1279 0016 0134     		adds	r4, r4, #1
 1280              	.LVL133:
 1281 0018 E4B2     		uxtb	r4, r4
 1282              	.LVL134:
 1283              	.L136:
  86:Generated_Source\PSoC5/CAN.c ****     {
 1284              		.loc 1 86 0 is_stmt 0 discriminator 1
 1285 001a 072C     		cmp	r4, #7
 1286 001c F3D9     		bls	.L138
  82:Generated_Source\PSoC5/CAN.c ****     uint8 i;
 1287              		.loc 1 82 0 is_stmt 1
 1288 001e 0025     		movs	r5, #0
 1289 0020 00E0     		b	.L137
 1290              	.L142:
  91:Generated_Source\PSoC5/CAN.c ****             break;
 1291              		.loc 1 91 0
 1292 0022 0125     		movs	r5, #1
 1293              	.L137:
 1294              	.LVL135:
  96:Generated_Source\PSoC5/CAN.c ****     {
 1295              		.loc 1 96 0
 1296 0024 4DB1     		cbz	r5, .L143
 1297 0026 0DE0     		b	.L140
 1298              	.L141:
 101:Generated_Source\PSoC5/CAN.c ****                 (&CAN_RXConfigStruct[i])) != CYRET_SUCCESS)
 1299              		.loc 1 101 0
 1300 0028 0848     		ldr	r0, .L146+4
 1301 002a 00EB0410 		add	r0, r0, r4, lsl #4
 1302 002e FFF7FEFF 		bl	CAN_RxBufConfig
 1303              	.LVL136:
 1304 0032 30B9     		cbnz	r0, .L144
  99:Generated_Source\PSoC5/CAN.c ****         {
 1305              		.loc 1 99 0 discriminator 2
 1306 0034 0134     		adds	r4, r4, #1
 1307              	.LVL137:
 1308 0036 E4B2     		uxtb	r4, r4
 1309              	.LVL138:
 1310 0038 00E0     		b	.L139
 1311              	.L143:
 1312 003a 0024     		movs	r4, #0
 1313              	.LVL139:
 1314              	.L139:
  99:Generated_Source\PSoC5/CAN.c ****         {
 1315              		.loc 1 99 0 is_stmt 0 discriminator 1
 1316 003c 0F2C     		cmp	r4, #15
 1317 003e F3D9     		bls	.L141
 1318 0040 00E0     		b	.L140
 1319              	.L144:
 104:Generated_Source\PSoC5/CAN.c ****                 break;
 1320              		.loc 1 104 0 is_stmt 1
ARM GAS  C:\Users\HENRYH~1\AppData\Local\Temp\ccMT0gCo.s 			page 50


 1321 0042 0125     		movs	r5, #1
 1322              	.LVL140:
 1323              	.L140:
 111:Generated_Source\PSoC5/CAN.c **** 
 1324              		.loc 1 111 0
 1325 0044 2846     		mov	r0, r5
 1326 0046 38BD     		pop	{r3, r4, r5, pc}
 1327              	.LVL141:
 1328              	.L147:
 1329              		.align	2
 1330              	.L146:
 1331 0048 00000000 		.word	.LANCHOR0
 1332 004c 60000000 		.word	.LANCHOR0+96
 1333              		.cfi_endproc
 1334              	.LFE0:
 1335              		.size	CAN_RxTxBuffersConfig, .-CAN_RxTxBuffersConfig
 1336              		.section	.text.CAN_Init,"ax",%progbits
 1337              		.align	2
 1338              		.global	CAN_Init
 1339              		.thumb
 1340              		.thumb_func
 1341              		.type	CAN_Init, %function
 1342              	CAN_Init:
 1343              	.LFB1:
 138:Generated_Source\PSoC5/CAN.c ****     uint32 timeout = CAN_MODE_STATE_STOP_TIMEOUT;
 1344              		.loc 1 138 0
 1345              		.cfi_startproc
 1346              		@ args = 0, pretend = 0, frame = 0
 1347              		@ frame_needed = 0, uses_anonymous_args = 0
 1348 0000 08B5     		push	{r3, lr}
 1349              		.cfi_def_cfa_offset 8
 1350              		.cfi_offset 3, -8
 1351              		.cfi_offset 14, -4
 1352              	.LVL142:
 146:Generated_Source\PSoC5/CAN.c ****         /* Enable CAN block in Active mode */
 1353              		.loc 1 146 0
 1354 0002 FFF7FEFF 		bl	CyEnterCriticalSection
 1355              	.LVL143:
 148:Generated_Source\PSoC5/CAN.c ****         /* Enable CAN block in Alternate Active (Standby) mode */
 1356              		.loc 1 148 0
 1357 0006 324A     		ldr	r2, .L165
 1358 0008 1378     		ldrb	r3, [r2]	@ zero_extendqisi2
 1359 000a 43F00103 		orr	r3, r3, #1
 1360 000e 1370     		strb	r3, [r2]
 150:Generated_Source\PSoC5/CAN.c ****         CyExitCriticalSection(enableInterrupts);
 1361              		.loc 1 150 0
 1362 0010 1032     		adds	r2, r2, #16
 1363 0012 1378     		ldrb	r3, [r2]	@ zero_extendqisi2
 1364 0014 43F00103 		orr	r3, r3, #1
 1365 0018 1370     		strb	r3, [r2]
 151:Generated_Source\PSoC5/CAN.c **** 
 1366              		.loc 1 151 0
 1367 001a FFF7FEFF 		bl	CyExitCriticalSection
 1368              	.LVL144:
 154:Generated_Source\PSoC5/CAN.c **** 
 1369              		.loc 1 154 0
 1370 001e 2D4A     		ldr	r2, .L165+4
ARM GAS  C:\Users\HENRYH~1\AppData\Local\Temp\ccMT0gCo.s 			page 51


 1371 0020 1378     		ldrb	r3, [r2]	@ zero_extendqisi2
 1372 0022 03F0FE03 		and	r3, r3, #254
 1373 0026 1370     		strb	r3, [r2]
 139:Generated_Source\PSoC5/CAN.c ****     uint8 result = CAN_FAIL;
 1374              		.loc 1 139 0
 1375 0028 4FF47063 		mov	r3, #3840
 157:Generated_Source\PSoC5/CAN.c ****         {
 1376              		.loc 1 157 0
 1377 002c 00E0     		b	.L149
 1378              	.LVL145:
 1379              	.L151:
 159:Generated_Source\PSoC5/CAN.c ****         }
 1380              		.loc 1 159 0
 1381 002e 013B     		subs	r3, r3, #1
 1382              	.LVL146:
 1383              	.L149:
 157:Generated_Source\PSoC5/CAN.c ****         {
 1384              		.loc 1 157 0
 1385 0030 23B1     		cbz	r3, .L150
 157:Generated_Source\PSoC5/CAN.c ****         {
 1386              		.loc 1 157 0 is_stmt 0 discriminator 1
 1387 0032 284A     		ldr	r2, .L165+4
 1388 0034 1278     		ldrb	r2, [r2]	@ zero_extendqisi2
 1389 0036 12F0010F 		tst	r2, #1
 1390 003a F8D1     		bne	.L151
 1391              	.L150:
 174:Generated_Source\PSoC5/CAN.c ****         {
 1392              		.loc 1 174 0 is_stmt 1
 1393 003c 002B     		cmp	r3, #0
 1394 003e 3CD0     		beq	.L154
 177:Generated_Source\PSoC5/CAN.c **** 
 1395              		.loc 1 177 0
 1396 0040 4FF48032 		mov	r2, #65536
 1397 0044 244B     		ldr	r3, .L165+8
 1398              	.LVL147:
 1399 0046 1A60     		str	r2, [r3]
 180:Generated_Source\PSoC5/CAN.c **** 
 1400              		.loc 1 180 0
 1401 0048 2449     		ldr	r1, .L165+12
 1402 004a 1020     		movs	r0, #16
 1403 004c FFF7FEFF 		bl	CyIntSetVector
 1404              	.LVL148:
 183:Generated_Source\PSoC5/CAN.c **** 
 1405              		.loc 1 183 0
 1406 0050 0721     		movs	r1, #7
 1407 0052 1020     		movs	r0, #16
 1408 0054 FFF7FEFF 		bl	CyIntSetPriority
 1409              	.LVL149:
 185:Generated_Source\PSoC5/CAN.c ****             {
 1410              		.loc 1 185 0
 1411 0058 0220     		movs	r0, #2
 1412 005a FFF7FEFF 		bl	CAN_SetPreScaler
 1413              	.LVL150:
 1414 005e 88B9     		cbnz	r0, .L155
 187:Generated_Source\PSoC5/CAN.c ****                 {
 1415              		.loc 1 187 0
 1416 0060 FFF7FEFF 		bl	CAN_SetArbiter
ARM GAS  C:\Users\HENRYH~1\AppData\Local\Temp\ccMT0gCo.s 			page 52


 1417              	.LVL151:
 1418 0064 80B9     		cbnz	r0, .L156
 193:Generated_Source\PSoC5/CAN.c ****                                 CAN_CFG_REG_TSEG2, CAN_CFG_REG_SJW,
 1419              		.loc 1 193 0
 1420 0066 0023     		movs	r3, #0
 1421 0068 0122     		movs	r2, #1
 1422 006a 1146     		mov	r1, r2
 1423 006c 0420     		movs	r0, #4
 1424 006e FFF7FEFF 		bl	CAN_SetTsegSample
 1425              	.LVL152:
 1426 0072 58B9     		cbnz	r0, .L157
 197:Generated_Source\PSoC5/CAN.c ****                                 {
 1427              		.loc 1 197 0
 1428 0074 FFF7FEFF 		bl	CAN_SetRestartType
 1429              	.LVL153:
 1430 0078 50B9     		cbnz	r0, .L158
 199:Generated_Source\PSoC5/CAN.c ****                                     {
 1431              		.loc 1 199 0
 1432 007a FFF7FEFF 		bl	CAN_SetEdgeMode
 1433              	.LVL154:
 1434 007e 48B1     		cbz	r0, .L159
 141:Generated_Source\PSoC5/CAN.c **** 
 1435              		.loc 1 141 0
 1436 0080 0123     		movs	r3, #1
 1437 0082 08E0     		b	.L153
 1438              	.L155:
 1439 0084 0123     		movs	r3, #1
 1440 0086 06E0     		b	.L153
 1441              	.L156:
 1442 0088 0123     		movs	r3, #1
 1443 008a 04E0     		b	.L153
 1444              	.L157:
 1445 008c 0123     		movs	r3, #1
 1446 008e 02E0     		b	.L153
 1447              	.L158:
 1448 0090 0123     		movs	r3, #1
 1449 0092 00E0     		b	.L153
 1450              	.L159:
 201:Generated_Source\PSoC5/CAN.c ****                                     }
 1451              		.loc 1 201 0
 1452 0094 0023     		movs	r3, #0
 1453              	.L153:
 1454              	.LVL155:
 209:Generated_Source\PSoC5/CAN.c ****             {
 1455              		.loc 1 209 0
 1456 0096 93B9     		cbnz	r3, .L160
 211:Generated_Source\PSoC5/CAN.c ****                 {
 1457              		.loc 1 211 0
 1458 0098 FFF7FEFF 		bl	CAN_RxTxBuffersConfig
 1459              	.LVL156:
 1460 009c 88B9     		cbnz	r0, .L161
 214:Generated_Source\PSoC5/CAN.c ****                         CYRET_SUCCESS)
 1461              		.loc 1 214 0
 1462 009e 41F20120 		movw	r0, #4609
 1463 00a2 FFF7FEFF 		bl	CAN_SetIrqMask
 1464              	.LVL157:
 1465 00a6 70B9     		cbnz	r0, .L162
ARM GAS  C:\Users\HENRYH~1\AppData\Local\Temp\ccMT0gCo.s 			page 53


 219:Generated_Source\PSoC5/CAN.c ****                             if ((CAN_CMD_REG.byte[0u] & CAN_MODE_MASK) == 0u)
 1466              		.loc 1 219 0
 1467 00a8 0A4B     		ldr	r3, .L165+4
 1468 00aa 0022     		movs	r2, #0
 1469 00ac 1A70     		strb	r2, [r3]
 220:Generated_Source\PSoC5/CAN.c ****                         #else  /* CY_PSOC4 */
 1470              		.loc 1 220 0
 1471 00ae 1B78     		ldrb	r3, [r3]	@ zero_extendqisi2
 1472 00b0 13F0010F 		tst	r3, #1
 1473 00b4 09D0     		beq	.L163
 140:Generated_Source\PSoC5/CAN.c ****     uint8 localResult = CAN_FAIL;
 1474              		.loc 1 140 0
 1475 00b6 0120     		movs	r0, #1
 1476 00b8 08BD     		pop	{r3, pc}
 1477              	.LVL158:
 1478              	.L154:
 1479 00ba 0120     		movs	r0, #1
 1480 00bc 08BD     		pop	{r3, pc}
 1481              	.LVL159:
 1482              	.L160:
 1483 00be 0120     		movs	r0, #1
 1484 00c0 08BD     		pop	{r3, pc}
 1485              	.LVL160:
 1486              	.L161:
 1487 00c2 0120     		movs	r0, #1
 1488 00c4 08BD     		pop	{r3, pc}
 1489              	.L162:
 1490 00c6 0120     		movs	r0, #1
 1491 00c8 08BD     		pop	{r3, pc}
 1492              	.L163:
 226:Generated_Source\PSoC5/CAN.c ****                             }
 1493              		.loc 1 226 0
 1494 00ca 0020     		movs	r0, #0
 1495              	.LVL161:
 234:Generated_Source\PSoC5/CAN.c **** 
 1496              		.loc 1 234 0
 1497 00cc 08BD     		pop	{r3, pc}
 1498              	.L166:
 1499 00ce 00BF     		.align	2
 1500              	.L165:
 1501 00d0 A6430040 		.word	1073759142
 1502 00d4 10A00040 		.word	1073782800
 1503 00d8 80E100E0 		.word	-536813184
 1504 00dc 00000000 		.word	CAN_ISR
 1505              		.cfi_endproc
 1506              	.LFE1:
 1507              		.size	CAN_Init, .-CAN_Init
 1508              		.section	.text.CAN_Start,"ax",%progbits
 1509              		.align	2
 1510              		.global	CAN_Start
 1511              		.thumb
 1512              		.thumb_func
 1513              		.type	CAN_Start, %function
 1514              	CAN_Start:
 1515              	.LFB3:
 324:Generated_Source\PSoC5/CAN.c ****     uint8 result = CYRET_SUCCESS;
 1516              		.loc 1 324 0
ARM GAS  C:\Users\HENRYH~1\AppData\Local\Temp\ccMT0gCo.s 			page 54


 1517              		.cfi_startproc
 1518              		@ args = 0, pretend = 0, frame = 0
 1519              		@ frame_needed = 0, uses_anonymous_args = 0
 1520 0000 08B5     		push	{r3, lr}
 1521              		.cfi_def_cfa_offset 8
 1522              		.cfi_offset 3, -8
 1523              		.cfi_offset 14, -4
 1524              	.LVL162:
 327:Generated_Source\PSoC5/CAN.c ****     {
 1525              		.loc 1 327 0
 1526 0002 074B     		ldr	r3, .L172
 1527 0004 1B78     		ldrb	r3, [r3]	@ zero_extendqisi2
 1528 0006 13B9     		cbnz	r3, .L170
 329:Generated_Source\PSoC5/CAN.c ****     }
 1529              		.loc 1 329 0
 1530 0008 FFF7FEFF 		bl	CAN_Init
 1531              	.LVL163:
 1532 000c 00E0     		b	.L168
 1533              	.LVL164:
 1534              	.L170:
 325:Generated_Source\PSoC5/CAN.c **** 
 1535              		.loc 1 325 0
 1536 000e 0020     		movs	r0, #0
 1537              	.LVL165:
 1538              	.L168:
 332:Generated_Source\PSoC5/CAN.c ****     {
 1539              		.loc 1 332 0
 1540 0010 20B9     		cbnz	r0, .L169
 334:Generated_Source\PSoC5/CAN.c ****         result = CAN_Enable();
 1541              		.loc 1 334 0
 1542 0012 0122     		movs	r2, #1
 1543 0014 024B     		ldr	r3, .L172
 1544 0016 1A70     		strb	r2, [r3]
 335:Generated_Source\PSoC5/CAN.c ****     }
 1545              		.loc 1 335 0
 1546 0018 FFF7FEFF 		bl	CAN_Enable
 1547              	.LVL166:
 1548              	.L169:
 339:Generated_Source\PSoC5/CAN.c **** 
 1549              		.loc 1 339 0
 1550 001c 08BD     		pop	{r3, pc}
 1551              	.L173:
 1552 001e 00BF     		.align	2
 1553              	.L172:
 1554 0020 00000000 		.word	.LANCHOR1
 1555              		.cfi_endproc
 1556              	.LFE3:
 1557              		.size	CAN_Start, .-CAN_Start
 1558              		.global	CAN_initVar
 1559              		.section	.rodata
 1560              		.align	2
 1561              		.set	.LANCHOR0,. + 0
 1562              		.type	CAN_TXConfigStruct.5057, %object
 1563              		.size	CAN_TXConfigStruct.5057, 96
 1564              	CAN_TXConfigStruct.5057:
 1565 0000 00       		.byte	0
 1566 0001 000000   		.space	3
ARM GAS  C:\Users\HENRYH~1\AppData\Local\Temp\ccMT0gCo.s 			page 55


 1567 0004 00000800 		.word	524288
 1568 0008 00002000 		.word	2097152
 1569 000c 01       		.byte	1
 1570 000d 000000   		.space	3
 1571 0010 08008800 		.word	8912904
 1572 0014 00000000 		.word	0
 1573 0018 02       		.byte	2
 1574 0019 000000   		.space	3
 1575 001c 08008800 		.word	8912904
 1576 0020 00000000 		.word	0
 1577 0024 03       		.byte	3
 1578 0025 000000   		.space	3
 1579 0028 08008800 		.word	8912904
 1580 002c 00000000 		.word	0
 1581 0030 04       		.byte	4
 1582 0031 000000   		.space	3
 1583 0034 08008800 		.word	8912904
 1584 0038 00000000 		.word	0
 1585 003c 05       		.byte	5
 1586 003d 000000   		.space	3
 1587 0040 08008800 		.word	8912904
 1588 0044 00000000 		.word	0
 1589 0048 06       		.byte	6
 1590 0049 000000   		.space	3
 1591 004c 08008800 		.word	8912904
 1592 0050 00000000 		.word	0
 1593 0054 07       		.byte	7
 1594 0055 000000   		.space	3
 1595 0058 08008800 		.word	8912904
 1596 005c 00000000 		.word	0
 1597              		.type	CAN_RXConfigStruct.5056, %object
 1598              		.size	CAN_RXConfigStruct.5056, 256
 1599              	CAN_RXConfigStruct.5056:
 1600 0060 00       		.byte	0
 1601 0061 000000   		.space	3
 1602 0064 28000000 		.word	40
 1603 0068 F9FF1F00 		.word	2097145
 1604 006c 00004000 		.word	4194304
 1605 0070 01       		.byte	1
 1606 0071 000000   		.space	3
 1607 0074 00000000 		.word	0
 1608 0078 00000000 		.word	0
 1609 007c 00000000 		.word	0
 1610 0080 02       		.byte	2
 1611 0081 000000   		.space	3
 1612 0084 00000000 		.word	0
 1613 0088 00000000 		.word	0
 1614 008c 00000000 		.word	0
 1615 0090 03       		.byte	3
 1616 0091 000000   		.space	3
 1617 0094 00000000 		.word	0
 1618 0098 00000000 		.word	0
 1619 009c 00000000 		.word	0
 1620 00a0 04       		.byte	4
 1621 00a1 000000   		.space	3
 1622 00a4 00000000 		.word	0
 1623 00a8 00000000 		.word	0
ARM GAS  C:\Users\HENRYH~1\AppData\Local\Temp\ccMT0gCo.s 			page 56


 1624 00ac 00000000 		.word	0
 1625 00b0 05       		.byte	5
 1626 00b1 000000   		.space	3
 1627 00b4 00000000 		.word	0
 1628 00b8 00000000 		.word	0
 1629 00bc 00000000 		.word	0
 1630 00c0 06       		.byte	6
 1631 00c1 000000   		.space	3
 1632 00c4 00000000 		.word	0
 1633 00c8 00000000 		.word	0
 1634 00cc 00000000 		.word	0
 1635 00d0 07       		.byte	7
 1636 00d1 000000   		.space	3
 1637 00d4 00000000 		.word	0
 1638 00d8 00000000 		.word	0
 1639 00dc 00000000 		.word	0
 1640 00e0 08       		.byte	8
 1641 00e1 000000   		.space	3
 1642 00e4 00000000 		.word	0
 1643 00e8 00000000 		.word	0
 1644 00ec 00000000 		.word	0
 1645 00f0 09       		.byte	9
 1646 00f1 000000   		.space	3
 1647 00f4 00000000 		.word	0
 1648 00f8 00000000 		.word	0
 1649 00fc 00000000 		.word	0
 1650 0100 0A       		.byte	10
 1651 0101 000000   		.space	3
 1652 0104 00000000 		.word	0
 1653 0108 00000000 		.word	0
 1654 010c 00000000 		.word	0
 1655 0110 0B       		.byte	11
 1656 0111 000000   		.space	3
 1657 0114 00000000 		.word	0
 1658 0118 00000000 		.word	0
 1659 011c 00000000 		.word	0
 1660 0120 0C       		.byte	12
 1661 0121 000000   		.space	3
 1662 0124 00000000 		.word	0
 1663 0128 00000000 		.word	0
 1664 012c 00000000 		.word	0
 1665 0130 0D       		.byte	13
 1666 0131 000000   		.space	3
 1667 0134 00000000 		.word	0
 1668 0138 00000000 		.word	0
 1669 013c 00000000 		.word	0
 1670 0140 0E       		.byte	14
 1671 0141 000000   		.space	3
 1672 0144 00000000 		.word	0
 1673 0148 00000000 		.word	0
 1674 014c 00000000 		.word	0
 1675 0150 0F       		.byte	15
 1676 0151 000000   		.space	3
 1677 0154 00000000 		.word	0
 1678 0158 00000000 		.word	0
 1679 015c 00000000 		.word	0
 1680              		.bss
ARM GAS  C:\Users\HENRYH~1\AppData\Local\Temp\ccMT0gCo.s 			page 57


 1681              		.set	.LANCHOR1,. + 0
 1682              		.type	CAN_initVar, %object
 1683              		.size	CAN_initVar, 1
 1684              	CAN_initVar:
 1685 0000 00       		.space	1
 1686              		.text
 1687              	.Letext0:
 1688              		.file 2 "Generated_Source\\PSoC5\\cytypes.h"
 1689              		.file 3 "Generated_Source\\PSoC5\\CAN.h"
 1690              		.file 4 "Generated_Source\\PSoC5\\CyLib.h"